
MRS.elf:     file format elf32-littleriscv
MRS.elf
architecture: riscv:rv32, flags 0x00000112:
EXEC_P, HAS_SYMS, D_PAGED
start address 0x00000000

Program Header:
    LOAD off    0x00001000 vaddr 0x00000000 paddr 0x00000000 align 2**12
         filesz 0x00002c08 memsz 0x00002c08 flags r-x
    LOAD off    0x00004000 vaddr 0x20000000 paddr 0x00002c08 align 2**12
         filesz 0x00000020 memsz 0x00000078 flags rw-
    LOAD off    0x00004800 vaddr 0x20004800 paddr 0x20004800 align 2**12
         filesz 0x00000000 memsz 0x00000800 flags rw-

Sections:
Idx Name           Size      VMA       LMA       File off  Algn  Flags
  0 .init          00000038  00000000  00000000  00001000  2**1  CONTENTS, ALLOC, LOAD, READONLY, CODE
  1 .vector        00000108  00000038  00000038  00001038  2**1  CONTENTS, ALLOC, LOAD, READONLY, CODE
  2 .text          00002ac8  00000140  00000140  00001140  2**2  CONTENTS, ALLOC, LOAD, READONLY, CODE
  3 .fini          00000000  00002c08  00002c08  00004020  2**0  CONTENTS, ALLOC, LOAD, CODE
  4 .dalign        00000000  20000000  20000000  00004020  2**0  CONTENTS
  5 .dlalign       00000000  00002c08  00002c08  00004020  2**0  CONTENTS
  6 .data          00000020  20000000  00002c08  00004000  2**2  CONTENTS, ALLOC, LOAD, DATA
  7 .bss           00000058  20000020  00002c28  00004020  2**2  ALLOC
  8 .stack         00000800  20004800  20004800  00004800  2**0  ALLOC
  9 .debug_line    0000baf7  00000000  00000000  00004020  2**0  CONTENTS, READONLY, DEBUGGING
 10 .debug_info    00012409  00000000  00000000  0000fb17  2**0  CONTENTS, READONLY, DEBUGGING
 11 .debug_abbrev  00002fca  00000000  00000000  00021f20  2**0  CONTENTS, READONLY, DEBUGGING
 12 .debug_aranges 00000b98  00000000  00000000  00024ef0  2**3  CONTENTS, READONLY, DEBUGGING
 13 .debug_str     000040b9  00000000  00000000  00025a88  2**0  CONTENTS, READONLY, DEBUGGING
 14 .debug_ranges  00000a18  00000000  00000000  00029b48  2**3  CONTENTS, READONLY, DEBUGGING
 15 .comment       00000033  00000000  00000000  0002a560  2**0  CONTENTS, READONLY
 16 .debug_frame   00002890  00000000  00000000  0002a594  2**2  CONTENTS, READONLY, DEBUGGING
 17 .stabstr       00000183  00000000  00000000  0002ce24  2**0  CONTENTS, READONLY, DEBUGGING
SYMBOL TABLE:
00000000 l    d  .init	00000000 .init
00000038 l    d  .vector	00000000 .vector
00000140 l    d  .text	00000000 .text
00002c08 l    d  .fini	00000000 .fini
20000000 l    d  .dalign	00000000 .dalign
00002c08 l    d  .dlalign	00000000 .dlalign
20000000 l    d  .data	00000000 .data
20000020 l    d  .bss	00000000 .bss
20004800 l    d  .stack	00000000 .stack
00000000 l    d  .debug_line	00000000 .debug_line
00000000 l    d  .debug_info	00000000 .debug_info
00000000 l    d  .debug_abbrev	00000000 .debug_abbrev
00000000 l    d  .debug_aranges	00000000 .debug_aranges
00000000 l    d  .debug_str	00000000 .debug_str
00000000 l    d  .debug_ranges	00000000 .debug_ranges
00000000 l    d  .comment	00000000 .comment
00000000 l    d  .debug_frame	00000000 .debug_frame
00000000 l    d  .stabstr	00000000 .stabstr
00000000 l    df *ABS*	00000000 ./wch_Libraries/Startup/startup_ch32v10x.o
00000038 l       .vector	00000000 _vector_base
00000000 l    df *ABS*	00000000 ch32v10x_dma.c
00000000 l    df *ABS*	00000000 ch32v10x_exti.c
00000000 l    df *ABS*	00000000 ch32v10x_gpio.c
00000000 l    df *ABS*	00000000 ch32v10x_rcc.c
20000000 l     O .data	00000010 APBAHBPrescTable
20000010 l     O .data	00000004 ADCPrescTable
00000000 l    df *ABS*	00000000 ch32v10x_tim.c
00000000 l    df *ABS*	00000000 ch32v10x_usart.c
00000000 l    df *ABS*	00000000 SEEKFREE_BLUETOOTH_CH9141.c
00000000 l    df *ABS*	00000000 SEEKFREE_MT9V03X.c
00000000 l    df *ABS*	00000000 SEEKFREE_UART_7725.c
00000000 l    df *ABS*	00000000 SEEKFREE_WIRELESS.c
00000000 l    df *ABS*	00000000 board.c
00000000 l    df *ABS*	00000000 clock_config.c
00001288 l     F .text	00000140 SetSysClock
00000000 l    df *ABS*	00000000 zf_gpio.c
00000000 l    df *ABS*	00000000 zf_nvic.c
00000000 l    df *ABS*	00000000 zf_systick.c
00000000 l    df *ABS*	00000000 zf_uart.c
00000000 l    df *ABS*	00000000 zf_usb_cdc.c
00000000 l    df *ABS*	00000000 isr.c
00000000 l    df *ABS*	00000000 main.c
00000000 l    df *ABS*	00000000 memcpy.c
00000000 l    df *ABS*	00000000 strncmp.c
00000000 l    df *ABS*	00000000 ch32v10x_usb.c
00000000 l    df *ABS*	00000000 common.c
00000000 l    df *ABS*	00000000 close.c
00002382 g     F .text	00000024 EXTI2_IRQHandler
20000044 g     O .bss	00000004 wireless_type
00000f62 g     F .text	0000004a bluetooth_ch9141_check_response
00001896 g     F .text	00000a72 USB_DevTransProcess
20000810 g       .data	00000000 __global_pointer$
000025e8 g     F .text	00000090 TIM1_CC_IRQHandler
0000282a g     F .text	00000008 HardFault_Handler
2000003e g     O .bss	00000001 wireless_rx_buffer
20000048 g     O .bss	00000004 sys_clk
0000281a g     F .text	00000010 NMI_Handler
000023a6 g     F .text	00000024 EXTI3_IRQHandler
20000040 g     O .bss	00000004 camera_type
20000020 g       .bss	00000000 _sbss
00000800 g       *ABS*	00000000 __stack_size
20000028 g     O .bss	00000001 uart_flag
00000140 g       .text	00000000 interrupt_disable
2000003d g     O .bss	00000001 ov7725_uart_finish_flag
00002a90 g     O .text	00000012 MyDevDescr
00002870 g     F .text	000000b6 memcpy
00000624 g     F .text	0000013c GPIO_PinRemapConfig
0000231c g     F .text	00000024 EXTI0_IRQHandler
2000004e g     O .bss	00000002 SetupReqLen
00000038 g       .init	00000000 _einit
00000abc g     F .text	0000002e TIM_ClearITPendingBit
0000097a g     F .text	00000046 RCC_APB2PeriphClockCmd
0000101c g     F .text	0000005c mt9v03x_vsync
0000251c g     F .text	00000010 ADC1_2_IRQHandler
000003c2 g     F .text	0000022a GPIO_Init
20000050 g     O .bss	00000001 USBByteCount
2000004d g     O .bss	00000001 SetupReqCode
00000d1c g     F .text	00000060 USART_Cmd
2000001c g     O .data	00000004 MyLangDescr
00000e7e g     F .text	0000004e USART_ClearITPendingBit
000009c0 g     F .text	00000046 RCC_APB1PeriphClockCmd
00002aa4 g     O .text	00000043 MyCfgDescr
000027d8 g     F .text	00000042 DMA1_Channel4_IRQHandler
00002afc g     O .text	0000000e MyManuInfo
000001ca g     F .text	0000005c DMA_GetFlagStatus
2000002a g     O .bss	00000001 at_mode
000027a4 g     F .text	00000034 USART3_IRQHandler
000002b4 g     F .text	00000020 EXTI_ClearITPendingBit
20000078 g       .bss	00000000 _ebss
00000d7c g     F .text	00000102 USART_GetITStatus
20000054 g     O .bss	00000004 pDescr
00001626 g     F .text	00000094 systick_delay
20000029 g     O .bss	00000001 uart_data
000010ce g     F .text	00000070 ov7725_cof_uart_interrupt
00002a80 g     O .text	00000010 UARTN
000026d0 g     F .text	00000030 TIM4_IRQHandler
2000002c g     O .bss	00000001 at_mode_cmd_flag
000005ec g     F .text	00000038 GPIO_WriteBit
2000003b g     O .bss	00000001 ov7725_uart_receive_num
20000078 g       .bss	00000000 end
20000014 g     O .data	00000007 LineCoding
00000a4c g     F .text	00000070 TIM_GetITStatus
00002308 g     F .text	00000014 USBHD_IRQHandler
00000760 g     F .text	0000021a RCC_GetClocksFreq
00001792 g     F .text	00000104 uart_init
00000aea g     F .text	00000232 USART_Init
000026a0 g     F .text	00000030 TIM3_IRQHandler
00001600 g     F .text	00000026 EnableGlobalIRQ
000016ba g     F .text	000000d8 uart_gpio_init
00002590 g     F .text	00000058 TIM1_TRG_COM_IRQHandler
0000119a g     F .text	00000056 ov7725_uart_dma
00000000 g       .init	00000000 _start
2000003c g     O .bss	00000001 ov7725_uart_receive_flag
0000247e g     F .text	0000009e EXTI15_10_IRQHandler
00002a70 g     O .text	00000010 GPION
00002926 g     F .text	0000002c strncmp
20000024 g     O .bss	00000004 pEP2_RAM_Addr
20000058 g     O .bss	0000001e at_mode_data
20000000 g       .dalign	00000000 _data_vma
000023ee g     F .text	00000090 EXTI9_5_IRQHandler
00001216 g     F .text	00000072 board_init
0000025e g     F .text	00000056 EXTI_GetITStatus
20000020 g     O .bss	00000004 pEP0_RAM_Addr
00001078 g     F .text	00000056 mt9v03x_dma
00002832 g     F .text	0000003e main
000023ca g     F .text	00000024 EXTI4_IRQHandler
00002b0c g     O .text	0000000c MyProdInfo
000015e8 g     F .text	00000018 DisableGlobalIRQ
000013c8 g     F .text	0000007c SystemInit
000002d4 g     F .text	000000ee GPIO_DeInit
00000000 g       .init	00000000 _sinit
20000033 g     O .bss	00000001 receive_num
00002560 g     F .text	00000030 TIM1_UP_IRQHandler
20000030 g     O .bss	00000003 receive
0000113e g     F .text	0000005c ov7725_uart_vsync
00002678 g     F .text	00000028 TIM2_IRQHandler
20005000 g       .stack	00000000 _eusrstack
20000034 g     O .bss	00000001 uart_receive_flag
00000fac g     F .text	00000070 mt9v03x_uart_callback
00000ecc g     F .text	00000096 bluetooth_ch9141_uart_callback
20000035 g     O .bss	00000001 mt9v03x_finish_flag
0000252c g     F .text	00000034 TIM1_BRK_IRQHandler
00002340 g     F .text	00000042 EXTI1_IRQHandler
20000020 g       .data	00000000 _edata
000011f0 g     F .text	00000026 wireless_uart_callback
00002c08 g       .dlalign	00000000 _data_lma
2000002b g     O .bss	00000001 at_mode_num
00002752 g     F .text	00000052 USART2_IRQHandler
00002ae8 g     O .text	00000014 MyProductIDInfo
00000226 g     F .text	00000038 DMA_ClearFlag
0000014c  w      .text	00000000 handle_reset
00002700 g     F .text	00000052 USART1_IRQHandler
00000146 g       .text	00000000 interrupt_enable
2000004c g     O .bss	00000001 UsbConfig
00000a06 g     F .text	00000046 RCC_APB2PeriphResetCmd
00001444 g     F .text	000001a4 gpio_init
20000038 g     O .bss	00000003 ov7725_uart_receive



Disassembly of section .init:

00000000 <_sinit>:
_start():
E:/proj/riscv/Seekfree_CH32V103R8T6_Opensource_Library/Libraries/wch_Libraries/Startup/startup_ch32v10x.S:13

	.section	.init,"ax",@progbits
	.global	_start
	.align	1
_start:
	j	handle_reset
   0:	14c0006f          	j	14c <handle_reset>
   4:	00000013          	nop
   8:	00000013          	nop
   c:	00000013          	nop
  10:	00000013          	nop
  14:	00000013          	nop
  18:	00000013          	nop
  1c:	00000013          	nop
  20:	00000013          	nop
  24:	00000013          	nop
  28:	00000013          	nop
  2c:	00000013          	nop
  30:	00000013          	nop
  34:	00100073          	ebreak

Disassembly of section .vector:

00000038 <_vector_base>:
_vector_base():
E:/proj/riscv/Seekfree_CH32V103R8T6_Opensource_Library/Libraries/wch_Libraries/Startup/startup_ch32v10x.S:31
	.word 0x00100073
    .section    .vector,"ax",@progbits
    .align  1
_vector_base:
    .option norvc;
        j   _start
  38:	fc9ff06f          	j	0 <_sinit>
  3c:	0000                	unimp
  3e:	0000                	unimp
E:/proj/riscv/Seekfree_CH32V103R8T6_Opensource_Library/Libraries/wch_Libraries/Startup/startup_ch32v10x.S:33
    .word   0
        j   NMI_Handler                 /* NMI Handler */
  40:	7da0206f          	j	281a <NMI_Handler>
E:/proj/riscv/Seekfree_CH32V103R8T6_Opensource_Library/Libraries/wch_Libraries/Startup/startup_ch32v10x.S:34
        j   HardFault_Handler           /* Hard Fault Handler */
  44:	7e60206f          	j	282a <HardFault_Handler>
	...
E:/proj/riscv/Seekfree_CH32V103R8T6_Opensource_Library/Libraries/wch_Libraries/Startup/startup_ch32v10x.S:43
    .word   0
    .word   0
    .word   0
    .word   0
    .word   0
        j   SysTick_Handler            /* SysTick Handler */
  68:	f99ff06f          	j	0 <_sinit>
  6c:	0000                	unimp
  6e:	0000                	unimp
E:/proj/riscv/Seekfree_CH32V103R8T6_Opensource_Library/Libraries/wch_Libraries/Startup/startup_ch32v10x.S:45
    .word   0
        j   SW_handler                 /* SW Handler */
  70:	f91ff06f          	j	0 <_sinit>
  74:	0000                	unimp
  76:	0000                	unimp
E:/proj/riscv/Seekfree_CH32V103R8T6_Opensource_Library/Libraries/wch_Libraries/Startup/startup_ch32v10x.S:48
    .word   0
    /* External Interrupts */
        j   WWDG_IRQHandler            /* Window Watchdog */
  78:	f89ff06f          	j	0 <_sinit>
E:/proj/riscv/Seekfree_CH32V103R8T6_Opensource_Library/Libraries/wch_Libraries/Startup/startup_ch32v10x.S:49
        j   PVD_IRQHandler             /* PVD through EXTI Line detect */
  7c:	f85ff06f          	j	0 <_sinit>
E:/proj/riscv/Seekfree_CH32V103R8T6_Opensource_Library/Libraries/wch_Libraries/Startup/startup_ch32v10x.S:50
        j   TAMPER_IRQHandler          /* TAMPER */
  80:	f81ff06f          	j	0 <_sinit>
E:/proj/riscv/Seekfree_CH32V103R8T6_Opensource_Library/Libraries/wch_Libraries/Startup/startup_ch32v10x.S:51
        j   RTC_IRQHandler             /* RTC */
  84:	f7dff06f          	j	0 <_sinit>
E:/proj/riscv/Seekfree_CH32V103R8T6_Opensource_Library/Libraries/wch_Libraries/Startup/startup_ch32v10x.S:52
        j   FLASH_IRQHandler           /* Flash */
  88:	f79ff06f          	j	0 <_sinit>
E:/proj/riscv/Seekfree_CH32V103R8T6_Opensource_Library/Libraries/wch_Libraries/Startup/startup_ch32v10x.S:53
        j   RCC_IRQHandler             /* RCC */
  8c:	f75ff06f          	j	0 <_sinit>
E:/proj/riscv/Seekfree_CH32V103R8T6_Opensource_Library/Libraries/wch_Libraries/Startup/startup_ch32v10x.S:54
        j   EXTI0_IRQHandler           /* EXTI Line 0 */
  90:	28c0206f          	j	231c <EXTI0_IRQHandler>
E:/proj/riscv/Seekfree_CH32V103R8T6_Opensource_Library/Libraries/wch_Libraries/Startup/startup_ch32v10x.S:55
        j   EXTI1_IRQHandler           /* EXTI Line 1 */
  94:	2ac0206f          	j	2340 <EXTI1_IRQHandler>
E:/proj/riscv/Seekfree_CH32V103R8T6_Opensource_Library/Libraries/wch_Libraries/Startup/startup_ch32v10x.S:56
        j   EXTI2_IRQHandler           /* EXTI Line 2 */
  98:	2ea0206f          	j	2382 <EXTI2_IRQHandler>
E:/proj/riscv/Seekfree_CH32V103R8T6_Opensource_Library/Libraries/wch_Libraries/Startup/startup_ch32v10x.S:57
        j   EXTI3_IRQHandler           /* EXTI Line 3 */
  9c:	30a0206f          	j	23a6 <EXTI3_IRQHandler>
E:/proj/riscv/Seekfree_CH32V103R8T6_Opensource_Library/Libraries/wch_Libraries/Startup/startup_ch32v10x.S:58
        j   EXTI4_IRQHandler           /* EXTI Line 4 */
  a0:	32a0206f          	j	23ca <EXTI4_IRQHandler>
E:/proj/riscv/Seekfree_CH32V103R8T6_Opensource_Library/Libraries/wch_Libraries/Startup/startup_ch32v10x.S:59
        j   DMA1_Channel1_IRQHandler   /* DMA1 Channel 1 */
  a4:	f5dff06f          	j	0 <_sinit>
E:/proj/riscv/Seekfree_CH32V103R8T6_Opensource_Library/Libraries/wch_Libraries/Startup/startup_ch32v10x.S:60
        j   DMA1_Channel2_IRQHandler   /* DMA1 Channel 2 */
  a8:	f59ff06f          	j	0 <_sinit>
E:/proj/riscv/Seekfree_CH32V103R8T6_Opensource_Library/Libraries/wch_Libraries/Startup/startup_ch32v10x.S:61
        j   DMA1_Channel3_IRQHandler   /* DMA1 Channel 3 */
  ac:	f55ff06f          	j	0 <_sinit>
E:/proj/riscv/Seekfree_CH32V103R8T6_Opensource_Library/Libraries/wch_Libraries/Startup/startup_ch32v10x.S:62
        j   DMA1_Channel4_IRQHandler   /* DMA1 Channel 4 */
  b0:	7280206f          	j	27d8 <DMA1_Channel4_IRQHandler>
E:/proj/riscv/Seekfree_CH32V103R8T6_Opensource_Library/Libraries/wch_Libraries/Startup/startup_ch32v10x.S:63
        j   DMA1_Channel5_IRQHandler   /* DMA1 Channel 5 */
  b4:	f4dff06f          	j	0 <_sinit>
E:/proj/riscv/Seekfree_CH32V103R8T6_Opensource_Library/Libraries/wch_Libraries/Startup/startup_ch32v10x.S:64
        j   DMA1_Channel6_IRQHandler   /* DMA1 Channel 6 */
  b8:	f49ff06f          	j	0 <_sinit>
E:/proj/riscv/Seekfree_CH32V103R8T6_Opensource_Library/Libraries/wch_Libraries/Startup/startup_ch32v10x.S:65
        j   DMA1_Channel7_IRQHandler   /* DMA1 Channel 7 */
  bc:	f45ff06f          	j	0 <_sinit>
E:/proj/riscv/Seekfree_CH32V103R8T6_Opensource_Library/Libraries/wch_Libraries/Startup/startup_ch32v10x.S:66
        j   ADC1_2_IRQHandler          /* ADC1_2 */
  c0:	45c0206f          	j	251c <ADC1_2_IRQHandler>
	...
E:/proj/riscv/Seekfree_CH32V103R8T6_Opensource_Library/Libraries/wch_Libraries/Startup/startup_ch32v10x.S:71
        .word   0
        .word   0
        .word   0
        .word   0
        j   EXTI9_5_IRQHandler         /* EXTI Line 9..5 */
  d4:	31a0206f          	j	23ee <EXTI9_5_IRQHandler>
E:/proj/riscv/Seekfree_CH32V103R8T6_Opensource_Library/Libraries/wch_Libraries/Startup/startup_ch32v10x.S:72
        j   TIM1_BRK_IRQHandler        /* TIM1 Break */
  d8:	4540206f          	j	252c <TIM1_BRK_IRQHandler>
E:/proj/riscv/Seekfree_CH32V103R8T6_Opensource_Library/Libraries/wch_Libraries/Startup/startup_ch32v10x.S:73
        j   TIM1_UP_IRQHandler         /* TIM1 Update */
  dc:	4840206f          	j	2560 <TIM1_UP_IRQHandler>
E:/proj/riscv/Seekfree_CH32V103R8T6_Opensource_Library/Libraries/wch_Libraries/Startup/startup_ch32v10x.S:74
        j   TIM1_TRG_COM_IRQHandler    /* TIM1 Trigger and Commutation */
  e0:	4b00206f          	j	2590 <TIM1_TRG_COM_IRQHandler>
E:/proj/riscv/Seekfree_CH32V103R8T6_Opensource_Library/Libraries/wch_Libraries/Startup/startup_ch32v10x.S:75
        j   TIM1_CC_IRQHandler         /* TIM1 Capture Compare */
  e4:	5040206f          	j	25e8 <TIM1_CC_IRQHandler>
E:/proj/riscv/Seekfree_CH32V103R8T6_Opensource_Library/Libraries/wch_Libraries/Startup/startup_ch32v10x.S:76
        j   TIM2_IRQHandler            /* TIM2 */
  e8:	5900206f          	j	2678 <TIM2_IRQHandler>
E:/proj/riscv/Seekfree_CH32V103R8T6_Opensource_Library/Libraries/wch_Libraries/Startup/startup_ch32v10x.S:77
        j   TIM3_IRQHandler            /* TIM3 */
  ec:	5b40206f          	j	26a0 <TIM3_IRQHandler>
E:/proj/riscv/Seekfree_CH32V103R8T6_Opensource_Library/Libraries/wch_Libraries/Startup/startup_ch32v10x.S:78
        j   TIM4_IRQHandler            /* TIM4 */
  f0:	5e00206f          	j	26d0 <TIM4_IRQHandler>
E:/proj/riscv/Seekfree_CH32V103R8T6_Opensource_Library/Libraries/wch_Libraries/Startup/startup_ch32v10x.S:79
        j   I2C1_EV_IRQHandler         /* I2C1 Event */
  f4:	f0dff06f          	j	0 <_sinit>
E:/proj/riscv/Seekfree_CH32V103R8T6_Opensource_Library/Libraries/wch_Libraries/Startup/startup_ch32v10x.S:80
        j   I2C1_ER_IRQHandler         /* I2C1 Error */
  f8:	f09ff06f          	j	0 <_sinit>
E:/proj/riscv/Seekfree_CH32V103R8T6_Opensource_Library/Libraries/wch_Libraries/Startup/startup_ch32v10x.S:81
        j   I2C2_EV_IRQHandler         /* I2C2 Event */
  fc:	f05ff06f          	j	0 <_sinit>
E:/proj/riscv/Seekfree_CH32V103R8T6_Opensource_Library/Libraries/wch_Libraries/Startup/startup_ch32v10x.S:82
        j   I2C2_ER_IRQHandler         /* I2C2 Error */
 100:	f01ff06f          	j	0 <_sinit>
E:/proj/riscv/Seekfree_CH32V103R8T6_Opensource_Library/Libraries/wch_Libraries/Startup/startup_ch32v10x.S:83
        j   SPI1_IRQHandler            /* SPI1 */
 104:	efdff06f          	j	0 <_sinit>
E:/proj/riscv/Seekfree_CH32V103R8T6_Opensource_Library/Libraries/wch_Libraries/Startup/startup_ch32v10x.S:84
        j   SPI2_IRQHandler            /* SPI2 */
 108:	ef9ff06f          	j	0 <_sinit>
E:/proj/riscv/Seekfree_CH32V103R8T6_Opensource_Library/Libraries/wch_Libraries/Startup/startup_ch32v10x.S:85
        j   USART1_IRQHandler          /* USART1 */
 10c:	5f40206f          	j	2700 <USART1_IRQHandler>
E:/proj/riscv/Seekfree_CH32V103R8T6_Opensource_Library/Libraries/wch_Libraries/Startup/startup_ch32v10x.S:86
        j   USART2_IRQHandler          /* USART2 */
 110:	6420206f          	j	2752 <USART2_IRQHandler>
E:/proj/riscv/Seekfree_CH32V103R8T6_Opensource_Library/Libraries/wch_Libraries/Startup/startup_ch32v10x.S:87
        j   USART3_IRQHandler          /* USART3 */
 114:	6900206f          	j	27a4 <USART3_IRQHandler>
E:/proj/riscv/Seekfree_CH32V103R8T6_Opensource_Library/Libraries/wch_Libraries/Startup/startup_ch32v10x.S:88
        j   EXTI15_10_IRQHandler       /* EXTI Line 15..10 */
 118:	3660206f          	j	247e <EXTI15_10_IRQHandler>
E:/proj/riscv/Seekfree_CH32V103R8T6_Opensource_Library/Libraries/wch_Libraries/Startup/startup_ch32v10x.S:89
        j   RTCAlarm_IRQHandler        /* RTC Alarm through EXTI Line */
 11c:	ee5ff06f          	j	0 <_sinit>
E:/proj/riscv/Seekfree_CH32V103R8T6_Opensource_Library/Libraries/wch_Libraries/Startup/startup_ch32v10x.S:90
        j   USBWakeUp_IRQHandler       /* USB Wakeup from suspend */
 120:	ee1ff06f          	j	0 <_sinit>
E:/proj/riscv/Seekfree_CH32V103R8T6_Opensource_Library/Libraries/wch_Libraries/Startup/startup_ch32v10x.S:91
        j   USBHD_IRQHandler           /* USBHD */
 124:	1e40206f          	j	2308 <USBHD_IRQHandler>
	...

Disassembly of section .text:

00000140 <interrupt_disable>:
interrupt_disable():
E:/proj/riscv/Seekfree_CH32V103R8T6_Opensource_Library/Libraries/seekfree_libraries/zf_irq.S:38
#a0 = 0x80
#mstatus中的第11 12位MPP
#00 用户模式  (U)
#01 监管者模式(S)
#11 机器模式  (M) 只有该模式允许使用SCR指令
    csrrci a0, mstatus, 0x8
     140:	30047573          	csrrci	a0,mstatus,8
E:/proj/riscv/Seekfree_CH32V103R8T6_Opensource_Library/Libraries/seekfree_libraries/zf_irq.S:39
    ret
     144:	8082                	ret

00000146 <interrupt_enable>:
interrupt_enable():
E:/proj/riscv/Seekfree_CH32V103R8T6_Opensource_Library/Libraries/seekfree_libraries/zf_irq.S:52
#							   mstatus寄存器中的MIE位置1，切换为用户模式
#-------------------------------------------------------------------------------------------------------------------
.globl interrupt_enable
interrupt_enable:
#a0为函数的第一个参数。
    csrw mstatus, a0
     146:	30051073          	csrw	mstatus,a0
E:/proj/riscv/Seekfree_CH32V103R8T6_Opensource_Library/Libraries/seekfree_libraries/zf_irq.S:53
    ret
     14a:	8082                	ret

0000014c <handle_reset>:
handle_reset():
E:/proj/riscv/Seekfree_CH32V103R8T6_Opensource_Library/Libraries/wch_Libraries/Startup/startup_ch32v10x.S:147
	.weak	handle_reset
	.align	1
handle_reset:
.option push 
.option	norelax 
	la gp, __global_pointer$
     14c:	20000197          	auipc	gp,0x20000
     150:	6c418193          	addi	gp,gp,1732 # 20000810 <__global_pointer$>
E:/proj/riscv/Seekfree_CH32V103R8T6_Opensource_Library/Libraries/wch_Libraries/Startup/startup_ch32v10x.S:150
.option	pop 
1:
	la sp, _eusrstack 
     154:	20005117          	auipc	sp,0x20005
     158:	eac10113          	addi	sp,sp,-340 # 20005000 <_eusrstack>
E:/proj/riscv/Seekfree_CH32V103R8T6_Opensource_Library/Libraries/wch_Libraries/Startup/startup_ch32v10x.S:153
2:
	/* Load data section from flash to RAM */
	la a0, _data_lma
     15c:	00003517          	auipc	a0,0x3
     160:	aac50513          	addi	a0,a0,-1364 # 2c08 <_data_lma>
E:/proj/riscv/Seekfree_CH32V103R8T6_Opensource_Library/Libraries/wch_Libraries/Startup/startup_ch32v10x.S:154
	la a1, _data_vma
     164:	20000597          	auipc	a1,0x20000
     168:	e9c58593          	addi	a1,a1,-356 # 20000000 <_data_vma>
E:/proj/riscv/Seekfree_CH32V103R8T6_Opensource_Library/Libraries/wch_Libraries/Startup/startup_ch32v10x.S:155
	la a2, _edata
     16c:	81018613          	addi	a2,gp,-2032 # 20000020 <_edata>
E:/proj/riscv/Seekfree_CH32V103R8T6_Opensource_Library/Libraries/wch_Libraries/Startup/startup_ch32v10x.S:156
	bgeu a1, a2, 2f
     170:	00c5fa63          	bgeu	a1,a2,184 <handle_reset+0x38>
E:/proj/riscv/Seekfree_CH32V103R8T6_Opensource_Library/Libraries/wch_Libraries/Startup/startup_ch32v10x.S:158
1:
	lw t0, (a0)
     174:	00052283          	lw	t0,0(a0)
E:/proj/riscv/Seekfree_CH32V103R8T6_Opensource_Library/Libraries/wch_Libraries/Startup/startup_ch32v10x.S:159
	sw t0, (a1)
     178:	0055a023          	sw	t0,0(a1)
E:/proj/riscv/Seekfree_CH32V103R8T6_Opensource_Library/Libraries/wch_Libraries/Startup/startup_ch32v10x.S:160
	addi a0, a0, 4
     17c:	0511                	addi	a0,a0,4
E:/proj/riscv/Seekfree_CH32V103R8T6_Opensource_Library/Libraries/wch_Libraries/Startup/startup_ch32v10x.S:161
	addi a1, a1, 4
     17e:	0591                	addi	a1,a1,4
E:/proj/riscv/Seekfree_CH32V103R8T6_Opensource_Library/Libraries/wch_Libraries/Startup/startup_ch32v10x.S:162
	bltu a1, a2, 1b
     180:	fec5eae3          	bltu	a1,a2,174 <handle_reset+0x28>
E:/proj/riscv/Seekfree_CH32V103R8T6_Opensource_Library/Libraries/wch_Libraries/Startup/startup_ch32v10x.S:165
2:
	/* clear bss section */
	la a0, _sbss
     184:	81018513          	addi	a0,gp,-2032 # 20000020 <_edata>
E:/proj/riscv/Seekfree_CH32V103R8T6_Opensource_Library/Libraries/wch_Libraries/Startup/startup_ch32v10x.S:166
	la a1, _ebss
     188:	86818593          	addi	a1,gp,-1944 # 20000078 <_ebss>
E:/proj/riscv/Seekfree_CH32V103R8T6_Opensource_Library/Libraries/wch_Libraries/Startup/startup_ch32v10x.S:167
	bgeu a0, a1, 2f
     18c:	00b57763          	bgeu	a0,a1,19a <handle_reset+0x4e>
E:/proj/riscv/Seekfree_CH32V103R8T6_Opensource_Library/Libraries/wch_Libraries/Startup/startup_ch32v10x.S:169
1:
	sw zero, (a0)
     190:	00052023          	sw	zero,0(a0)
E:/proj/riscv/Seekfree_CH32V103R8T6_Opensource_Library/Libraries/wch_Libraries/Startup/startup_ch32v10x.S:170
	addi a0, a0, 4
     194:	0511                	addi	a0,a0,4
E:/proj/riscv/Seekfree_CH32V103R8T6_Opensource_Library/Libraries/wch_Libraries/Startup/startup_ch32v10x.S:171
	bltu a0, a1, 1b
     196:	feb56de3          	bltu	a0,a1,190 <handle_reset+0x44>
E:/proj/riscv/Seekfree_CH32V103R8T6_Opensource_Library/Libraries/wch_Libraries/Startup/startup_ch32v10x.S:176
2:
	/* enable all interrupt */
#li t0, 0x88
#MPP位这是为0x03 切换为机器模式
	li t0, 0x1888
     19a:	000022b7          	lui	t0,0x2
     19e:	88828293          	addi	t0,t0,-1912 # 1888 <uart_init+0xf6>
E:/proj/riscv/Seekfree_CH32V103R8T6_Opensource_Library/Libraries/wch_Libraries/Startup/startup_ch32v10x.S:178

  csrs mstatus, t0
     1a2:	3002a073          	csrs	mstatus,t0
E:/proj/riscv/Seekfree_CH32V103R8T6_Opensource_Library/Libraries/wch_Libraries/Startup/startup_ch32v10x.S:179
	la t0, _vector_base
     1a6:	00000297          	auipc	t0,0x0
     1aa:	e9228293          	addi	t0,t0,-366 # 38 <_einit>
E:/proj/riscv/Seekfree_CH32V103R8T6_Opensource_Library/Libraries/wch_Libraries/Startup/startup_ch32v10x.S:180
  ori t0, t0, 1
     1ae:	0012e293          	ori	t0,t0,1
E:/proj/riscv/Seekfree_CH32V103R8T6_Opensource_Library/Libraries/wch_Libraries/Startup/startup_ch32v10x.S:181
	csrw mtvec, t0
     1b2:	30529073          	csrw	mtvec,t0
E:/proj/riscv/Seekfree_CH32V103R8T6_Opensource_Library/Libraries/wch_Libraries/Startup/startup_ch32v10x.S:183

  jal  SystemInit
     1b6:	212010ef          	jal	ra,13c8 <SystemInit>
E:/proj/riscv/Seekfree_CH32V103R8T6_Opensource_Library/Libraries/wch_Libraries/Startup/startup_ch32v10x.S:184
	la t0, main
     1ba:	00002297          	auipc	t0,0x2
     1be:	67828293          	addi	t0,t0,1656 # 2832 <main>
E:/proj/riscv/Seekfree_CH32V103R8T6_Opensource_Library/Libraries/wch_Libraries/Startup/startup_ch32v10x.S:185
	csrw mepc, t0
     1c2:	34129073          	csrw	mepc,t0
E:/proj/riscv/Seekfree_CH32V103R8T6_Opensource_Library/Libraries/wch_Libraries/Startup/startup_ch32v10x.S:186
	mret
     1c6:	30200073          	mret

000001ca <DMA_GetFlagStatus>:
DMA_GetFlagStatus():
E:/proj/riscv/Seekfree_CH32V103R8T6_Opensource_Library/Libraries/wch_Libraries/Peripheral/ch32v10x_dma.c:290
*                      DMA2_FLAG_HT5: DMA2 Channel5 half transfer flag.
*                      DMA2_FLAG_TE5: DMA2 Channel5 transfer error flag.
* Return         : The new state of DMAy_FLAG (SET or RESET). 
*********************************************************************************/
FlagStatus DMA_GetFlagStatus(uint32_t DMAy_FLAG)
{
     1ca:	7179                	addi	sp,sp,-48
     1cc:	d622                	sw	s0,44(sp)
     1ce:	1800                	addi	s0,sp,48
     1d0:	fca42e23          	sw	a0,-36(s0)
E:/proj/riscv/Seekfree_CH32V103R8T6_Opensource_Library/Libraries/wch_Libraries/Peripheral/ch32v10x_dma.c:291
  FlagStatus bitstatus = RESET;
     1d4:	fe042623          	sw	zero,-20(s0)
E:/proj/riscv/Seekfree_CH32V103R8T6_Opensource_Library/Libraries/wch_Libraries/Peripheral/ch32v10x_dma.c:292
  uint32_t tmpreg = 0;
     1d8:	fe042423          	sw	zero,-24(s0)
E:/proj/riscv/Seekfree_CH32V103R8T6_Opensource_Library/Libraries/wch_Libraries/Peripheral/ch32v10x_dma.c:294
  
  if ((DMAy_FLAG & FLAG_Mask) != (uint32_t)RESET)
     1dc:	fdc42703          	lw	a4,-36(s0)
     1e0:	100007b7          	lui	a5,0x10000
     1e4:	8ff9                	and	a5,a5,a4
     1e6:	cb89                	beqz	a5,1f8 <DMA_GetFlagStatus+0x2e>
E:/proj/riscv/Seekfree_CH32V103R8T6_Opensource_Library/Libraries/wch_Libraries/Peripheral/ch32v10x_dma.c:296
  {
    tmpreg = DMA2->INTFR ;
     1e8:	400207b7          	lui	a5,0x40020
     1ec:	40078793          	addi	a5,a5,1024 # 40020400 <_eusrstack+0x2001b400>
     1f0:	439c                	lw	a5,0(a5)
     1f2:	fef42423          	sw	a5,-24(s0)
     1f6:	a031                	j	202 <DMA_GetFlagStatus+0x38>
E:/proj/riscv/Seekfree_CH32V103R8T6_Opensource_Library/Libraries/wch_Libraries/Peripheral/ch32v10x_dma.c:300
  }
  else
  {
    tmpreg = DMA1->INTFR ;
     1f8:	400207b7          	lui	a5,0x40020
     1fc:	439c                	lw	a5,0(a5)
     1fe:	fef42423          	sw	a5,-24(s0)
E:/proj/riscv/Seekfree_CH32V103R8T6_Opensource_Library/Libraries/wch_Libraries/Peripheral/ch32v10x_dma.c:303
  }

  if ((tmpreg & DMAy_FLAG) != (uint32_t)RESET)
     202:	fe842703          	lw	a4,-24(s0)
     206:	fdc42783          	lw	a5,-36(s0)
     20a:	8ff9                	and	a5,a5,a4
     20c:	c789                	beqz	a5,216 <DMA_GetFlagStatus+0x4c>
E:/proj/riscv/Seekfree_CH32V103R8T6_Opensource_Library/Libraries/wch_Libraries/Peripheral/ch32v10x_dma.c:305
  {
    bitstatus = SET;
     20e:	4785                	li	a5,1
     210:	fef42623          	sw	a5,-20(s0)
     214:	a019                	j	21a <DMA_GetFlagStatus+0x50>
E:/proj/riscv/Seekfree_CH32V103R8T6_Opensource_Library/Libraries/wch_Libraries/Peripheral/ch32v10x_dma.c:309
  }
  else
  {
    bitstatus = RESET;
     216:	fe042623          	sw	zero,-20(s0)
E:/proj/riscv/Seekfree_CH32V103R8T6_Opensource_Library/Libraries/wch_Libraries/Peripheral/ch32v10x_dma.c:312
  }
  
  return  bitstatus;
     21a:	fec42783          	lw	a5,-20(s0)
E:/proj/riscv/Seekfree_CH32V103R8T6_Opensource_Library/Libraries/wch_Libraries/Peripheral/ch32v10x_dma.c:313
}
     21e:	853e                	mv	a0,a5
     220:	5432                	lw	s0,44(sp)
     222:	6145                	addi	sp,sp,48
     224:	8082                	ret

00000226 <DMA_ClearFlag>:
DMA_ClearFlag():
E:/proj/riscv/Seekfree_CH32V103R8T6_Opensource_Library/Libraries/wch_Libraries/Peripheral/ch32v10x_dma.c:371
*                      DMA2_FLAG_HT5: DMA2 Channel5 half transfer flag.
*                      DMA2_FLAG_TE5: DMA2 Channel5 transfer error flag.
* Return         : None 
*********************************************************************************/
void DMA_ClearFlag(uint32_t DMAy_FLAG)
{
     226:	1101                	addi	sp,sp,-32
     228:	ce22                	sw	s0,28(sp)
     22a:	1000                	addi	s0,sp,32
     22c:	fea42623          	sw	a0,-20(s0)
E:/proj/riscv/Seekfree_CH32V103R8T6_Opensource_Library/Libraries/wch_Libraries/Peripheral/ch32v10x_dma.c:372
  if ((DMAy_FLAG & FLAG_Mask) != (uint32_t)RESET)
     230:	fec42703          	lw	a4,-20(s0)
     234:	100007b7          	lui	a5,0x10000
     238:	8ff9                	and	a5,a5,a4
     23a:	cb89                	beqz	a5,24c <DMA_ClearFlag+0x26>
E:/proj/riscv/Seekfree_CH32V103R8T6_Opensource_Library/Libraries/wch_Libraries/Peripheral/ch32v10x_dma.c:374
  {
    DMA2->INTFCR = DMAy_FLAG;
     23c:	400207b7          	lui	a5,0x40020
     240:	40078793          	addi	a5,a5,1024 # 40020400 <_eusrstack+0x2001b400>
     244:	fec42703          	lw	a4,-20(s0)
     248:	c3d8                	sw	a4,4(a5)
E:/proj/riscv/Seekfree_CH32V103R8T6_Opensource_Library/Libraries/wch_Libraries/Peripheral/ch32v10x_dma.c:380
  }
  else
  {
    DMA1->INTFCR = DMAy_FLAG;
  }
}
     24a:	a031                	j	256 <DMA_ClearFlag+0x30>
E:/proj/riscv/Seekfree_CH32V103R8T6_Opensource_Library/Libraries/wch_Libraries/Peripheral/ch32v10x_dma.c:378
    DMA1->INTFCR = DMAy_FLAG;
     24c:	400207b7          	lui	a5,0x40020
     250:	fec42703          	lw	a4,-20(s0)
     254:	c3d8                	sw	a4,4(a5)
E:/proj/riscv/Seekfree_CH32V103R8T6_Opensource_Library/Libraries/wch_Libraries/Peripheral/ch32v10x_dma.c:380
}
     256:	0001                	nop
     258:	4472                	lw	s0,28(sp)
     25a:	6105                	addi	sp,sp,32
     25c:	8082                	ret

0000025e <EXTI_GetITStatus>:
EXTI_GetITStatus():
E:/proj/riscv/Seekfree_CH32V103R8T6_Opensource_Library/Libraries/wch_Libraries/Peripheral/ch32v10x_exti.c:131
* Description    : Checks whether the specified EXTI line is asserted or not.
* Input          : EXTI_Line: specifies the EXTI lines to be enabled or disabled.
* Return         : The new state of EXTI_Line (SET or RESET).
*********************************************************************************/	
ITStatus EXTI_GetITStatus(uint32_t EXTI_Line)
{
     25e:	7179                	addi	sp,sp,-48
     260:	d622                	sw	s0,44(sp)
     262:	1800                	addi	s0,sp,48
     264:	fca42e23          	sw	a0,-36(s0)
E:/proj/riscv/Seekfree_CH32V103R8T6_Opensource_Library/Libraries/wch_Libraries/Peripheral/ch32v10x_exti.c:132
  ITStatus bitstatus = RESET;
     268:	fe042623          	sw	zero,-20(s0)
E:/proj/riscv/Seekfree_CH32V103R8T6_Opensource_Library/Libraries/wch_Libraries/Peripheral/ch32v10x_exti.c:133
  uint32_t enablestatus = 0;
     26c:	fe042423          	sw	zero,-24(s0)
E:/proj/riscv/Seekfree_CH32V103R8T6_Opensource_Library/Libraries/wch_Libraries/Peripheral/ch32v10x_exti.c:135
  
  enablestatus =  EXTI->INTENR & EXTI_Line;
     270:	400107b7          	lui	a5,0x40010
     274:	40078793          	addi	a5,a5,1024 # 40010400 <_eusrstack+0x2000b400>
     278:	439c                	lw	a5,0(a5)
     27a:	fdc42703          	lw	a4,-36(s0)
     27e:	8ff9                	and	a5,a5,a4
     280:	fef42423          	sw	a5,-24(s0)
E:/proj/riscv/Seekfree_CH32V103R8T6_Opensource_Library/Libraries/wch_Libraries/Peripheral/ch32v10x_exti.c:136
  if (((EXTI->INTFR & EXTI_Line) != (uint32_t)RESET) && (enablestatus != (uint32_t)RESET))
     284:	400107b7          	lui	a5,0x40010
     288:	40078793          	addi	a5,a5,1024 # 40010400 <_eusrstack+0x2000b400>
     28c:	4bd8                	lw	a4,20(a5)
     28e:	fdc42783          	lw	a5,-36(s0)
     292:	8ff9                	and	a5,a5,a4
     294:	cb81                	beqz	a5,2a4 <EXTI_GetITStatus+0x46>
E:/proj/riscv/Seekfree_CH32V103R8T6_Opensource_Library/Libraries/wch_Libraries/Peripheral/ch32v10x_exti.c:136 (discriminator 1)
     296:	fe842783          	lw	a5,-24(s0)
     29a:	c789                	beqz	a5,2a4 <EXTI_GetITStatus+0x46>
E:/proj/riscv/Seekfree_CH32V103R8T6_Opensource_Library/Libraries/wch_Libraries/Peripheral/ch32v10x_exti.c:138
  {
    bitstatus = SET;
     29c:	4785                	li	a5,1
     29e:	fef42623          	sw	a5,-20(s0)
     2a2:	a019                	j	2a8 <EXTI_GetITStatus+0x4a>
E:/proj/riscv/Seekfree_CH32V103R8T6_Opensource_Library/Libraries/wch_Libraries/Peripheral/ch32v10x_exti.c:142
  }
  else
  {
    bitstatus = RESET;
     2a4:	fe042623          	sw	zero,-20(s0)
E:/proj/riscv/Seekfree_CH32V103R8T6_Opensource_Library/Libraries/wch_Libraries/Peripheral/ch32v10x_exti.c:144
  }
  return bitstatus;
     2a8:	fec42783          	lw	a5,-20(s0)
E:/proj/riscv/Seekfree_CH32V103R8T6_Opensource_Library/Libraries/wch_Libraries/Peripheral/ch32v10x_exti.c:145
}
     2ac:	853e                	mv	a0,a5
     2ae:	5432                	lw	s0,44(sp)
     2b0:	6145                	addi	sp,sp,48
     2b2:	8082                	ret

000002b4 <EXTI_ClearITPendingBit>:
EXTI_ClearITPendingBit():
E:/proj/riscv/Seekfree_CH32V103R8T6_Opensource_Library/Libraries/wch_Libraries/Peripheral/ch32v10x_exti.c:154
* Description    : Clears the EXTI's line pending bits.
* Input          : EXTI_Line: specifies the EXTI lines to be enabled or disabled.
* Return         : None
*********************************************************************************/
void EXTI_ClearITPendingBit(uint32_t EXTI_Line)
{  
     2b4:	1101                	addi	sp,sp,-32
     2b6:	ce22                	sw	s0,28(sp)
     2b8:	1000                	addi	s0,sp,32
     2ba:	fea42623          	sw	a0,-20(s0)
E:/proj/riscv/Seekfree_CH32V103R8T6_Opensource_Library/Libraries/wch_Libraries/Peripheral/ch32v10x_exti.c:155
  EXTI->INTFR = EXTI_Line;
     2be:	400107b7          	lui	a5,0x40010
     2c2:	40078793          	addi	a5,a5,1024 # 40010400 <_eusrstack+0x2000b400>
     2c6:	fec42703          	lw	a4,-20(s0)
     2ca:	cbd8                	sw	a4,20(a5)
E:/proj/riscv/Seekfree_CH32V103R8T6_Opensource_Library/Libraries/wch_Libraries/Peripheral/ch32v10x_exti.c:156
}
     2cc:	0001                	nop
     2ce:	4472                	lw	s0,28(sp)
     2d0:	6105                	addi	sp,sp,32
     2d2:	8082                	ret

000002d4 <GPIO_DeInit>:
GPIO_DeInit():
E:/proj/riscv/Seekfree_CH32V103R8T6_Opensource_Library/Libraries/wch_Libraries/Peripheral/ch32v10x_gpio.c:26
* Description    : Deinitializes the GPIOx peripheral registers to their default reset values.
* Input          : GPIOx: where x can be (A..G) to select the GPIO peripheral.
* Return         : None
*******************************************************************************/
void GPIO_DeInit(GPIO_TypeDef* GPIOx)
{
     2d4:	1101                	addi	sp,sp,-32
     2d6:	ce06                	sw	ra,28(sp)
     2d8:	cc22                	sw	s0,24(sp)
     2da:	1000                	addi	s0,sp,32
     2dc:	fea42623          	sw	a0,-20(s0)
E:/proj/riscv/Seekfree_CH32V103R8T6_Opensource_Library/Libraries/wch_Libraries/Peripheral/ch32v10x_gpio.c:27
  if (GPIOx == GPIOA)
     2e0:	fec42703          	lw	a4,-20(s0)
     2e4:	400117b7          	lui	a5,0x40011
     2e8:	80078793          	addi	a5,a5,-2048 # 40010800 <_eusrstack+0x2000b800>
     2ec:	00f71963          	bne	a4,a5,2fe <GPIO_DeInit+0x2a>
E:/proj/riscv/Seekfree_CH32V103R8T6_Opensource_Library/Libraries/wch_Libraries/Peripheral/ch32v10x_gpio.c:29
  {
    RCC_APB2PeriphResetCmd(RCC_APB2Periph_GPIOA, ENABLE);
     2f0:	4585                	li	a1,1
     2f2:	4511                	li	a0,4
     2f4:	2f09                	jal	a06 <RCC_APB2PeriphResetCmd>
E:/proj/riscv/Seekfree_CH32V103R8T6_Opensource_Library/Libraries/wch_Libraries/Peripheral/ch32v10x_gpio.c:30
    RCC_APB2PeriphResetCmd(RCC_APB2Periph_GPIOA, DISABLE);
     2f6:	4581                	li	a1,0
     2f8:	4511                	li	a0,4
     2fa:	2731                	jal	a06 <RCC_APB2PeriphResetCmd>
E:/proj/riscv/Seekfree_CH32V103R8T6_Opensource_Library/Libraries/wch_Libraries/Peripheral/ch32v10x_gpio.c:65
    {
      RCC_APB2PeriphResetCmd(RCC_APB2Periph_GPIOG, ENABLE);
      RCC_APB2PeriphResetCmd(RCC_APB2Periph_GPIOG, DISABLE);
    }
  }
}
     2fc:	a875                	j	3b8 <GPIO_DeInit+0xe4>
E:/proj/riscv/Seekfree_CH32V103R8T6_Opensource_Library/Libraries/wch_Libraries/Peripheral/ch32v10x_gpio.c:32
  else if (GPIOx == GPIOB)
     2fe:	fec42703          	lw	a4,-20(s0)
     302:	400117b7          	lui	a5,0x40011
     306:	c0078793          	addi	a5,a5,-1024 # 40010c00 <_eusrstack+0x2000bc00>
     30a:	00f71963          	bne	a4,a5,31c <GPIO_DeInit+0x48>
E:/proj/riscv/Seekfree_CH32V103R8T6_Opensource_Library/Libraries/wch_Libraries/Peripheral/ch32v10x_gpio.c:34
    RCC_APB2PeriphResetCmd(RCC_APB2Periph_GPIOB, ENABLE);
     30e:	4585                	li	a1,1
     310:	4521                	li	a0,8
     312:	2dd5                	jal	a06 <RCC_APB2PeriphResetCmd>
E:/proj/riscv/Seekfree_CH32V103R8T6_Opensource_Library/Libraries/wch_Libraries/Peripheral/ch32v10x_gpio.c:35
    RCC_APB2PeriphResetCmd(RCC_APB2Periph_GPIOB, DISABLE);
     314:	4581                	li	a1,0
     316:	4521                	li	a0,8
     318:	25fd                	jal	a06 <RCC_APB2PeriphResetCmd>
E:/proj/riscv/Seekfree_CH32V103R8T6_Opensource_Library/Libraries/wch_Libraries/Peripheral/ch32v10x_gpio.c:65
}
     31a:	a879                	j	3b8 <GPIO_DeInit+0xe4>
E:/proj/riscv/Seekfree_CH32V103R8T6_Opensource_Library/Libraries/wch_Libraries/Peripheral/ch32v10x_gpio.c:37
  else if (GPIOx == GPIOC)
     31c:	fec42703          	lw	a4,-20(s0)
     320:	400117b7          	lui	a5,0x40011
     324:	00f71963          	bne	a4,a5,336 <GPIO_DeInit+0x62>
E:/proj/riscv/Seekfree_CH32V103R8T6_Opensource_Library/Libraries/wch_Libraries/Peripheral/ch32v10x_gpio.c:39
    RCC_APB2PeriphResetCmd(RCC_APB2Periph_GPIOC, ENABLE);
     328:	4585                	li	a1,1
     32a:	4541                	li	a0,16
     32c:	2de9                	jal	a06 <RCC_APB2PeriphResetCmd>
E:/proj/riscv/Seekfree_CH32V103R8T6_Opensource_Library/Libraries/wch_Libraries/Peripheral/ch32v10x_gpio.c:40
    RCC_APB2PeriphResetCmd(RCC_APB2Periph_GPIOC, DISABLE);
     32e:	4581                	li	a1,0
     330:	4541                	li	a0,16
     332:	2dd1                	jal	a06 <RCC_APB2PeriphResetCmd>
E:/proj/riscv/Seekfree_CH32V103R8T6_Opensource_Library/Libraries/wch_Libraries/Peripheral/ch32v10x_gpio.c:65
}
     334:	a051                	j	3b8 <GPIO_DeInit+0xe4>
E:/proj/riscv/Seekfree_CH32V103R8T6_Opensource_Library/Libraries/wch_Libraries/Peripheral/ch32v10x_gpio.c:42
  else if (GPIOx == GPIOD)
     336:	fec42703          	lw	a4,-20(s0)
     33a:	400117b7          	lui	a5,0x40011
     33e:	40078793          	addi	a5,a5,1024 # 40011400 <_eusrstack+0x2000c400>
     342:	00f71b63          	bne	a4,a5,358 <GPIO_DeInit+0x84>
E:/proj/riscv/Seekfree_CH32V103R8T6_Opensource_Library/Libraries/wch_Libraries/Peripheral/ch32v10x_gpio.c:44
    RCC_APB2PeriphResetCmd(RCC_APB2Periph_GPIOD, ENABLE);
     346:	4585                	li	a1,1
     348:	02000513          	li	a0,32
     34c:	2d6d                	jal	a06 <RCC_APB2PeriphResetCmd>
E:/proj/riscv/Seekfree_CH32V103R8T6_Opensource_Library/Libraries/wch_Libraries/Peripheral/ch32v10x_gpio.c:45
    RCC_APB2PeriphResetCmd(RCC_APB2Periph_GPIOD, DISABLE);
     34e:	4581                	li	a1,0
     350:	02000513          	li	a0,32
     354:	2d4d                	jal	a06 <RCC_APB2PeriphResetCmd>
E:/proj/riscv/Seekfree_CH32V103R8T6_Opensource_Library/Libraries/wch_Libraries/Peripheral/ch32v10x_gpio.c:65
}
     356:	a08d                	j	3b8 <GPIO_DeInit+0xe4>
E:/proj/riscv/Seekfree_CH32V103R8T6_Opensource_Library/Libraries/wch_Libraries/Peripheral/ch32v10x_gpio.c:47
  else if (GPIOx == GPIOE)
     358:	fec42703          	lw	a4,-20(s0)
     35c:	400127b7          	lui	a5,0x40012
     360:	80078793          	addi	a5,a5,-2048 # 40011800 <_eusrstack+0x2000c800>
     364:	00f71b63          	bne	a4,a5,37a <GPIO_DeInit+0xa6>
E:/proj/riscv/Seekfree_CH32V103R8T6_Opensource_Library/Libraries/wch_Libraries/Peripheral/ch32v10x_gpio.c:49
    RCC_APB2PeriphResetCmd(RCC_APB2Periph_GPIOE, ENABLE);
     368:	4585                	li	a1,1
     36a:	04000513          	li	a0,64
     36e:	2d61                	jal	a06 <RCC_APB2PeriphResetCmd>
E:/proj/riscv/Seekfree_CH32V103R8T6_Opensource_Library/Libraries/wch_Libraries/Peripheral/ch32v10x_gpio.c:50
    RCC_APB2PeriphResetCmd(RCC_APB2Periph_GPIOE, DISABLE);
     370:	4581                	li	a1,0
     372:	04000513          	li	a0,64
     376:	2d41                	jal	a06 <RCC_APB2PeriphResetCmd>
E:/proj/riscv/Seekfree_CH32V103R8T6_Opensource_Library/Libraries/wch_Libraries/Peripheral/ch32v10x_gpio.c:65
}
     378:	a081                	j	3b8 <GPIO_DeInit+0xe4>
E:/proj/riscv/Seekfree_CH32V103R8T6_Opensource_Library/Libraries/wch_Libraries/Peripheral/ch32v10x_gpio.c:52
  else if (GPIOx == GPIOF)
     37a:	fec42703          	lw	a4,-20(s0)
     37e:	400127b7          	lui	a5,0x40012
     382:	c0078793          	addi	a5,a5,-1024 # 40011c00 <_eusrstack+0x2000cc00>
     386:	00f71b63          	bne	a4,a5,39c <GPIO_DeInit+0xc8>
E:/proj/riscv/Seekfree_CH32V103R8T6_Opensource_Library/Libraries/wch_Libraries/Peripheral/ch32v10x_gpio.c:54
    RCC_APB2PeriphResetCmd(RCC_APB2Periph_GPIOF, ENABLE);
     38a:	4585                	li	a1,1
     38c:	08000513          	li	a0,128
     390:	2d9d                	jal	a06 <RCC_APB2PeriphResetCmd>
E:/proj/riscv/Seekfree_CH32V103R8T6_Opensource_Library/Libraries/wch_Libraries/Peripheral/ch32v10x_gpio.c:55
    RCC_APB2PeriphResetCmd(RCC_APB2Periph_GPIOF, DISABLE);
     392:	4581                	li	a1,0
     394:	08000513          	li	a0,128
     398:	25bd                	jal	a06 <RCC_APB2PeriphResetCmd>
E:/proj/riscv/Seekfree_CH32V103R8T6_Opensource_Library/Libraries/wch_Libraries/Peripheral/ch32v10x_gpio.c:65
}
     39a:	a839                	j	3b8 <GPIO_DeInit+0xe4>
E:/proj/riscv/Seekfree_CH32V103R8T6_Opensource_Library/Libraries/wch_Libraries/Peripheral/ch32v10x_gpio.c:59
    if (GPIOx == GPIOG)
     39c:	fec42703          	lw	a4,-20(s0)
     3a0:	400127b7          	lui	a5,0x40012
     3a4:	00f71a63          	bne	a4,a5,3b8 <GPIO_DeInit+0xe4>
E:/proj/riscv/Seekfree_CH32V103R8T6_Opensource_Library/Libraries/wch_Libraries/Peripheral/ch32v10x_gpio.c:61
      RCC_APB2PeriphResetCmd(RCC_APB2Periph_GPIOG, ENABLE);
     3a8:	4585                	li	a1,1
     3aa:	10000513          	li	a0,256
     3ae:	2da1                	jal	a06 <RCC_APB2PeriphResetCmd>
E:/proj/riscv/Seekfree_CH32V103R8T6_Opensource_Library/Libraries/wch_Libraries/Peripheral/ch32v10x_gpio.c:62
      RCC_APB2PeriphResetCmd(RCC_APB2Periph_GPIOG, DISABLE);
     3b0:	4581                	li	a1,0
     3b2:	10000513          	li	a0,256
     3b6:	2d81                	jal	a06 <RCC_APB2PeriphResetCmd>
E:/proj/riscv/Seekfree_CH32V103R8T6_Opensource_Library/Libraries/wch_Libraries/Peripheral/ch32v10x_gpio.c:65
}
     3b8:	0001                	nop
     3ba:	40f2                	lw	ra,28(sp)
     3bc:	4462                	lw	s0,24(sp)
     3be:	6105                	addi	sp,sp,32
     3c0:	8082                	ret

000003c2 <GPIO_Init>:
GPIO_Init():
E:/proj/riscv/Seekfree_CH32V103R8T6_Opensource_Library/Libraries/wch_Libraries/Peripheral/ch32v10x_gpio.c:88
* Input          : GPIO_InitStruct: pointer to a GPIO_InitTypeDef structure that
*      contains the configuration information for the specified GPIO peripheral.
* Return         : None
*******************************************************************************/
void GPIO_Init(GPIO_TypeDef* GPIOx, GPIO_InitTypeDef* GPIO_InitStruct)
{
     3c2:	7139                	addi	sp,sp,-64
     3c4:	de22                	sw	s0,60(sp)
     3c6:	0080                	addi	s0,sp,64
     3c8:	fca42623          	sw	a0,-52(s0)
     3cc:	fcb42423          	sw	a1,-56(s0)
E:/proj/riscv/Seekfree_CH32V103R8T6_Opensource_Library/Libraries/wch_Libraries/Peripheral/ch32v10x_gpio.c:89
  uint32_t currentmode = 0x00, currentpin = 0x00, pinpos = 0x00, pos = 0x00;
     3d0:	fe042623          	sw	zero,-20(s0)
     3d4:	fe042023          	sw	zero,-32(s0)
     3d8:	fe042423          	sw	zero,-24(s0)
     3dc:	fc042e23          	sw	zero,-36(s0)
E:/proj/riscv/Seekfree_CH32V103R8T6_Opensource_Library/Libraries/wch_Libraries/Peripheral/ch32v10x_gpio.c:90
  uint32_t tmpreg = 0x00, pinmask = 0x00;
     3e0:	fe042223          	sw	zero,-28(s0)
     3e4:	fc042c23          	sw	zero,-40(s0)
E:/proj/riscv/Seekfree_CH32V103R8T6_Opensource_Library/Libraries/wch_Libraries/Peripheral/ch32v10x_gpio.c:92

  currentmode = ((uint32_t)GPIO_InitStruct->GPIO_Mode) & ((uint32_t)0x0F);
     3e8:	fc842783          	lw	a5,-56(s0)
     3ec:	479c                	lw	a5,8(a5)
     3ee:	8bbd                	andi	a5,a5,15
     3f0:	fef42623          	sw	a5,-20(s0)
E:/proj/riscv/Seekfree_CH32V103R8T6_Opensource_Library/Libraries/wch_Libraries/Peripheral/ch32v10x_gpio.c:94
	
  if ((((uint32_t)GPIO_InitStruct->GPIO_Mode) & ((uint32_t)0x10)) != 0x00)
     3f4:	fc842783          	lw	a5,-56(s0)
     3f8:	479c                	lw	a5,8(a5)
     3fa:	8bc1                	andi	a5,a5,16
     3fc:	cb89                	beqz	a5,40e <GPIO_Init+0x4c>
E:/proj/riscv/Seekfree_CH32V103R8T6_Opensource_Library/Libraries/wch_Libraries/Peripheral/ch32v10x_gpio.c:96
  { 
    currentmode |= (uint32_t)GPIO_InitStruct->GPIO_Speed;
     3fe:	fc842783          	lw	a5,-56(s0)
     402:	43dc                	lw	a5,4(a5)
     404:	fec42703          	lw	a4,-20(s0)
     408:	8fd9                	or	a5,a5,a4
     40a:	fef42623          	sw	a5,-20(s0)
E:/proj/riscv/Seekfree_CH32V103R8T6_Opensource_Library/Libraries/wch_Libraries/Peripheral/ch32v10x_gpio.c:99
  }

  if (((uint32_t)GPIO_InitStruct->GPIO_Pin & ((uint32_t)0x00FF)) != 0x00)
     40e:	fc842783          	lw	a5,-56(s0)
     412:	0007d783          	lhu	a5,0(a5) # 40012000 <_eusrstack+0x2000d000>
     416:	0ff7f793          	andi	a5,a5,255
     41a:	cff1                	beqz	a5,4f6 <GPIO_Init+0x134>
E:/proj/riscv/Seekfree_CH32V103R8T6_Opensource_Library/Libraries/wch_Libraries/Peripheral/ch32v10x_gpio.c:101
  {
    tmpreg = GPIOx->CFGLR;
     41c:	fcc42783          	lw	a5,-52(s0)
     420:	439c                	lw	a5,0(a5)
     422:	fef42223          	sw	a5,-28(s0)
E:/proj/riscv/Seekfree_CH32V103R8T6_Opensource_Library/Libraries/wch_Libraries/Peripheral/ch32v10x_gpio.c:103
		
    for (pinpos = 0x00; pinpos < 0x08; pinpos++)
     426:	fe042423          	sw	zero,-24(s0)
     42a:	a865                	j	4e2 <GPIO_Init+0x120>
E:/proj/riscv/Seekfree_CH32V103R8T6_Opensource_Library/Libraries/wch_Libraries/Peripheral/ch32v10x_gpio.c:105
    {
      pos = ((uint32_t)0x01) << pinpos;
     42c:	fe842783          	lw	a5,-24(s0)
     430:	4705                	li	a4,1
     432:	00f717b3          	sll	a5,a4,a5
     436:	fcf42e23          	sw	a5,-36(s0)
E:/proj/riscv/Seekfree_CH32V103R8T6_Opensource_Library/Libraries/wch_Libraries/Peripheral/ch32v10x_gpio.c:106
      currentpin = (GPIO_InitStruct->GPIO_Pin) & pos;
     43a:	fc842783          	lw	a5,-56(s0)
     43e:	0007d783          	lhu	a5,0(a5)
     442:	873e                	mv	a4,a5
     444:	fdc42783          	lw	a5,-36(s0)
     448:	8ff9                	and	a5,a5,a4
     44a:	fef42023          	sw	a5,-32(s0)
E:/proj/riscv/Seekfree_CH32V103R8T6_Opensource_Library/Libraries/wch_Libraries/Peripheral/ch32v10x_gpio.c:108
			
      if (currentpin == pos)
     44e:	fe042703          	lw	a4,-32(s0)
     452:	fdc42783          	lw	a5,-36(s0)
     456:	08f71163          	bne	a4,a5,4d8 <GPIO_Init+0x116>
E:/proj/riscv/Seekfree_CH32V103R8T6_Opensource_Library/Libraries/wch_Libraries/Peripheral/ch32v10x_gpio.c:110
      {
        pos = pinpos << 2;
     45a:	fe842783          	lw	a5,-24(s0)
     45e:	078a                	slli	a5,a5,0x2
     460:	fcf42e23          	sw	a5,-36(s0)
E:/proj/riscv/Seekfree_CH32V103R8T6_Opensource_Library/Libraries/wch_Libraries/Peripheral/ch32v10x_gpio.c:111
        pinmask = ((uint32_t)0x0F) << pos;
     464:	fdc42783          	lw	a5,-36(s0)
     468:	473d                	li	a4,15
     46a:	00f717b3          	sll	a5,a4,a5
     46e:	fcf42c23          	sw	a5,-40(s0)
E:/proj/riscv/Seekfree_CH32V103R8T6_Opensource_Library/Libraries/wch_Libraries/Peripheral/ch32v10x_gpio.c:112
        tmpreg &= ~pinmask;
     472:	fd842783          	lw	a5,-40(s0)
     476:	fff7c793          	not	a5,a5
     47a:	fe442703          	lw	a4,-28(s0)
     47e:	8ff9                	and	a5,a5,a4
     480:	fef42223          	sw	a5,-28(s0)
E:/proj/riscv/Seekfree_CH32V103R8T6_Opensource_Library/Libraries/wch_Libraries/Peripheral/ch32v10x_gpio.c:113
        tmpreg |= (currentmode << pos);
     484:	fdc42783          	lw	a5,-36(s0)
     488:	fec42703          	lw	a4,-20(s0)
     48c:	00f717b3          	sll	a5,a4,a5
     490:	fe442703          	lw	a4,-28(s0)
     494:	8fd9                	or	a5,a5,a4
     496:	fef42223          	sw	a5,-28(s0)
E:/proj/riscv/Seekfree_CH32V103R8T6_Opensource_Library/Libraries/wch_Libraries/Peripheral/ch32v10x_gpio.c:115

        if (GPIO_InitStruct->GPIO_Mode == GPIO_Mode_IPD)
     49a:	fc842783          	lw	a5,-56(s0)
     49e:	4798                	lw	a4,8(a5)
     4a0:	02800793          	li	a5,40
     4a4:	00f71b63          	bne	a4,a5,4ba <GPIO_Init+0xf8>
E:/proj/riscv/Seekfree_CH32V103R8T6_Opensource_Library/Libraries/wch_Libraries/Peripheral/ch32v10x_gpio.c:117
        {
          GPIOx->BCR = (((uint32_t)0x01) << pinpos);
     4a8:	fe842783          	lw	a5,-24(s0)
     4ac:	4705                	li	a4,1
     4ae:	00f71733          	sll	a4,a4,a5
     4b2:	fcc42783          	lw	a5,-52(s0)
     4b6:	cbd8                	sw	a4,20(a5)
     4b8:	a005                	j	4d8 <GPIO_Init+0x116>
E:/proj/riscv/Seekfree_CH32V103R8T6_Opensource_Library/Libraries/wch_Libraries/Peripheral/ch32v10x_gpio.c:121
        }
        else
        {
          if (GPIO_InitStruct->GPIO_Mode == GPIO_Mode_IPU)
     4ba:	fc842783          	lw	a5,-56(s0)
     4be:	4798                	lw	a4,8(a5)
     4c0:	04800793          	li	a5,72
     4c4:	00f71a63          	bne	a4,a5,4d8 <GPIO_Init+0x116>
E:/proj/riscv/Seekfree_CH32V103R8T6_Opensource_Library/Libraries/wch_Libraries/Peripheral/ch32v10x_gpio.c:123
          {
            GPIOx->BSHR = (((uint32_t)0x01) << pinpos);
     4c8:	fe842783          	lw	a5,-24(s0)
     4cc:	4705                	li	a4,1
     4ce:	00f71733          	sll	a4,a4,a5
     4d2:	fcc42783          	lw	a5,-52(s0)
     4d6:	cb98                	sw	a4,16(a5)
E:/proj/riscv/Seekfree_CH32V103R8T6_Opensource_Library/Libraries/wch_Libraries/Peripheral/ch32v10x_gpio.c:103 (discriminator 2)
    for (pinpos = 0x00; pinpos < 0x08; pinpos++)
     4d8:	fe842783          	lw	a5,-24(s0)
     4dc:	0785                	addi	a5,a5,1
     4de:	fef42423          	sw	a5,-24(s0)
E:/proj/riscv/Seekfree_CH32V103R8T6_Opensource_Library/Libraries/wch_Libraries/Peripheral/ch32v10x_gpio.c:103 (discriminator 1)
     4e2:	fe842703          	lw	a4,-24(s0)
     4e6:	479d                	li	a5,7
     4e8:	f4e7f2e3          	bgeu	a5,a4,42c <GPIO_Init+0x6a>
E:/proj/riscv/Seekfree_CH32V103R8T6_Opensource_Library/Libraries/wch_Libraries/Peripheral/ch32v10x_gpio.c:128
          }
        }
      }
    }
    GPIOx->CFGLR = tmpreg;
     4ec:	fcc42783          	lw	a5,-52(s0)
     4f0:	fe442703          	lw	a4,-28(s0)
     4f4:	c398                	sw	a4,0(a5)
E:/proj/riscv/Seekfree_CH32V103R8T6_Opensource_Library/Libraries/wch_Libraries/Peripheral/ch32v10x_gpio.c:131
  }

  if (GPIO_InitStruct->GPIO_Pin > 0x00FF)
     4f6:	fc842783          	lw	a5,-56(s0)
     4fa:	0007d703          	lhu	a4,0(a5)
     4fe:	0ff00793          	li	a5,255
     502:	0ee7f163          	bgeu	a5,a4,5e4 <GPIO_Init+0x222>
E:/proj/riscv/Seekfree_CH32V103R8T6_Opensource_Library/Libraries/wch_Libraries/Peripheral/ch32v10x_gpio.c:133
  {
    tmpreg = GPIOx->CFGHR;
     506:	fcc42783          	lw	a5,-52(s0)
     50a:	43dc                	lw	a5,4(a5)
     50c:	fef42223          	sw	a5,-28(s0)
E:/proj/riscv/Seekfree_CH32V103R8T6_Opensource_Library/Libraries/wch_Libraries/Peripheral/ch32v10x_gpio.c:135
		
    for (pinpos = 0x00; pinpos < 0x08; pinpos++)
     510:	fe042423          	sw	zero,-24(s0)
     514:	a875                	j	5d0 <GPIO_Init+0x20e>
E:/proj/riscv/Seekfree_CH32V103R8T6_Opensource_Library/Libraries/wch_Libraries/Peripheral/ch32v10x_gpio.c:137
    {
      pos = (((uint32_t)0x01) << (pinpos + 0x08));
     516:	fe842783          	lw	a5,-24(s0)
     51a:	07a1                	addi	a5,a5,8
     51c:	4705                	li	a4,1
     51e:	00f717b3          	sll	a5,a4,a5
     522:	fcf42e23          	sw	a5,-36(s0)
E:/proj/riscv/Seekfree_CH32V103R8T6_Opensource_Library/Libraries/wch_Libraries/Peripheral/ch32v10x_gpio.c:138
      currentpin = ((GPIO_InitStruct->GPIO_Pin) & pos);
     526:	fc842783          	lw	a5,-56(s0)
     52a:	0007d783          	lhu	a5,0(a5)
     52e:	873e                	mv	a4,a5
     530:	fdc42783          	lw	a5,-36(s0)
     534:	8ff9                	and	a5,a5,a4
     536:	fef42023          	sw	a5,-32(s0)
E:/proj/riscv/Seekfree_CH32V103R8T6_Opensource_Library/Libraries/wch_Libraries/Peripheral/ch32v10x_gpio.c:140
			
      if (currentpin == pos)
     53a:	fe042703          	lw	a4,-32(s0)
     53e:	fdc42783          	lw	a5,-36(s0)
     542:	08f71263          	bne	a4,a5,5c6 <GPIO_Init+0x204>
E:/proj/riscv/Seekfree_CH32V103R8T6_Opensource_Library/Libraries/wch_Libraries/Peripheral/ch32v10x_gpio.c:142
      {
        pos = pinpos << 2;
     546:	fe842783          	lw	a5,-24(s0)
     54a:	078a                	slli	a5,a5,0x2
     54c:	fcf42e23          	sw	a5,-36(s0)
E:/proj/riscv/Seekfree_CH32V103R8T6_Opensource_Library/Libraries/wch_Libraries/Peripheral/ch32v10x_gpio.c:143
        pinmask = ((uint32_t)0x0F) << pos;
     550:	fdc42783          	lw	a5,-36(s0)
     554:	473d                	li	a4,15
     556:	00f717b3          	sll	a5,a4,a5
     55a:	fcf42c23          	sw	a5,-40(s0)
E:/proj/riscv/Seekfree_CH32V103R8T6_Opensource_Library/Libraries/wch_Libraries/Peripheral/ch32v10x_gpio.c:144
        tmpreg &= ~pinmask;
     55e:	fd842783          	lw	a5,-40(s0)
     562:	fff7c793          	not	a5,a5
     566:	fe442703          	lw	a4,-28(s0)
     56a:	8ff9                	and	a5,a5,a4
     56c:	fef42223          	sw	a5,-28(s0)
E:/proj/riscv/Seekfree_CH32V103R8T6_Opensource_Library/Libraries/wch_Libraries/Peripheral/ch32v10x_gpio.c:145
        tmpreg |= (currentmode << pos);
     570:	fdc42783          	lw	a5,-36(s0)
     574:	fec42703          	lw	a4,-20(s0)
     578:	00f717b3          	sll	a5,a4,a5
     57c:	fe442703          	lw	a4,-28(s0)
     580:	8fd9                	or	a5,a5,a4
     582:	fef42223          	sw	a5,-28(s0)
E:/proj/riscv/Seekfree_CH32V103R8T6_Opensource_Library/Libraries/wch_Libraries/Peripheral/ch32v10x_gpio.c:147

        if (GPIO_InitStruct->GPIO_Mode == GPIO_Mode_IPD)
     586:	fc842783          	lw	a5,-56(s0)
     58a:	4798                	lw	a4,8(a5)
     58c:	02800793          	li	a5,40
     590:	00f71b63          	bne	a4,a5,5a6 <GPIO_Init+0x1e4>
E:/proj/riscv/Seekfree_CH32V103R8T6_Opensource_Library/Libraries/wch_Libraries/Peripheral/ch32v10x_gpio.c:149
        {
          GPIOx->BCR = (((uint32_t)0x01) << (pinpos + 0x08));
     594:	fe842783          	lw	a5,-24(s0)
     598:	07a1                	addi	a5,a5,8
     59a:	4705                	li	a4,1
     59c:	00f71733          	sll	a4,a4,a5
     5a0:	fcc42783          	lw	a5,-52(s0)
     5a4:	cbd8                	sw	a4,20(a5)
E:/proj/riscv/Seekfree_CH32V103R8T6_Opensource_Library/Libraries/wch_Libraries/Peripheral/ch32v10x_gpio.c:152
        }

        if (GPIO_InitStruct->GPIO_Mode == GPIO_Mode_IPU)
     5a6:	fc842783          	lw	a5,-56(s0)
     5aa:	4798                	lw	a4,8(a5)
     5ac:	04800793          	li	a5,72
     5b0:	00f71b63          	bne	a4,a5,5c6 <GPIO_Init+0x204>
E:/proj/riscv/Seekfree_CH32V103R8T6_Opensource_Library/Libraries/wch_Libraries/Peripheral/ch32v10x_gpio.c:154
        {
          GPIOx->BSHR = (((uint32_t)0x01) << (pinpos + 0x08));
     5b4:	fe842783          	lw	a5,-24(s0)
     5b8:	07a1                	addi	a5,a5,8
     5ba:	4705                	li	a4,1
     5bc:	00f71733          	sll	a4,a4,a5
     5c0:	fcc42783          	lw	a5,-52(s0)
     5c4:	cb98                	sw	a4,16(a5)
E:/proj/riscv/Seekfree_CH32V103R8T6_Opensource_Library/Libraries/wch_Libraries/Peripheral/ch32v10x_gpio.c:135 (discriminator 2)
    for (pinpos = 0x00; pinpos < 0x08; pinpos++)
     5c6:	fe842783          	lw	a5,-24(s0)
     5ca:	0785                	addi	a5,a5,1
     5cc:	fef42423          	sw	a5,-24(s0)
E:/proj/riscv/Seekfree_CH32V103R8T6_Opensource_Library/Libraries/wch_Libraries/Peripheral/ch32v10x_gpio.c:135 (discriminator 1)
     5d0:	fe842703          	lw	a4,-24(s0)
     5d4:	479d                	li	a5,7
     5d6:	f4e7f0e3          	bgeu	a5,a4,516 <GPIO_Init+0x154>
E:/proj/riscv/Seekfree_CH32V103R8T6_Opensource_Library/Libraries/wch_Libraries/Peripheral/ch32v10x_gpio.c:158
        }
      }
    }
    GPIOx->CFGHR = tmpreg;
     5da:	fcc42783          	lw	a5,-52(s0)
     5de:	fe442703          	lw	a4,-28(s0)
     5e2:	c3d8                	sw	a4,4(a5)
E:/proj/riscv/Seekfree_CH32V103R8T6_Opensource_Library/Libraries/wch_Libraries/Peripheral/ch32v10x_gpio.c:160
  }
}
     5e4:	0001                	nop
     5e6:	5472                	lw	s0,60(sp)
     5e8:	6121                	addi	sp,sp,64
     5ea:	8082                	ret

000005ec <GPIO_WriteBit>:
GPIO_WriteBit():
E:/proj/riscv/Seekfree_CH32V103R8T6_Opensource_Library/Libraries/wch_Libraries/Peripheral/ch32v10x_gpio.c:282
*                    Bit_SetL: to clear the port pin.
*                    Bit_SetH: to set the port pin.                  
* Return         : None
*******************************************************************************/
void GPIO_WriteBit(GPIO_TypeDef* GPIOx, uint16_t GPIO_Pin, BitAction BitVal)
{
     5ec:	1101                	addi	sp,sp,-32
     5ee:	ce22                	sw	s0,28(sp)
     5f0:	1000                	addi	s0,sp,32
     5f2:	fea42623          	sw	a0,-20(s0)
     5f6:	87ae                	mv	a5,a1
     5f8:	fec42223          	sw	a2,-28(s0)
     5fc:	fef41523          	sh	a5,-22(s0)
E:/proj/riscv/Seekfree_CH32V103R8T6_Opensource_Library/Libraries/wch_Libraries/Peripheral/ch32v10x_gpio.c:283
  if (BitVal != Bit_RESET)
     600:	fe442783          	lw	a5,-28(s0)
     604:	c799                	beqz	a5,612 <GPIO_WriteBit+0x26>
E:/proj/riscv/Seekfree_CH32V103R8T6_Opensource_Library/Libraries/wch_Libraries/Peripheral/ch32v10x_gpio.c:285
  {
    GPIOx->BSHR = GPIO_Pin;
     606:	fea45703          	lhu	a4,-22(s0)
     60a:	fec42783          	lw	a5,-20(s0)
     60e:	cb98                	sw	a4,16(a5)
E:/proj/riscv/Seekfree_CH32V103R8T6_Opensource_Library/Libraries/wch_Libraries/Peripheral/ch32v10x_gpio.c:291
  }
  else
  {
    GPIOx->BCR = GPIO_Pin;
  }
}
     610:	a031                	j	61c <GPIO_WriteBit+0x30>
E:/proj/riscv/Seekfree_CH32V103R8T6_Opensource_Library/Libraries/wch_Libraries/Peripheral/ch32v10x_gpio.c:289
    GPIOx->BCR = GPIO_Pin;
     612:	fea45703          	lhu	a4,-22(s0)
     616:	fec42783          	lw	a5,-20(s0)
     61a:	cbd8                	sw	a4,20(a5)
E:/proj/riscv/Seekfree_CH32V103R8T6_Opensource_Library/Libraries/wch_Libraries/Peripheral/ch32v10x_gpio.c:291
}
     61c:	0001                	nop
     61e:	4472                	lw	s0,28(sp)
     620:	6105                	addi	sp,sp,32
     622:	8082                	ret

00000624 <GPIO_PinRemapConfig>:
GPIO_PinRemapConfig():
E:/proj/riscv/Seekfree_CH32V103R8T6_Opensource_Library/Libraries/wch_Libraries/Peripheral/ch32v10x_gpio.c:402
*      only for High density Value line devices)     
*                  NewState: ENABLE or DISABLE.             
* Return         : None
*******************************************************************************/
void GPIO_PinRemapConfig(uint32_t GPIO_Remap, FunctionalState NewState)
{
     624:	7179                	addi	sp,sp,-48
     626:	d622                	sw	s0,44(sp)
     628:	1800                	addi	s0,sp,48
     62a:	fca42e23          	sw	a0,-36(s0)
     62e:	fcb42c23          	sw	a1,-40(s0)
E:/proj/riscv/Seekfree_CH32V103R8T6_Opensource_Library/Libraries/wch_Libraries/Peripheral/ch32v10x_gpio.c:403
  uint32_t tmp = 0x00, tmp1 = 0x00, tmpreg = 0x00, tmpmask = 0x00;
     632:	fe042423          	sw	zero,-24(s0)
     636:	fe042223          	sw	zero,-28(s0)
     63a:	fe042623          	sw	zero,-20(s0)
     63e:	fe042023          	sw	zero,-32(s0)
E:/proj/riscv/Seekfree_CH32V103R8T6_Opensource_Library/Libraries/wch_Libraries/Peripheral/ch32v10x_gpio.c:405

  if((GPIO_Remap & 0x80000000) == 0x80000000)
     642:	fdc42783          	lw	a5,-36(s0)
     646:	0007d863          	bgez	a5,656 <GPIO_PinRemapConfig+0x32>
E:/proj/riscv/Seekfree_CH32V103R8T6_Opensource_Library/Libraries/wch_Libraries/Peripheral/ch32v10x_gpio.c:407
  {
    tmpreg = AFIO->PCFR2;
     64a:	400107b7          	lui	a5,0x40010
     64e:	4fdc                	lw	a5,28(a5)
     650:	fef42623          	sw	a5,-20(s0)
     654:	a031                	j	660 <GPIO_PinRemapConfig+0x3c>
E:/proj/riscv/Seekfree_CH32V103R8T6_Opensource_Library/Libraries/wch_Libraries/Peripheral/ch32v10x_gpio.c:411
  }
  else
  {
    tmpreg = AFIO->PCFR1;
     656:	400107b7          	lui	a5,0x40010
     65a:	43dc                	lw	a5,4(a5)
     65c:	fef42623          	sw	a5,-20(s0)
E:/proj/riscv/Seekfree_CH32V103R8T6_Opensource_Library/Libraries/wch_Libraries/Peripheral/ch32v10x_gpio.c:414
  }

  tmpmask = (GPIO_Remap & DBGAFR_POSITION_MASK) >> 0x10;
     660:	fdc42783          	lw	a5,-36(s0)
     664:	83c1                	srli	a5,a5,0x10
     666:	8bbd                	andi	a5,a5,15
     668:	fef42023          	sw	a5,-32(s0)
E:/proj/riscv/Seekfree_CH32V103R8T6_Opensource_Library/Libraries/wch_Libraries/Peripheral/ch32v10x_gpio.c:415
  tmp = GPIO_Remap & LSB_MASK;
     66c:	fdc42703          	lw	a4,-36(s0)
     670:	67c1                	lui	a5,0x10
     672:	17fd                	addi	a5,a5,-1
     674:	8ff9                	and	a5,a5,a4
     676:	fef42423          	sw	a5,-24(s0)
E:/proj/riscv/Seekfree_CH32V103R8T6_Opensource_Library/Libraries/wch_Libraries/Peripheral/ch32v10x_gpio.c:417

  if ((GPIO_Remap & (DBGAFR_LOCATION_MASK | DBGAFR_NUMBITS_MASK)) == (DBGAFR_LOCATION_MASK | DBGAFR_NUMBITS_MASK))
     67a:	fdc42703          	lw	a4,-36(s0)
     67e:	003007b7          	lui	a5,0x300
     682:	8f7d                	and	a4,a4,a5
     684:	003007b7          	lui	a5,0x300
     688:	02f71563          	bne	a4,a5,6b2 <GPIO_PinRemapConfig+0x8e>
E:/proj/riscv/Seekfree_CH32V103R8T6_Opensource_Library/Libraries/wch_Libraries/Peripheral/ch32v10x_gpio.c:419
  {
    tmpreg &= DBGAFR_SWJCFG_MASK;
     68c:	fec42703          	lw	a4,-20(s0)
     690:	f10007b7          	lui	a5,0xf1000
     694:	17fd                	addi	a5,a5,-1
     696:	8ff9                	and	a5,a5,a4
     698:	fef42623          	sw	a5,-20(s0)
E:/proj/riscv/Seekfree_CH32V103R8T6_Opensource_Library/Libraries/wch_Libraries/Peripheral/ch32v10x_gpio.c:420
    AFIO->PCFR1 &= DBGAFR_SWJCFG_MASK;
     69c:	400107b7          	lui	a5,0x40010
     6a0:	43d4                	lw	a3,4(a5)
     6a2:	400107b7          	lui	a5,0x40010
     6a6:	f1000737          	lui	a4,0xf1000
     6aa:	177d                	addi	a4,a4,-1
     6ac:	8f75                	and	a4,a4,a3
     6ae:	c3d8                	sw	a4,4(a5)
     6b0:	a0ad                	j	71a <GPIO_PinRemapConfig+0xf6>
E:/proj/riscv/Seekfree_CH32V103R8T6_Opensource_Library/Libraries/wch_Libraries/Peripheral/ch32v10x_gpio.c:422
  }
  else if ((GPIO_Remap & DBGAFR_NUMBITS_MASK) == DBGAFR_NUMBITS_MASK)
     6b2:	fdc42703          	lw	a4,-36(s0)
     6b6:	001007b7          	lui	a5,0x100
     6ba:	8ff9                	and	a5,a5,a4
     6bc:	cb8d                	beqz	a5,6ee <GPIO_PinRemapConfig+0xca>
E:/proj/riscv/Seekfree_CH32V103R8T6_Opensource_Library/Libraries/wch_Libraries/Peripheral/ch32v10x_gpio.c:424
  {
    tmp1 = ((uint32_t)0x03) << tmpmask;
     6be:	fe042783          	lw	a5,-32(s0)
     6c2:	470d                	li	a4,3
     6c4:	00f717b3          	sll	a5,a4,a5
     6c8:	fef42223          	sw	a5,-28(s0)
E:/proj/riscv/Seekfree_CH32V103R8T6_Opensource_Library/Libraries/wch_Libraries/Peripheral/ch32v10x_gpio.c:425
    tmpreg &= ~tmp1;
     6cc:	fe442783          	lw	a5,-28(s0)
     6d0:	fff7c793          	not	a5,a5
     6d4:	fec42703          	lw	a4,-20(s0)
     6d8:	8ff9                	and	a5,a5,a4
     6da:	fef42623          	sw	a5,-20(s0)
E:/proj/riscv/Seekfree_CH32V103R8T6_Opensource_Library/Libraries/wch_Libraries/Peripheral/ch32v10x_gpio.c:426
    tmpreg |= ~DBGAFR_SWJCFG_MASK;
     6de:	fec42703          	lw	a4,-20(s0)
     6e2:	0f0007b7          	lui	a5,0xf000
     6e6:	8fd9                	or	a5,a5,a4
     6e8:	fef42623          	sw	a5,-20(s0)
     6ec:	a03d                	j	71a <GPIO_PinRemapConfig+0xf6>
E:/proj/riscv/Seekfree_CH32V103R8T6_Opensource_Library/Libraries/wch_Libraries/Peripheral/ch32v10x_gpio.c:430
  }
  else
  {
    tmpreg &= ~(tmp << ((GPIO_Remap >> 0x15)*0x10));
     6ee:	fdc42783          	lw	a5,-36(s0)
     6f2:	83d5                	srli	a5,a5,0x15
     6f4:	0792                	slli	a5,a5,0x4
     6f6:	fe842703          	lw	a4,-24(s0)
     6fa:	00f717b3          	sll	a5,a4,a5
     6fe:	fff7c793          	not	a5,a5
     702:	fec42703          	lw	a4,-20(s0)
     706:	8ff9                	and	a5,a5,a4
     708:	fef42623          	sw	a5,-20(s0)
E:/proj/riscv/Seekfree_CH32V103R8T6_Opensource_Library/Libraries/wch_Libraries/Peripheral/ch32v10x_gpio.c:431
    tmpreg |= ~DBGAFR_SWJCFG_MASK;
     70c:	fec42703          	lw	a4,-20(s0)
     710:	0f0007b7          	lui	a5,0xf000
     714:	8fd9                	or	a5,a5,a4
     716:	fef42623          	sw	a5,-20(s0)
E:/proj/riscv/Seekfree_CH32V103R8T6_Opensource_Library/Libraries/wch_Libraries/Peripheral/ch32v10x_gpio.c:434
  }

  if (NewState != DISABLE)
     71a:	fd842783          	lw	a5,-40(s0)
     71e:	cf91                	beqz	a5,73a <GPIO_PinRemapConfig+0x116>
E:/proj/riscv/Seekfree_CH32V103R8T6_Opensource_Library/Libraries/wch_Libraries/Peripheral/ch32v10x_gpio.c:436
  {
    tmpreg |= (tmp << ((GPIO_Remap >> 0x15)*0x10));
     720:	fdc42783          	lw	a5,-36(s0)
     724:	83d5                	srli	a5,a5,0x15
     726:	0792                	slli	a5,a5,0x4
     728:	fe842703          	lw	a4,-24(s0)
     72c:	00f717b3          	sll	a5,a4,a5
     730:	fec42703          	lw	a4,-20(s0)
     734:	8fd9                	or	a5,a5,a4
     736:	fef42623          	sw	a5,-20(s0)
E:/proj/riscv/Seekfree_CH32V103R8T6_Opensource_Library/Libraries/wch_Libraries/Peripheral/ch32v10x_gpio.c:439
  }

  if((GPIO_Remap & 0x80000000) == 0x80000000)
     73a:	fdc42783          	lw	a5,-36(s0)
     73e:	0007d863          	bgez	a5,74e <GPIO_PinRemapConfig+0x12a>
E:/proj/riscv/Seekfree_CH32V103R8T6_Opensource_Library/Libraries/wch_Libraries/Peripheral/ch32v10x_gpio.c:441
  {
    AFIO->PCFR2 = tmpreg;
     742:	400107b7          	lui	a5,0x40010
     746:	fec42703          	lw	a4,-20(s0)
     74a:	cfd8                	sw	a4,28(a5)
E:/proj/riscv/Seekfree_CH32V103R8T6_Opensource_Library/Libraries/wch_Libraries/Peripheral/ch32v10x_gpio.c:447
  }
  else
  {
    AFIO->PCFR1 = tmpreg;
  }  
}
     74c:	a031                	j	758 <GPIO_PinRemapConfig+0x134>
E:/proj/riscv/Seekfree_CH32V103R8T6_Opensource_Library/Libraries/wch_Libraries/Peripheral/ch32v10x_gpio.c:445
    AFIO->PCFR1 = tmpreg;
     74e:	400107b7          	lui	a5,0x40010
     752:	fec42703          	lw	a4,-20(s0)
     756:	c3d8                	sw	a4,4(a5)
E:/proj/riscv/Seekfree_CH32V103R8T6_Opensource_Library/Libraries/wch_Libraries/Peripheral/ch32v10x_gpio.c:447
}
     758:	0001                	nop
     75a:	5432                	lw	s0,44(sp)
     75c:	6145                	addi	sp,sp,48
     75e:	8082                	ret

00000760 <RCC_GetClocksFreq>:
RCC_GetClocksFreq():
E:/proj/riscv/Seekfree_CH32V103R8T6_Opensource_Library/Libraries/wch_Libraries/Peripheral/ch32v10x_rcc.c:469
* Input          : The result of this function could be not correct when using
*      fractional value for HSE crystal.
* Return         : None
********************************************************************************/
void RCC_GetClocksFreq(RCC_ClocksTypeDef* RCC_Clocks)
{
     760:	7179                	addi	sp,sp,-48
     762:	d622                	sw	s0,44(sp)
     764:	1800                	addi	s0,sp,48
     766:	fca42e23          	sw	a0,-36(s0)
E:/proj/riscv/Seekfree_CH32V103R8T6_Opensource_Library/Libraries/wch_Libraries/Peripheral/ch32v10x_rcc.c:470
  uint32_t tmp = 0, pllmull = 0, pllsource = 0, presc = 0;
     76a:	fe042623          	sw	zero,-20(s0)
     76e:	fe042423          	sw	zero,-24(s0)
     772:	fe042223          	sw	zero,-28(s0)
     776:	fe042023          	sw	zero,-32(s0)
E:/proj/riscv/Seekfree_CH32V103R8T6_Opensource_Library/Libraries/wch_Libraries/Peripheral/ch32v10x_rcc.c:472
  
  tmp = RCC->CFGR0 & CFGR0_SWS_Mask;
     77a:	400217b7          	lui	a5,0x40021
     77e:	43dc                	lw	a5,4(a5)
     780:	8bb1                	andi	a5,a5,12
     782:	fef42623          	sw	a5,-20(s0)
     786:	fec42703          	lw	a4,-20(s0)
     78a:	4791                	li	a5,4
     78c:	02f70263          	beq	a4,a5,7b0 <RCC_GetClocksFreq+0x50>
     790:	fec42703          	lw	a4,-20(s0)
     794:	47a1                	li	a5,8
     796:	02f70563          	beq	a4,a5,7c0 <RCC_GetClocksFreq+0x60>
     79a:	fec42783          	lw	a5,-20(s0)
     79e:	e7c5                	bnez	a5,846 <__stack_size+0x46>
E:/proj/riscv/Seekfree_CH32V103R8T6_Opensource_Library/Libraries/wch_Libraries/Peripheral/ch32v10x_rcc.c:477
  
  switch (tmp)
  {
    case 0x00: 
      RCC_Clocks->SYSCLK_Frequency = HSI_VALUE;
     7a0:	fdc42783          	lw	a5,-36(s0)
     7a4:	007a1737          	lui	a4,0x7a1
     7a8:	20070713          	addi	a4,a4,512 # 7a1200 <_data_lma+0x79e5f8>
     7ac:	c398                	sw	a4,0(a5)
E:/proj/riscv/Seekfree_CH32V103R8T6_Opensource_Library/Libraries/wch_Libraries/Peripheral/ch32v10x_rcc.c:478
      break;
     7ae:	a065                	j	856 <__stack_size+0x56>
E:/proj/riscv/Seekfree_CH32V103R8T6_Opensource_Library/Libraries/wch_Libraries/Peripheral/ch32v10x_rcc.c:481
		
    case 0x04:
      RCC_Clocks->SYSCLK_Frequency = HSE_VALUE;
     7b0:	fdc42783          	lw	a5,-36(s0)
     7b4:	007a1737          	lui	a4,0x7a1
     7b8:	20070713          	addi	a4,a4,512 # 7a1200 <_data_lma+0x79e5f8>
     7bc:	c398                	sw	a4,0(a5)
E:/proj/riscv/Seekfree_CH32V103R8T6_Opensource_Library/Libraries/wch_Libraries/Peripheral/ch32v10x_rcc.c:482
      break;
     7be:	a861                	j	856 <__stack_size+0x56>
E:/proj/riscv/Seekfree_CH32V103R8T6_Opensource_Library/Libraries/wch_Libraries/Peripheral/ch32v10x_rcc.c:485
		
    case 0x08:
      pllmull = RCC->CFGR0 & CFGR0_PLLMull_Mask;
     7c0:	400217b7          	lui	a5,0x40021
     7c4:	43d8                	lw	a4,4(a5)
     7c6:	003c07b7          	lui	a5,0x3c0
     7ca:	8ff9                	and	a5,a5,a4
     7cc:	fef42423          	sw	a5,-24(s0)
E:/proj/riscv/Seekfree_CH32V103R8T6_Opensource_Library/Libraries/wch_Libraries/Peripheral/ch32v10x_rcc.c:486
      pllsource = RCC->CFGR0 & CFGR0_PLLSRC_Mask;    
     7d0:	400217b7          	lui	a5,0x40021
     7d4:	43d8                	lw	a4,4(a5)
     7d6:	67c1                	lui	a5,0x10
     7d8:	8ff9                	and	a5,a5,a4
     7da:	fef42223          	sw	a5,-28(s0)
E:/proj/riscv/Seekfree_CH32V103R8T6_Opensource_Library/Libraries/wch_Libraries/Peripheral/ch32v10x_rcc.c:487
      pllmull = ( pllmull >> 18) + 2;
     7de:	fe842783          	lw	a5,-24(s0)
     7e2:	83c9                	srli	a5,a5,0x12
     7e4:	0789                	addi	a5,a5,2
     7e6:	fef42423          	sw	a5,-24(s0)
E:/proj/riscv/Seekfree_CH32V103R8T6_Opensource_Library/Libraries/wch_Libraries/Peripheral/ch32v10x_rcc.c:489
      
      if (pllsource == 0x00)
     7ea:	fe442783          	lw	a5,-28(s0)
     7ee:	ef89                	bnez	a5,808 <__stack_size+0x8>
E:/proj/riscv/Seekfree_CH32V103R8T6_Opensource_Library/Libraries/wch_Libraries/Peripheral/ch32v10x_rcc.c:491
      {
        RCC_Clocks->SYSCLK_Frequency = (HSI_VALUE >> 1) * pllmull;
     7f0:	fe842703          	lw	a4,-24(s0)
     7f4:	003d17b7          	lui	a5,0x3d1
     7f8:	90078793          	addi	a5,a5,-1792 # 3d0900 <_data_lma+0x3cdcf8>
     7fc:	02f70733          	mul	a4,a4,a5
     800:	fdc42783          	lw	a5,-36(s0)
     804:	c398                	sw	a4,0(a5)
E:/proj/riscv/Seekfree_CH32V103R8T6_Opensource_Library/Libraries/wch_Libraries/Peripheral/ch32v10x_rcc.c:504
        else
        {
          RCC_Clocks->SYSCLK_Frequency = HSE_VALUE * pllmull;
        }
      } 
      break;
     806:	a881                	j	856 <__stack_size+0x56>
E:/proj/riscv/Seekfree_CH32V103R8T6_Opensource_Library/Libraries/wch_Libraries/Peripheral/ch32v10x_rcc.c:495
        if ((RCC->CFGR0 & CFGR0_PLLXTPRE_Mask) != (uint32_t)RESET)
     808:	400217b7          	lui	a5,0x40021
     80c:	43d8                	lw	a4,4(a5)
     80e:	000207b7          	lui	a5,0x20
     812:	8ff9                	and	a5,a5,a4
     814:	cf89                	beqz	a5,82e <__stack_size+0x2e>
E:/proj/riscv/Seekfree_CH32V103R8T6_Opensource_Library/Libraries/wch_Libraries/Peripheral/ch32v10x_rcc.c:497
          RCC_Clocks->SYSCLK_Frequency = (HSE_VALUE >> 1) * pllmull;
     816:	fe842703          	lw	a4,-24(s0)
     81a:	003d17b7          	lui	a5,0x3d1
     81e:	90078793          	addi	a5,a5,-1792 # 3d0900 <_data_lma+0x3cdcf8>
     822:	02f70733          	mul	a4,a4,a5
     826:	fdc42783          	lw	a5,-36(s0)
     82a:	c398                	sw	a4,0(a5)
E:/proj/riscv/Seekfree_CH32V103R8T6_Opensource_Library/Libraries/wch_Libraries/Peripheral/ch32v10x_rcc.c:504
      break;
     82c:	a02d                	j	856 <__stack_size+0x56>
E:/proj/riscv/Seekfree_CH32V103R8T6_Opensource_Library/Libraries/wch_Libraries/Peripheral/ch32v10x_rcc.c:501
          RCC_Clocks->SYSCLK_Frequency = HSE_VALUE * pllmull;
     82e:	fe842703          	lw	a4,-24(s0)
     832:	007a17b7          	lui	a5,0x7a1
     836:	20078793          	addi	a5,a5,512 # 7a1200 <_data_lma+0x79e5f8>
     83a:	02f70733          	mul	a4,a4,a5
     83e:	fdc42783          	lw	a5,-36(s0)
     842:	c398                	sw	a4,0(a5)
E:/proj/riscv/Seekfree_CH32V103R8T6_Opensource_Library/Libraries/wch_Libraries/Peripheral/ch32v10x_rcc.c:504
      break;
     844:	a809                	j	856 <__stack_size+0x56>
E:/proj/riscv/Seekfree_CH32V103R8T6_Opensource_Library/Libraries/wch_Libraries/Peripheral/ch32v10x_rcc.c:507

    default:
      RCC_Clocks->SYSCLK_Frequency = HSI_VALUE;
     846:	fdc42783          	lw	a5,-36(s0)
     84a:	007a1737          	lui	a4,0x7a1
     84e:	20070713          	addi	a4,a4,512 # 7a1200 <_data_lma+0x79e5f8>
     852:	c398                	sw	a4,0(a5)
E:/proj/riscv/Seekfree_CH32V103R8T6_Opensource_Library/Libraries/wch_Libraries/Peripheral/ch32v10x_rcc.c:508
      break;
     854:	0001                	nop
E:/proj/riscv/Seekfree_CH32V103R8T6_Opensource_Library/Libraries/wch_Libraries/Peripheral/ch32v10x_rcc.c:511
  }

  tmp = RCC->CFGR0 & CFGR0_HPRE_Set_Mask;
     856:	400217b7          	lui	a5,0x40021
     85a:	43dc                	lw	a5,4(a5)
     85c:	0f07f793          	andi	a5,a5,240
     860:	fef42623          	sw	a5,-20(s0)
E:/proj/riscv/Seekfree_CH32V103R8T6_Opensource_Library/Libraries/wch_Libraries/Peripheral/ch32v10x_rcc.c:512
  tmp = tmp >> 4;
     864:	fec42783          	lw	a5,-20(s0)
     868:	8391                	srli	a5,a5,0x4
     86a:	fef42623          	sw	a5,-20(s0)
E:/proj/riscv/Seekfree_CH32V103R8T6_Opensource_Library/Libraries/wch_Libraries/Peripheral/ch32v10x_rcc.c:513
  presc = APBAHBPrescTable[tmp];
     86e:	200007b7          	lui	a5,0x20000
     872:	00078713          	mv	a4,a5
     876:	fec42783          	lw	a5,-20(s0)
     87a:	97ba                	add	a5,a5,a4
     87c:	0007c783          	lbu	a5,0(a5) # 20000000 <_data_vma>
     880:	0ff7f793          	andi	a5,a5,255
     884:	fef42023          	sw	a5,-32(s0)
E:/proj/riscv/Seekfree_CH32V103R8T6_Opensource_Library/Libraries/wch_Libraries/Peripheral/ch32v10x_rcc.c:514
  RCC_Clocks->HCLK_Frequency = RCC_Clocks->SYSCLK_Frequency >> presc;
     888:	fdc42783          	lw	a5,-36(s0)
     88c:	4398                	lw	a4,0(a5)
     88e:	fe042783          	lw	a5,-32(s0)
     892:	00f75733          	srl	a4,a4,a5
     896:	fdc42783          	lw	a5,-36(s0)
     89a:	c3d8                	sw	a4,4(a5)
E:/proj/riscv/Seekfree_CH32V103R8T6_Opensource_Library/Libraries/wch_Libraries/Peripheral/ch32v10x_rcc.c:515
  tmp = RCC->CFGR0 & CFGR0_PPRE1_Set_Mask;
     89c:	400217b7          	lui	a5,0x40021
     8a0:	43dc                	lw	a5,4(a5)
     8a2:	7007f793          	andi	a5,a5,1792
     8a6:	fef42623          	sw	a5,-20(s0)
E:/proj/riscv/Seekfree_CH32V103R8T6_Opensource_Library/Libraries/wch_Libraries/Peripheral/ch32v10x_rcc.c:516
  tmp = tmp >> 8;
     8aa:	fec42783          	lw	a5,-20(s0)
     8ae:	83a1                	srli	a5,a5,0x8
     8b0:	fef42623          	sw	a5,-20(s0)
E:/proj/riscv/Seekfree_CH32V103R8T6_Opensource_Library/Libraries/wch_Libraries/Peripheral/ch32v10x_rcc.c:517
  presc = APBAHBPrescTable[tmp];
     8b4:	200007b7          	lui	a5,0x20000
     8b8:	00078713          	mv	a4,a5
     8bc:	fec42783          	lw	a5,-20(s0)
     8c0:	97ba                	add	a5,a5,a4
     8c2:	0007c783          	lbu	a5,0(a5) # 20000000 <_data_vma>
     8c6:	0ff7f793          	andi	a5,a5,255
     8ca:	fef42023          	sw	a5,-32(s0)
E:/proj/riscv/Seekfree_CH32V103R8T6_Opensource_Library/Libraries/wch_Libraries/Peripheral/ch32v10x_rcc.c:518
  RCC_Clocks->PCLK1_Frequency = RCC_Clocks->HCLK_Frequency >> presc;
     8ce:	fdc42783          	lw	a5,-36(s0)
     8d2:	43d8                	lw	a4,4(a5)
     8d4:	fe042783          	lw	a5,-32(s0)
     8d8:	00f75733          	srl	a4,a4,a5
     8dc:	fdc42783          	lw	a5,-36(s0)
     8e0:	c798                	sw	a4,8(a5)
E:/proj/riscv/Seekfree_CH32V103R8T6_Opensource_Library/Libraries/wch_Libraries/Peripheral/ch32v10x_rcc.c:519
  tmp = RCC->CFGR0 & CFGR0_PPRE2_Set_Mask;
     8e2:	400217b7          	lui	a5,0x40021
     8e6:	43d8                	lw	a4,4(a5)
     8e8:	6791                	lui	a5,0x4
     8ea:	80078793          	addi	a5,a5,-2048 # 3800 <_data_lma+0xbf8>
     8ee:	8ff9                	and	a5,a5,a4
     8f0:	fef42623          	sw	a5,-20(s0)
E:/proj/riscv/Seekfree_CH32V103R8T6_Opensource_Library/Libraries/wch_Libraries/Peripheral/ch32v10x_rcc.c:520
  tmp = tmp >> 11;
     8f4:	fec42783          	lw	a5,-20(s0)
     8f8:	83ad                	srli	a5,a5,0xb
     8fa:	fef42623          	sw	a5,-20(s0)
E:/proj/riscv/Seekfree_CH32V103R8T6_Opensource_Library/Libraries/wch_Libraries/Peripheral/ch32v10x_rcc.c:521
  presc = APBAHBPrescTable[tmp];
     8fe:	200007b7          	lui	a5,0x20000
     902:	00078713          	mv	a4,a5
     906:	fec42783          	lw	a5,-20(s0)
     90a:	97ba                	add	a5,a5,a4
     90c:	0007c783          	lbu	a5,0(a5) # 20000000 <_data_vma>
     910:	0ff7f793          	andi	a5,a5,255
     914:	fef42023          	sw	a5,-32(s0)
E:/proj/riscv/Seekfree_CH32V103R8T6_Opensource_Library/Libraries/wch_Libraries/Peripheral/ch32v10x_rcc.c:522
  RCC_Clocks->PCLK2_Frequency = RCC_Clocks->HCLK_Frequency >> presc;
     918:	fdc42783          	lw	a5,-36(s0)
     91c:	43d8                	lw	a4,4(a5)
     91e:	fe042783          	lw	a5,-32(s0)
     922:	00f75733          	srl	a4,a4,a5
     926:	fdc42783          	lw	a5,-36(s0)
     92a:	c7d8                	sw	a4,12(a5)
E:/proj/riscv/Seekfree_CH32V103R8T6_Opensource_Library/Libraries/wch_Libraries/Peripheral/ch32v10x_rcc.c:523
  tmp = RCC->CFGR0 & CFGR0_ADCPRE_Set_Mask;
     92c:	400217b7          	lui	a5,0x40021
     930:	43d8                	lw	a4,4(a5)
     932:	67b1                	lui	a5,0xc
     934:	8ff9                	and	a5,a5,a4
     936:	fef42623          	sw	a5,-20(s0)
E:/proj/riscv/Seekfree_CH32V103R8T6_Opensource_Library/Libraries/wch_Libraries/Peripheral/ch32v10x_rcc.c:524
  tmp = tmp >> 14;
     93a:	fec42783          	lw	a5,-20(s0)
     93e:	83b9                	srli	a5,a5,0xe
     940:	fef42623          	sw	a5,-20(s0)
E:/proj/riscv/Seekfree_CH32V103R8T6_Opensource_Library/Libraries/wch_Libraries/Peripheral/ch32v10x_rcc.c:525
  presc = ADCPrescTable[tmp];
     944:	200007b7          	lui	a5,0x20000
     948:	01078713          	addi	a4,a5,16 # 20000010 <ADCPrescTable>
     94c:	fec42783          	lw	a5,-20(s0)
     950:	97ba                	add	a5,a5,a4
     952:	0007c783          	lbu	a5,0(a5)
     956:	0ff7f793          	andi	a5,a5,255
     95a:	fef42023          	sw	a5,-32(s0)
E:/proj/riscv/Seekfree_CH32V103R8T6_Opensource_Library/Libraries/wch_Libraries/Peripheral/ch32v10x_rcc.c:526
  RCC_Clocks->ADCCLK_Frequency = RCC_Clocks->PCLK2_Frequency / presc;
     95e:	fdc42783          	lw	a5,-36(s0)
     962:	47d8                	lw	a4,12(a5)
     964:	fe042783          	lw	a5,-32(s0)
     968:	02f75733          	divu	a4,a4,a5
     96c:	fdc42783          	lw	a5,-36(s0)
     970:	cb98                	sw	a4,16(a5)
E:/proj/riscv/Seekfree_CH32V103R8T6_Opensource_Library/Libraries/wch_Libraries/Peripheral/ch32v10x_rcc.c:527
}
     972:	0001                	nop
     974:	5432                	lw	s0,44(sp)
     976:	6145                	addi	sp,sp,48
     978:	8082                	ret

0000097a <RCC_APB2PeriphClockCmd>:
RCC_APB2PeriphClockCmd():
E:/proj/riscv/Seekfree_CH32V103R8T6_Opensource_Library/Libraries/wch_Libraries/Peripheral/ch32v10x_rcc.c:570
*                    RCC_APB2Periph_USART1.
*                  NewState: ENABLE or DISABLE
* Return         : None
*******************************************************************************/	
void RCC_APB2PeriphClockCmd(uint32_t RCC_APB2Periph, FunctionalState NewState)
{
     97a:	1101                	addi	sp,sp,-32
     97c:	ce22                	sw	s0,28(sp)
     97e:	1000                	addi	s0,sp,32
     980:	fea42623          	sw	a0,-20(s0)
     984:	feb42423          	sw	a1,-24(s0)
E:/proj/riscv/Seekfree_CH32V103R8T6_Opensource_Library/Libraries/wch_Libraries/Peripheral/ch32v10x_rcc.c:571
  if (NewState != DISABLE)
     988:	fe842783          	lw	a5,-24(s0)
     98c:	cb99                	beqz	a5,9a2 <RCC_APB2PeriphClockCmd+0x28>
E:/proj/riscv/Seekfree_CH32V103R8T6_Opensource_Library/Libraries/wch_Libraries/Peripheral/ch32v10x_rcc.c:573
  {
    RCC->APB2PCENR |= RCC_APB2Periph;
     98e:	400217b7          	lui	a5,0x40021
     992:	4f94                	lw	a3,24(a5)
     994:	400217b7          	lui	a5,0x40021
     998:	fec42703          	lw	a4,-20(s0)
     99c:	8f55                	or	a4,a4,a3
     99e:	cf98                	sw	a4,24(a5)
E:/proj/riscv/Seekfree_CH32V103R8T6_Opensource_Library/Libraries/wch_Libraries/Peripheral/ch32v10x_rcc.c:579
  }
  else
  {
    RCC->APB2PCENR &= ~RCC_APB2Periph;
  }
}
     9a0:	a821                	j	9b8 <RCC_APB2PeriphClockCmd+0x3e>
E:/proj/riscv/Seekfree_CH32V103R8T6_Opensource_Library/Libraries/wch_Libraries/Peripheral/ch32v10x_rcc.c:577
    RCC->APB2PCENR &= ~RCC_APB2Periph;
     9a2:	400217b7          	lui	a5,0x40021
     9a6:	4f94                	lw	a3,24(a5)
     9a8:	fec42783          	lw	a5,-20(s0)
     9ac:	fff7c713          	not	a4,a5
     9b0:	400217b7          	lui	a5,0x40021
     9b4:	8f75                	and	a4,a4,a3
     9b6:	cf98                	sw	a4,24(a5)
E:/proj/riscv/Seekfree_CH32V103R8T6_Opensource_Library/Libraries/wch_Libraries/Peripheral/ch32v10x_rcc.c:579
}
     9b8:	0001                	nop
     9ba:	4472                	lw	s0,28(sp)
     9bc:	6105                	addi	sp,sp,32
     9be:	8082                	ret

000009c0 <RCC_APB1PeriphClockCmd>:
RCC_APB1PeriphClockCmd():
E:/proj/riscv/Seekfree_CH32V103R8T6_Opensource_Library/Libraries/wch_Libraries/Peripheral/ch32v10x_rcc.c:603
*                    RCC_APB1Periph_DAC.                
*                  NewState: ENABLE or DISABLE.
* Return         : None
*******************************************************************************/	
void RCC_APB1PeriphClockCmd(uint32_t RCC_APB1Periph, FunctionalState NewState)
{
     9c0:	1101                	addi	sp,sp,-32
     9c2:	ce22                	sw	s0,28(sp)
     9c4:	1000                	addi	s0,sp,32
     9c6:	fea42623          	sw	a0,-20(s0)
     9ca:	feb42423          	sw	a1,-24(s0)
E:/proj/riscv/Seekfree_CH32V103R8T6_Opensource_Library/Libraries/wch_Libraries/Peripheral/ch32v10x_rcc.c:604
  if (NewState != DISABLE)
     9ce:	fe842783          	lw	a5,-24(s0)
     9d2:	cb99                	beqz	a5,9e8 <RCC_APB1PeriphClockCmd+0x28>
E:/proj/riscv/Seekfree_CH32V103R8T6_Opensource_Library/Libraries/wch_Libraries/Peripheral/ch32v10x_rcc.c:606
  {
    RCC->APB1PCENR |= RCC_APB1Periph;
     9d4:	400217b7          	lui	a5,0x40021
     9d8:	4fd4                	lw	a3,28(a5)
     9da:	400217b7          	lui	a5,0x40021
     9de:	fec42703          	lw	a4,-20(s0)
     9e2:	8f55                	or	a4,a4,a3
     9e4:	cfd8                	sw	a4,28(a5)
E:/proj/riscv/Seekfree_CH32V103R8T6_Opensource_Library/Libraries/wch_Libraries/Peripheral/ch32v10x_rcc.c:612
  }
  else
  {
    RCC->APB1PCENR &= ~RCC_APB1Periph;
  }
}
     9e6:	a821                	j	9fe <RCC_APB1PeriphClockCmd+0x3e>
E:/proj/riscv/Seekfree_CH32V103R8T6_Opensource_Library/Libraries/wch_Libraries/Peripheral/ch32v10x_rcc.c:610
    RCC->APB1PCENR &= ~RCC_APB1Periph;
     9e8:	400217b7          	lui	a5,0x40021
     9ec:	4fd4                	lw	a3,28(a5)
     9ee:	fec42783          	lw	a5,-20(s0)
     9f2:	fff7c713          	not	a4,a5
     9f6:	400217b7          	lui	a5,0x40021
     9fa:	8f75                	and	a4,a4,a3
     9fc:	cfd8                	sw	a4,28(a5)
E:/proj/riscv/Seekfree_CH32V103R8T6_Opensource_Library/Libraries/wch_Libraries/Peripheral/ch32v10x_rcc.c:612
}
     9fe:	0001                	nop
     a00:	4472                	lw	s0,28(sp)
     a02:	6105                	addi	sp,sp,32
     a04:	8082                	ret

00000a06 <RCC_APB2PeriphResetCmd>:
RCC_APB2PeriphResetCmd():
E:/proj/riscv/Seekfree_CH32V103R8T6_Opensource_Library/Libraries/wch_Libraries/Peripheral/ch32v10x_rcc.c:631
*                    RCC_APB2Periph_USART1.                
*                  NewState: ENABLE or DISABLE.
* Return         : None
*******************************************************************************/	
void RCC_APB2PeriphResetCmd(uint32_t RCC_APB2Periph, FunctionalState NewState)
{
     a06:	1101                	addi	sp,sp,-32
     a08:	ce22                	sw	s0,28(sp)
     a0a:	1000                	addi	s0,sp,32
     a0c:	fea42623          	sw	a0,-20(s0)
     a10:	feb42423          	sw	a1,-24(s0)
E:/proj/riscv/Seekfree_CH32V103R8T6_Opensource_Library/Libraries/wch_Libraries/Peripheral/ch32v10x_rcc.c:632
  if (NewState != DISABLE)
     a14:	fe842783          	lw	a5,-24(s0)
     a18:	cb99                	beqz	a5,a2e <RCC_APB2PeriphResetCmd+0x28>
E:/proj/riscv/Seekfree_CH32V103R8T6_Opensource_Library/Libraries/wch_Libraries/Peripheral/ch32v10x_rcc.c:634
  {
    RCC->APB2PRSTR |= RCC_APB2Periph;
     a1a:	400217b7          	lui	a5,0x40021
     a1e:	47d4                	lw	a3,12(a5)
     a20:	400217b7          	lui	a5,0x40021
     a24:	fec42703          	lw	a4,-20(s0)
     a28:	8f55                	or	a4,a4,a3
     a2a:	c7d8                	sw	a4,12(a5)
E:/proj/riscv/Seekfree_CH32V103R8T6_Opensource_Library/Libraries/wch_Libraries/Peripheral/ch32v10x_rcc.c:640
  }
  else
  {
    RCC->APB2PRSTR &= ~RCC_APB2Periph;
  }
}
     a2c:	a821                	j	a44 <RCC_APB2PeriphResetCmd+0x3e>
E:/proj/riscv/Seekfree_CH32V103R8T6_Opensource_Library/Libraries/wch_Libraries/Peripheral/ch32v10x_rcc.c:638
    RCC->APB2PRSTR &= ~RCC_APB2Periph;
     a2e:	400217b7          	lui	a5,0x40021
     a32:	47d4                	lw	a3,12(a5)
     a34:	fec42783          	lw	a5,-20(s0)
     a38:	fff7c713          	not	a4,a5
     a3c:	400217b7          	lui	a5,0x40021
     a40:	8f75                	and	a4,a4,a3
     a42:	c7d8                	sw	a4,12(a5)
E:/proj/riscv/Seekfree_CH32V103R8T6_Opensource_Library/Libraries/wch_Libraries/Peripheral/ch32v10x_rcc.c:640
}
     a44:	0001                	nop
     a46:	4472                	lw	s0,28(sp)
     a48:	6105                	addi	sp,sp,32
     a4a:	8082                	ret

00000a4c <TIM_GetITStatus>:
TIM_GetITStatus():
E:/proj/riscv/Seekfree_CH32V103R8T6_Opensource_Library/Libraries/wch_Libraries/Peripheral/ch32v10x_tim.c:1853
*                    TIM_IT_Trigger: TIM Trigger Interrupt source.
*                    TIM_IT_Break: TIM Break Interrupt source.
* Return         : bitstatus: SET or RESET.
*******************************************************************************/
ITStatus TIM_GetITStatus(TIM_TypeDef* TIMx, uint16_t TIM_IT)
{
     a4c:	7179                	addi	sp,sp,-48
     a4e:	d622                	sw	s0,44(sp)
     a50:	1800                	addi	s0,sp,48
     a52:	fca42e23          	sw	a0,-36(s0)
     a56:	87ae                	mv	a5,a1
     a58:	fcf41d23          	sh	a5,-38(s0)
E:/proj/riscv/Seekfree_CH32V103R8T6_Opensource_Library/Libraries/wch_Libraries/Peripheral/ch32v10x_tim.c:1854
  ITStatus bitstatus = RESET;  
     a5c:	fe042623          	sw	zero,-20(s0)
E:/proj/riscv/Seekfree_CH32V103R8T6_Opensource_Library/Libraries/wch_Libraries/Peripheral/ch32v10x_tim.c:1855
  uint16_t itstatus = 0x0, itenable = 0x0;
     a60:	fe041523          	sh	zero,-22(s0)
     a64:	fe041423          	sh	zero,-24(s0)
E:/proj/riscv/Seekfree_CH32V103R8T6_Opensource_Library/Libraries/wch_Libraries/Peripheral/ch32v10x_tim.c:1857
   
  itstatus = TIMx->INTFR & TIM_IT;
     a68:	fdc42783          	lw	a5,-36(s0)
     a6c:	0107d783          	lhu	a5,16(a5) # 40021010 <_eusrstack+0x2001c010>
     a70:	01079713          	slli	a4,a5,0x10
     a74:	8341                	srli	a4,a4,0x10
     a76:	fda45783          	lhu	a5,-38(s0)
     a7a:	8ff9                	and	a5,a5,a4
     a7c:	fef41523          	sh	a5,-22(s0)
E:/proj/riscv/Seekfree_CH32V103R8T6_Opensource_Library/Libraries/wch_Libraries/Peripheral/ch32v10x_tim.c:1859
  
  itenable = TIMx->DMAINTENR & TIM_IT;
     a80:	fdc42783          	lw	a5,-36(s0)
     a84:	00c7d783          	lhu	a5,12(a5)
     a88:	01079713          	slli	a4,a5,0x10
     a8c:	8341                	srli	a4,a4,0x10
     a8e:	fda45783          	lhu	a5,-38(s0)
     a92:	8ff9                	and	a5,a5,a4
     a94:	fef41423          	sh	a5,-24(s0)
E:/proj/riscv/Seekfree_CH32V103R8T6_Opensource_Library/Libraries/wch_Libraries/Peripheral/ch32v10x_tim.c:1860
  if ((itstatus != (uint16_t)RESET) && (itenable != (uint16_t)RESET))
     a98:	fea45783          	lhu	a5,-22(s0)
     a9c:	cb81                	beqz	a5,aac <TIM_GetITStatus+0x60>
E:/proj/riscv/Seekfree_CH32V103R8T6_Opensource_Library/Libraries/wch_Libraries/Peripheral/ch32v10x_tim.c:1860 (discriminator 1)
     a9e:	fe845783          	lhu	a5,-24(s0)
     aa2:	c789                	beqz	a5,aac <TIM_GetITStatus+0x60>
E:/proj/riscv/Seekfree_CH32V103R8T6_Opensource_Library/Libraries/wch_Libraries/Peripheral/ch32v10x_tim.c:1862
  {
    bitstatus = SET;
     aa4:	4785                	li	a5,1
     aa6:	fef42623          	sw	a5,-20(s0)
     aaa:	a019                	j	ab0 <TIM_GetITStatus+0x64>
E:/proj/riscv/Seekfree_CH32V103R8T6_Opensource_Library/Libraries/wch_Libraries/Peripheral/ch32v10x_tim.c:1866
  }
  else
  {
    bitstatus = RESET;
     aac:	fe042623          	sw	zero,-20(s0)
E:/proj/riscv/Seekfree_CH32V103R8T6_Opensource_Library/Libraries/wch_Libraries/Peripheral/ch32v10x_tim.c:1869
  }
	
  return bitstatus;
     ab0:	fec42783          	lw	a5,-20(s0)
E:/proj/riscv/Seekfree_CH32V103R8T6_Opensource_Library/Libraries/wch_Libraries/Peripheral/ch32v10x_tim.c:1870
}
     ab4:	853e                	mv	a0,a5
     ab6:	5432                	lw	s0,44(sp)
     ab8:	6145                	addi	sp,sp,48
     aba:	8082                	ret

00000abc <TIM_ClearITPendingBit>:
TIM_ClearITPendingBit():
E:/proj/riscv/Seekfree_CH32V103R8T6_Opensource_Library/Libraries/wch_Libraries/Peripheral/ch32v10x_tim.c:1888
*                    TIM_IT_Trigger: TIM Trigger Interrupt source.
*                    TIM_IT_Break: TIM Break Interrupt source.
* Return         : None
*******************************************************************************/
void TIM_ClearITPendingBit(TIM_TypeDef* TIMx, uint16_t TIM_IT)
{
     abc:	1101                	addi	sp,sp,-32
     abe:	ce22                	sw	s0,28(sp)
     ac0:	1000                	addi	s0,sp,32
     ac2:	fea42623          	sw	a0,-20(s0)
     ac6:	87ae                	mv	a5,a1
     ac8:	fef41523          	sh	a5,-22(s0)
E:/proj/riscv/Seekfree_CH32V103R8T6_Opensource_Library/Libraries/wch_Libraries/Peripheral/ch32v10x_tim.c:1889
  TIMx->INTFR = (uint16_t)~TIM_IT;
     acc:	fea45783          	lhu	a5,-22(s0)
     ad0:	fff7c793          	not	a5,a5
     ad4:	01079713          	slli	a4,a5,0x10
     ad8:	8341                	srli	a4,a4,0x10
     ada:	fec42783          	lw	a5,-20(s0)
     ade:	00e79823          	sh	a4,16(a5)
E:/proj/riscv/Seekfree_CH32V103R8T6_Opensource_Library/Libraries/wch_Libraries/Peripheral/ch32v10x_tim.c:1890
}
     ae2:	0001                	nop
     ae4:	4472                	lw	s0,28(sp)
     ae6:	6105                	addi	sp,sp,32
     ae8:	8082                	ret

00000aea <USART_Init>:
USART_Init():
E:/proj/riscv/Seekfree_CH32V103R8T6_Opensource_Library/Libraries/wch_Libraries/Peripheral/ch32v10x_usart.c:105
*                  USART_InitStruct: pointer to a USART_InitTypeDef structure
*      that contains the configuration information for the specified USART peripheral. 
* Return         : None
*******************************************************************************/
void USART_Init(USART_TypeDef* USARTx, USART_InitTypeDef* USART_InitStruct)
{
     aea:	715d                	addi	sp,sp,-80
     aec:	c686                	sw	ra,76(sp)
     aee:	c4a2                	sw	s0,72(sp)
     af0:	0880                	addi	s0,sp,80
     af2:	faa42e23          	sw	a0,-68(s0)
     af6:	fab42c23          	sw	a1,-72(s0)
E:/proj/riscv/Seekfree_CH32V103R8T6_Opensource_Library/Libraries/wch_Libraries/Peripheral/ch32v10x_usart.c:106
  uint32_t tmpreg = 0x00, apbclock = 0x00;
     afa:	fe042623          	sw	zero,-20(s0)
     afe:	fe042423          	sw	zero,-24(s0)
E:/proj/riscv/Seekfree_CH32V103R8T6_Opensource_Library/Libraries/wch_Libraries/Peripheral/ch32v10x_usart.c:107
  uint32_t integerdivider = 0x00;
     b02:	fe042223          	sw	zero,-28(s0)
E:/proj/riscv/Seekfree_CH32V103R8T6_Opensource_Library/Libraries/wch_Libraries/Peripheral/ch32v10x_usart.c:108
  uint32_t fractionaldivider = 0x00;
     b06:	fe042023          	sw	zero,-32(s0)
E:/proj/riscv/Seekfree_CH32V103R8T6_Opensource_Library/Libraries/wch_Libraries/Peripheral/ch32v10x_usart.c:109
  uint32_t usartxbase = 0;
     b0a:	fc042e23          	sw	zero,-36(s0)
E:/proj/riscv/Seekfree_CH32V103R8T6_Opensource_Library/Libraries/wch_Libraries/Peripheral/ch32v10x_usart.c:116

  if (USART_InitStruct->USART_HardwareFlowControl != USART_HardwareFlowControl_None)
  {
  }

  usartxbase = (uint32_t)USARTx;
     b0e:	fbc42783          	lw	a5,-68(s0)
     b12:	fcf42e23          	sw	a5,-36(s0)
E:/proj/riscv/Seekfree_CH32V103R8T6_Opensource_Library/Libraries/wch_Libraries/Peripheral/ch32v10x_usart.c:117
  tmpreg = USARTx->CTLR2;
     b16:	fbc42783          	lw	a5,-68(s0)
     b1a:	0107d783          	lhu	a5,16(a5)
     b1e:	07c2                	slli	a5,a5,0x10
     b20:	83c1                	srli	a5,a5,0x10
     b22:	fef42623          	sw	a5,-20(s0)
E:/proj/riscv/Seekfree_CH32V103R8T6_Opensource_Library/Libraries/wch_Libraries/Peripheral/ch32v10x_usart.c:118
  tmpreg &= CTLR2_STOP_CLEAR_Mask;
     b26:	fec42703          	lw	a4,-20(s0)
     b2a:	67b5                	lui	a5,0xd
     b2c:	17fd                	addi	a5,a5,-1
     b2e:	8ff9                	and	a5,a5,a4
     b30:	fef42623          	sw	a5,-20(s0)
E:/proj/riscv/Seekfree_CH32V103R8T6_Opensource_Library/Libraries/wch_Libraries/Peripheral/ch32v10x_usart.c:119
  tmpreg |= (uint32_t)USART_InitStruct->USART_StopBits;  
     b34:	fb842783          	lw	a5,-72(s0)
     b38:	0067d783          	lhu	a5,6(a5) # d006 <_data_lma+0xa3fe>
     b3c:	873e                	mv	a4,a5
     b3e:	fec42783          	lw	a5,-20(s0)
     b42:	8fd9                	or	a5,a5,a4
     b44:	fef42623          	sw	a5,-20(s0)
E:/proj/riscv/Seekfree_CH32V103R8T6_Opensource_Library/Libraries/wch_Libraries/Peripheral/ch32v10x_usart.c:121
	
  USARTx->CTLR2 = (uint16_t)tmpreg;
     b48:	fec42783          	lw	a5,-20(s0)
     b4c:	01079713          	slli	a4,a5,0x10
     b50:	8341                	srli	a4,a4,0x10
     b52:	fbc42783          	lw	a5,-68(s0)
     b56:	00e79823          	sh	a4,16(a5)
E:/proj/riscv/Seekfree_CH32V103R8T6_Opensource_Library/Libraries/wch_Libraries/Peripheral/ch32v10x_usart.c:122
  tmpreg = USARTx->CTLR1;
     b5a:	fbc42783          	lw	a5,-68(s0)
     b5e:	00c7d783          	lhu	a5,12(a5)
     b62:	07c2                	slli	a5,a5,0x10
     b64:	83c1                	srli	a5,a5,0x10
     b66:	fef42623          	sw	a5,-20(s0)
E:/proj/riscv/Seekfree_CH32V103R8T6_Opensource_Library/Libraries/wch_Libraries/Peripheral/ch32v10x_usart.c:123
  tmpreg &= CTLR1_CLEAR_Mask;
     b6a:	fec42703          	lw	a4,-20(s0)
     b6e:	67bd                	lui	a5,0xf
     b70:	9f378793          	addi	a5,a5,-1549 # e9f3 <_data_lma+0xbdeb>
     b74:	8ff9                	and	a5,a5,a4
     b76:	fef42623          	sw	a5,-20(s0)
E:/proj/riscv/Seekfree_CH32V103R8T6_Opensource_Library/Libraries/wch_Libraries/Peripheral/ch32v10x_usart.c:124
  tmpreg |= (uint32_t)USART_InitStruct->USART_WordLength | USART_InitStruct->USART_Parity |
     b7a:	fb842783          	lw	a5,-72(s0)
     b7e:	0047d703          	lhu	a4,4(a5)
     b82:	fb842783          	lw	a5,-72(s0)
     b86:	0087d783          	lhu	a5,8(a5)
     b8a:	8fd9                	or	a5,a5,a4
     b8c:	01079713          	slli	a4,a5,0x10
     b90:	8341                	srli	a4,a4,0x10
E:/proj/riscv/Seekfree_CH32V103R8T6_Opensource_Library/Libraries/wch_Libraries/Peripheral/ch32v10x_usart.c:125
            USART_InitStruct->USART_Mode;
     b92:	fb842783          	lw	a5,-72(s0)
     b96:	00a7d783          	lhu	a5,10(a5)
E:/proj/riscv/Seekfree_CH32V103R8T6_Opensource_Library/Libraries/wch_Libraries/Peripheral/ch32v10x_usart.c:124
  tmpreg |= (uint32_t)USART_InitStruct->USART_WordLength | USART_InitStruct->USART_Parity |
     b9a:	8fd9                	or	a5,a5,a4
     b9c:	07c2                	slli	a5,a5,0x10
     b9e:	83c1                	srli	a5,a5,0x10
     ba0:	873e                	mv	a4,a5
     ba2:	fec42783          	lw	a5,-20(s0)
     ba6:	8fd9                	or	a5,a5,a4
     ba8:	fef42623          	sw	a5,-20(s0)
E:/proj/riscv/Seekfree_CH32V103R8T6_Opensource_Library/Libraries/wch_Libraries/Peripheral/ch32v10x_usart.c:126
  USARTx->CTLR1 = (uint16_t)tmpreg;
     bac:	fec42783          	lw	a5,-20(s0)
     bb0:	01079713          	slli	a4,a5,0x10
     bb4:	8341                	srli	a4,a4,0x10
     bb6:	fbc42783          	lw	a5,-68(s0)
     bba:	00e79623          	sh	a4,12(a5)
E:/proj/riscv/Seekfree_CH32V103R8T6_Opensource_Library/Libraries/wch_Libraries/Peripheral/ch32v10x_usart.c:128
 
  tmpreg = USARTx->CTLR3;
     bbe:	fbc42783          	lw	a5,-68(s0)
     bc2:	0147d783          	lhu	a5,20(a5)
     bc6:	07c2                	slli	a5,a5,0x10
     bc8:	83c1                	srli	a5,a5,0x10
     bca:	fef42623          	sw	a5,-20(s0)
E:/proj/riscv/Seekfree_CH32V103R8T6_Opensource_Library/Libraries/wch_Libraries/Peripheral/ch32v10x_usart.c:129
  tmpreg &= CTLR3_CLEAR_Mask;
     bce:	fec42703          	lw	a4,-20(s0)
     bd2:	67c1                	lui	a5,0x10
     bd4:	cff78793          	addi	a5,a5,-769 # fcff <_data_lma+0xd0f7>
     bd8:	8ff9                	and	a5,a5,a4
     bda:	fef42623          	sw	a5,-20(s0)
E:/proj/riscv/Seekfree_CH32V103R8T6_Opensource_Library/Libraries/wch_Libraries/Peripheral/ch32v10x_usart.c:130
  tmpreg |= USART_InitStruct->USART_HardwareFlowControl;
     bde:	fb842783          	lw	a5,-72(s0)
     be2:	00c7d783          	lhu	a5,12(a5)
     be6:	873e                	mv	a4,a5
     be8:	fec42783          	lw	a5,-20(s0)
     bec:	8fd9                	or	a5,a5,a4
     bee:	fef42623          	sw	a5,-20(s0)
E:/proj/riscv/Seekfree_CH32V103R8T6_Opensource_Library/Libraries/wch_Libraries/Peripheral/ch32v10x_usart.c:131
  USARTx->CTLR3 = (uint16_t)tmpreg;
     bf2:	fec42783          	lw	a5,-20(s0)
     bf6:	01079713          	slli	a4,a5,0x10
     bfa:	8341                	srli	a4,a4,0x10
     bfc:	fbc42783          	lw	a5,-68(s0)
     c00:	00e79a23          	sh	a4,20(a5)
E:/proj/riscv/Seekfree_CH32V103R8T6_Opensource_Library/Libraries/wch_Libraries/Peripheral/ch32v10x_usart.c:133

  RCC_GetClocksFreq(&RCC_ClocksStatus);
     c04:	fc840793          	addi	a5,s0,-56
     c08:	853e                	mv	a0,a5
     c0a:	3e99                	jal	760 <RCC_GetClocksFreq>
E:/proj/riscv/Seekfree_CH32V103R8T6_Opensource_Library/Libraries/wch_Libraries/Peripheral/ch32v10x_usart.c:135
	
  if (usartxbase == USART1_BASE)
     c0c:	fdc42703          	lw	a4,-36(s0)
     c10:	400147b7          	lui	a5,0x40014
     c14:	80078793          	addi	a5,a5,-2048 # 40013800 <_eusrstack+0x2000e800>
     c18:	00f71763          	bne	a4,a5,c26 <USART_Init+0x13c>
E:/proj/riscv/Seekfree_CH32V103R8T6_Opensource_Library/Libraries/wch_Libraries/Peripheral/ch32v10x_usart.c:137
  {
    apbclock = RCC_ClocksStatus.PCLK2_Frequency;
     c1c:	fd442783          	lw	a5,-44(s0)
     c20:	fef42423          	sw	a5,-24(s0)
     c24:	a029                	j	c2e <USART_Init+0x144>
E:/proj/riscv/Seekfree_CH32V103R8T6_Opensource_Library/Libraries/wch_Libraries/Peripheral/ch32v10x_usart.c:141
  }
  else
  {
    apbclock = RCC_ClocksStatus.PCLK1_Frequency;
     c26:	fd042783          	lw	a5,-48(s0)
     c2a:	fef42423          	sw	a5,-24(s0)
E:/proj/riscv/Seekfree_CH32V103R8T6_Opensource_Library/Libraries/wch_Libraries/Peripheral/ch32v10x_usart.c:144
  }
  
  if ((USARTx->CTLR1 & CTLR1_OVER8_Set) != 0)
     c2e:	fbc42783          	lw	a5,-68(s0)
     c32:	00c7d783          	lhu	a5,12(a5)
     c36:	07c2                	slli	a5,a5,0x10
     c38:	83c1                	srli	a5,a5,0x10
     c3a:	07c2                	slli	a5,a5,0x10
     c3c:	87c1                	srai	a5,a5,0x10
     c3e:	0207d263          	bgez	a5,c62 <USART_Init+0x178>
E:/proj/riscv/Seekfree_CH32V103R8T6_Opensource_Library/Libraries/wch_Libraries/Peripheral/ch32v10x_usart.c:146
  {
    integerdivider = ((25 * apbclock) / (2 * (USART_InitStruct->USART_BaudRate)));    
     c42:	fe842703          	lw	a4,-24(s0)
     c46:	87ba                	mv	a5,a4
     c48:	0786                	slli	a5,a5,0x1
     c4a:	97ba                	add	a5,a5,a4
     c4c:	078e                	slli	a5,a5,0x3
     c4e:	973e                	add	a4,a4,a5
     c50:	fb842783          	lw	a5,-72(s0)
     c54:	439c                	lw	a5,0(a5)
     c56:	0786                	slli	a5,a5,0x1
     c58:	02f757b3          	divu	a5,a4,a5
     c5c:	fef42223          	sw	a5,-28(s0)
     c60:	a005                	j	c80 <USART_Init+0x196>
E:/proj/riscv/Seekfree_CH32V103R8T6_Opensource_Library/Libraries/wch_Libraries/Peripheral/ch32v10x_usart.c:150
  }
  else 
  {
    integerdivider = ((25 * apbclock) / (4 * (USART_InitStruct->USART_BaudRate)));    
     c62:	fe842703          	lw	a4,-24(s0)
     c66:	87ba                	mv	a5,a4
     c68:	0786                	slli	a5,a5,0x1
     c6a:	97ba                	add	a5,a5,a4
     c6c:	078e                	slli	a5,a5,0x3
     c6e:	973e                	add	a4,a4,a5
     c70:	fb842783          	lw	a5,-72(s0)
     c74:	439c                	lw	a5,0(a5)
     c76:	078a                	slli	a5,a5,0x2
     c78:	02f757b3          	divu	a5,a4,a5
     c7c:	fef42223          	sw	a5,-28(s0)
E:/proj/riscv/Seekfree_CH32V103R8T6_Opensource_Library/Libraries/wch_Libraries/Peripheral/ch32v10x_usart.c:152
  }
  tmpreg = (integerdivider / 100) << 4;
     c80:	fe442703          	lw	a4,-28(s0)
     c84:	06400793          	li	a5,100
     c88:	02f757b3          	divu	a5,a4,a5
     c8c:	0792                	slli	a5,a5,0x4
     c8e:	fef42623          	sw	a5,-20(s0)
E:/proj/riscv/Seekfree_CH32V103R8T6_Opensource_Library/Libraries/wch_Libraries/Peripheral/ch32v10x_usart.c:154

  fractionaldivider = integerdivider - (100 * (tmpreg >> 4));
     c92:	fec42783          	lw	a5,-20(s0)
     c96:	0047d713          	srli	a4,a5,0x4
     c9a:	06400793          	li	a5,100
     c9e:	02f707b3          	mul	a5,a4,a5
     ca2:	fe442703          	lw	a4,-28(s0)
     ca6:	40f707b3          	sub	a5,a4,a5
     caa:	fef42023          	sw	a5,-32(s0)
E:/proj/riscv/Seekfree_CH32V103R8T6_Opensource_Library/Libraries/wch_Libraries/Peripheral/ch32v10x_usart.c:156

  if ((USARTx->CTLR1 & CTLR1_OVER8_Set) != 0)
     cae:	fbc42783          	lw	a5,-68(s0)
     cb2:	00c7d783          	lhu	a5,12(a5)
     cb6:	07c2                	slli	a5,a5,0x10
     cb8:	83c1                	srli	a5,a5,0x10
     cba:	07c2                	slli	a5,a5,0x10
     cbc:	87c1                	srai	a5,a5,0x10
     cbe:	0207d263          	bgez	a5,ce2 <USART_Init+0x1f8>
E:/proj/riscv/Seekfree_CH32V103R8T6_Opensource_Library/Libraries/wch_Libraries/Peripheral/ch32v10x_usart.c:158
  {
    tmpreg |= ((((fractionaldivider * 8) + 50) / 100)) & ((uint8_t)0x07);
     cc2:	fe042783          	lw	a5,-32(s0)
     cc6:	078e                	slli	a5,a5,0x3
     cc8:	03278713          	addi	a4,a5,50
     ccc:	06400793          	li	a5,100
     cd0:	02f757b3          	divu	a5,a4,a5
     cd4:	8b9d                	andi	a5,a5,7
     cd6:	fec42703          	lw	a4,-20(s0)
     cda:	8fd9                	or	a5,a5,a4
     cdc:	fef42623          	sw	a5,-20(s0)
     ce0:	a005                	j	d00 <USART_Init+0x216>
E:/proj/riscv/Seekfree_CH32V103R8T6_Opensource_Library/Libraries/wch_Libraries/Peripheral/ch32v10x_usart.c:162
  }
  else 
  {
    tmpreg |= ((((fractionaldivider * 16) + 50) / 100)) & ((uint8_t)0x0F);
     ce2:	fe042783          	lw	a5,-32(s0)
     ce6:	0792                	slli	a5,a5,0x4
     ce8:	03278713          	addi	a4,a5,50
     cec:	06400793          	li	a5,100
     cf0:	02f757b3          	divu	a5,a4,a5
     cf4:	8bbd                	andi	a5,a5,15
     cf6:	fec42703          	lw	a4,-20(s0)
     cfa:	8fd9                	or	a5,a5,a4
     cfc:	fef42623          	sw	a5,-20(s0)
E:/proj/riscv/Seekfree_CH32V103R8T6_Opensource_Library/Libraries/wch_Libraries/Peripheral/ch32v10x_usart.c:165
  }
  
  USARTx->BRR = (uint16_t)tmpreg;
     d00:	fec42783          	lw	a5,-20(s0)
     d04:	01079713          	slli	a4,a5,0x10
     d08:	8341                	srli	a4,a4,0x10
     d0a:	fbc42783          	lw	a5,-68(s0)
     d0e:	00e79423          	sh	a4,8(a5)
E:/proj/riscv/Seekfree_CH32V103R8T6_Opensource_Library/Libraries/wch_Libraries/Peripheral/ch32v10x_usart.c:166
}
     d12:	0001                	nop
     d14:	40b6                	lw	ra,76(sp)
     d16:	4426                	lw	s0,72(sp)
     d18:	6161                	addi	sp,sp,80
     d1a:	8082                	ret

00000d1c <USART_Cmd>:
USART_Cmd():
E:/proj/riscv/Seekfree_CH32V103R8T6_Opensource_Library/Libraries/wch_Libraries/Peripheral/ch32v10x_usart.c:229
* Input          : USARTx: where x can be 1, 2, 3 to select the USART peripheral.
*                  NewState: ENABLE or DISABLE.
* Return         : None
*******************************************************************************/
void USART_Cmd(USART_TypeDef* USARTx, FunctionalState NewState)
{
     d1c:	1101                	addi	sp,sp,-32
     d1e:	ce22                	sw	s0,28(sp)
     d20:	1000                	addi	s0,sp,32
     d22:	fea42623          	sw	a0,-20(s0)
     d26:	feb42423          	sw	a1,-24(s0)
E:/proj/riscv/Seekfree_CH32V103R8T6_Opensource_Library/Libraries/wch_Libraries/Peripheral/ch32v10x_usart.c:230
  if (NewState != DISABLE)
     d2a:	fe842783          	lw	a5,-24(s0)
     d2e:	c395                	beqz	a5,d52 <USART_Cmd+0x36>
E:/proj/riscv/Seekfree_CH32V103R8T6_Opensource_Library/Libraries/wch_Libraries/Peripheral/ch32v10x_usart.c:232
  {
    USARTx->CTLR1 |= CTLR1_UE_Set;
     d30:	fec42783          	lw	a5,-20(s0)
     d34:	00c7d783          	lhu	a5,12(a5)
     d38:	01079713          	slli	a4,a5,0x10
     d3c:	8341                	srli	a4,a4,0x10
     d3e:	6789                	lui	a5,0x2
     d40:	8fd9                	or	a5,a5,a4
     d42:	01079713          	slli	a4,a5,0x10
     d46:	8341                	srli	a4,a4,0x10
     d48:	fec42783          	lw	a5,-20(s0)
     d4c:	00e79623          	sh	a4,12(a5) # 200c <USB_DevTransProcess+0x776>
E:/proj/riscv/Seekfree_CH32V103R8T6_Opensource_Library/Libraries/wch_Libraries/Peripheral/ch32v10x_usart.c:238
  }
  else
  {
    USARTx->CTLR1 &= CTLR1_UE_Reset;
  }
}
     d50:	a015                	j	d74 <USART_Cmd+0x58>
E:/proj/riscv/Seekfree_CH32V103R8T6_Opensource_Library/Libraries/wch_Libraries/Peripheral/ch32v10x_usart.c:236
    USARTx->CTLR1 &= CTLR1_UE_Reset;
     d52:	fec42783          	lw	a5,-20(s0)
     d56:	00c7d783          	lhu	a5,12(a5)
     d5a:	01079713          	slli	a4,a5,0x10
     d5e:	8341                	srli	a4,a4,0x10
     d60:	77f9                	lui	a5,0xffffe
     d62:	17fd                	addi	a5,a5,-1
     d64:	8ff9                	and	a5,a5,a4
     d66:	01079713          	slli	a4,a5,0x10
     d6a:	8341                	srli	a4,a4,0x10
     d6c:	fec42783          	lw	a5,-20(s0)
     d70:	00e79623          	sh	a4,12(a5) # ffffe00c <_eusrstack+0xdfff900c>
E:/proj/riscv/Seekfree_CH32V103R8T6_Opensource_Library/Libraries/wch_Libraries/Peripheral/ch32v10x_usart.c:238
}
     d74:	0001                	nop
     d76:	4472                	lw	s0,28(sp)
     d78:	6105                	addi	sp,sp,32
     d7a:	8082                	ret

00000d7c <USART_GetITStatus>:
USART_GetITStatus():
E:/proj/riscv/Seekfree_CH32V103R8T6_Opensource_Library/Libraries/wch_Libraries/Peripheral/ch32v10x_usart.c:660
*                    USART_IT_FE: Framing Error interrupt.
*                    USART_IT_PE: Parity Error interrupt.
* Return         : bitstatus: SET or RESET.
*******************************************************************************/
ITStatus USART_GetITStatus(USART_TypeDef* USARTx, uint16_t USART_IT)
{
     d7c:	7179                	addi	sp,sp,-48
     d7e:	d622                	sw	s0,44(sp)
     d80:	1800                	addi	s0,sp,48
     d82:	fca42e23          	sw	a0,-36(s0)
     d86:	87ae                	mv	a5,a1
     d88:	fcf41d23          	sh	a5,-38(s0)
E:/proj/riscv/Seekfree_CH32V103R8T6_Opensource_Library/Libraries/wch_Libraries/Peripheral/ch32v10x_usart.c:661
  uint32_t bitpos = 0x00, itmask = 0x00, usartreg = 0x00;
     d8c:	fe042223          	sw	zero,-28(s0)
     d90:	fe042623          	sw	zero,-20(s0)
     d94:	fe042023          	sw	zero,-32(s0)
E:/proj/riscv/Seekfree_CH32V103R8T6_Opensource_Library/Libraries/wch_Libraries/Peripheral/ch32v10x_usart.c:662
  ITStatus bitstatus = RESET;
     d98:	fe042423          	sw	zero,-24(s0)
E:/proj/riscv/Seekfree_CH32V103R8T6_Opensource_Library/Libraries/wch_Libraries/Peripheral/ch32v10x_usart.c:668

  if (USART_IT == USART_IT_CTS)
  {
  }   
  
  usartreg = (((uint8_t)USART_IT) >> 0x05);
     d9c:	fda45783          	lhu	a5,-38(s0)
     da0:	0ff7f793          	andi	a5,a5,255
     da4:	8395                	srli	a5,a5,0x5
     da6:	0ff7f793          	andi	a5,a5,255
     daa:	fef42023          	sw	a5,-32(s0)
E:/proj/riscv/Seekfree_CH32V103R8T6_Opensource_Library/Libraries/wch_Libraries/Peripheral/ch32v10x_usart.c:669
  itmask = USART_IT & IT_Mask;
     dae:	fda45783          	lhu	a5,-38(s0)
     db2:	8bfd                	andi	a5,a5,31
     db4:	fef42623          	sw	a5,-20(s0)
E:/proj/riscv/Seekfree_CH32V103R8T6_Opensource_Library/Libraries/wch_Libraries/Peripheral/ch32v10x_usart.c:670
  itmask = (uint32_t)0x01 << itmask;
     db8:	fec42783          	lw	a5,-20(s0)
     dbc:	4705                	li	a4,1
     dbe:	00f717b3          	sll	a5,a4,a5
     dc2:	fef42623          	sw	a5,-20(s0)
E:/proj/riscv/Seekfree_CH32V103R8T6_Opensource_Library/Libraries/wch_Libraries/Peripheral/ch32v10x_usart.c:672
  
  if (usartreg == 0x01) 
     dc6:	fe042703          	lw	a4,-32(s0)
     dca:	4785                	li	a5,1
     dcc:	00f71f63          	bne	a4,a5,dea <USART_GetITStatus+0x6e>
E:/proj/riscv/Seekfree_CH32V103R8T6_Opensource_Library/Libraries/wch_Libraries/Peripheral/ch32v10x_usart.c:674
  {
    itmask &= USARTx->CTLR1;
     dd0:	fdc42783          	lw	a5,-36(s0)
     dd4:	00c7d783          	lhu	a5,12(a5)
     dd8:	07c2                	slli	a5,a5,0x10
     dda:	83c1                	srli	a5,a5,0x10
     ddc:	873e                	mv	a4,a5
     dde:	fec42783          	lw	a5,-20(s0)
     de2:	8ff9                	and	a5,a5,a4
     de4:	fef42623          	sw	a5,-20(s0)
     de8:	a83d                	j	e26 <USART_GetITStatus+0xaa>
E:/proj/riscv/Seekfree_CH32V103R8T6_Opensource_Library/Libraries/wch_Libraries/Peripheral/ch32v10x_usart.c:676
  }
  else if (usartreg == 0x02) 
     dea:	fe042703          	lw	a4,-32(s0)
     dee:	4789                	li	a5,2
     df0:	00f71f63          	bne	a4,a5,e0e <USART_GetITStatus+0x92>
E:/proj/riscv/Seekfree_CH32V103R8T6_Opensource_Library/Libraries/wch_Libraries/Peripheral/ch32v10x_usart.c:678
  {
    itmask &= USARTx->CTLR2;
     df4:	fdc42783          	lw	a5,-36(s0)
     df8:	0107d783          	lhu	a5,16(a5)
     dfc:	07c2                	slli	a5,a5,0x10
     dfe:	83c1                	srli	a5,a5,0x10
     e00:	873e                	mv	a4,a5
     e02:	fec42783          	lw	a5,-20(s0)
     e06:	8ff9                	and	a5,a5,a4
     e08:	fef42623          	sw	a5,-20(s0)
     e0c:	a829                	j	e26 <USART_GetITStatus+0xaa>
E:/proj/riscv/Seekfree_CH32V103R8T6_Opensource_Library/Libraries/wch_Libraries/Peripheral/ch32v10x_usart.c:682
  }
  else 
  {
    itmask &= USARTx->CTLR3;
     e0e:	fdc42783          	lw	a5,-36(s0)
     e12:	0147d783          	lhu	a5,20(a5)
     e16:	07c2                	slli	a5,a5,0x10
     e18:	83c1                	srli	a5,a5,0x10
     e1a:	873e                	mv	a4,a5
     e1c:	fec42783          	lw	a5,-20(s0)
     e20:	8ff9                	and	a5,a5,a4
     e22:	fef42623          	sw	a5,-20(s0)
E:/proj/riscv/Seekfree_CH32V103R8T6_Opensource_Library/Libraries/wch_Libraries/Peripheral/ch32v10x_usart.c:685
  }
  
  bitpos = USART_IT >> 0x08;
     e26:	fda45783          	lhu	a5,-38(s0)
     e2a:	83a1                	srli	a5,a5,0x8
     e2c:	07c2                	slli	a5,a5,0x10
     e2e:	83c1                	srli	a5,a5,0x10
     e30:	fef42223          	sw	a5,-28(s0)
E:/proj/riscv/Seekfree_CH32V103R8T6_Opensource_Library/Libraries/wch_Libraries/Peripheral/ch32v10x_usart.c:686
  bitpos = (uint32_t)0x01 << bitpos;
     e34:	fe442783          	lw	a5,-28(s0)
     e38:	4705                	li	a4,1
     e3a:	00f717b3          	sll	a5,a4,a5
     e3e:	fef42223          	sw	a5,-28(s0)
E:/proj/riscv/Seekfree_CH32V103R8T6_Opensource_Library/Libraries/wch_Libraries/Peripheral/ch32v10x_usart.c:687
  bitpos &= USARTx->STATR;
     e42:	fdc42783          	lw	a5,-36(s0)
     e46:	0007d783          	lhu	a5,0(a5)
     e4a:	07c2                	slli	a5,a5,0x10
     e4c:	83c1                	srli	a5,a5,0x10
     e4e:	873e                	mv	a4,a5
     e50:	fe442783          	lw	a5,-28(s0)
     e54:	8ff9                	and	a5,a5,a4
     e56:	fef42223          	sw	a5,-28(s0)
E:/proj/riscv/Seekfree_CH32V103R8T6_Opensource_Library/Libraries/wch_Libraries/Peripheral/ch32v10x_usart.c:689
	
  if ((itmask != (uint16_t)RESET)&&(bitpos != (uint16_t)RESET))
     e5a:	fec42783          	lw	a5,-20(s0)
     e5e:	cb81                	beqz	a5,e6e <USART_GetITStatus+0xf2>
E:/proj/riscv/Seekfree_CH32V103R8T6_Opensource_Library/Libraries/wch_Libraries/Peripheral/ch32v10x_usart.c:689 (discriminator 1)
     e60:	fe442783          	lw	a5,-28(s0)
     e64:	c789                	beqz	a5,e6e <USART_GetITStatus+0xf2>
E:/proj/riscv/Seekfree_CH32V103R8T6_Opensource_Library/Libraries/wch_Libraries/Peripheral/ch32v10x_usart.c:691
  {
    bitstatus = SET;
     e66:	4785                	li	a5,1
     e68:	fef42423          	sw	a5,-24(s0)
     e6c:	a019                	j	e72 <USART_GetITStatus+0xf6>
E:/proj/riscv/Seekfree_CH32V103R8T6_Opensource_Library/Libraries/wch_Libraries/Peripheral/ch32v10x_usart.c:695
  }
  else
  {
    bitstatus = RESET;
     e6e:	fe042423          	sw	zero,-24(s0)
E:/proj/riscv/Seekfree_CH32V103R8T6_Opensource_Library/Libraries/wch_Libraries/Peripheral/ch32v10x_usart.c:698
  }
  
  return bitstatus;  
     e72:	fe842783          	lw	a5,-24(s0)
E:/proj/riscv/Seekfree_CH32V103R8T6_Opensource_Library/Libraries/wch_Libraries/Peripheral/ch32v10x_usart.c:699
}
     e76:	853e                	mv	a0,a5
     e78:	5432                	lw	s0,44(sp)
     e7a:	6145                	addi	sp,sp,48
     e7c:	8082                	ret

00000e7e <USART_ClearITPendingBit>:
USART_ClearITPendingBit():
E:/proj/riscv/Seekfree_CH32V103R8T6_Opensource_Library/Libraries/wch_Libraries/Peripheral/ch32v10x_usart.c:713
*                    USART_IT_TC:   Transmission complete interrupt.
*                    USART_IT_RXNE: Receive Data register not empty interrupt.
* Return         : None
*******************************************************************************/
void USART_ClearITPendingBit(USART_TypeDef* USARTx, uint16_t USART_IT)
{
     e7e:	7179                	addi	sp,sp,-48
     e80:	d622                	sw	s0,44(sp)
     e82:	1800                	addi	s0,sp,48
     e84:	fca42e23          	sw	a0,-36(s0)
     e88:	87ae                	mv	a5,a1
     e8a:	fcf41d23          	sh	a5,-38(s0)
E:/proj/riscv/Seekfree_CH32V103R8T6_Opensource_Library/Libraries/wch_Libraries/Peripheral/ch32v10x_usart.c:714
  uint16_t bitpos = 0x00, itmask = 0x00;
     e8e:	fe041723          	sh	zero,-18(s0)
     e92:	fe041623          	sh	zero,-20(s0)
E:/proj/riscv/Seekfree_CH32V103R8T6_Opensource_Library/Libraries/wch_Libraries/Peripheral/ch32v10x_usart.c:720

  if (USART_IT == USART_IT_CTS)
  {
  }   
  
  bitpos = USART_IT >> 0x08;
     e96:	fda45783          	lhu	a5,-38(s0)
     e9a:	83a1                	srli	a5,a5,0x8
     e9c:	fef41723          	sh	a5,-18(s0)
E:/proj/riscv/Seekfree_CH32V103R8T6_Opensource_Library/Libraries/wch_Libraries/Peripheral/ch32v10x_usart.c:721
  itmask = ((uint16_t)0x01 << (uint16_t)bitpos);
     ea0:	fee45783          	lhu	a5,-18(s0)
     ea4:	4705                	li	a4,1
     ea6:	00f717b3          	sll	a5,a4,a5
     eaa:	fef41623          	sh	a5,-20(s0)
E:/proj/riscv/Seekfree_CH32V103R8T6_Opensource_Library/Libraries/wch_Libraries/Peripheral/ch32v10x_usart.c:722
  USARTx->STATR = (uint16_t)~itmask;
     eae:	fec45783          	lhu	a5,-20(s0)
     eb2:	fff7c793          	not	a5,a5
     eb6:	01079713          	slli	a4,a5,0x10
     eba:	8341                	srli	a4,a4,0x10
     ebc:	fdc42783          	lw	a5,-36(s0)
     ec0:	00e79023          	sh	a4,0(a5)
E:/proj/riscv/Seekfree_CH32V103R8T6_Opensource_Library/Libraries/wch_Libraries/Peripheral/ch32v10x_usart.c:723
}
     ec4:	0001                	nop
     ec6:	5432                	lw	s0,44(sp)
     ec8:	6145                	addi	sp,sp,48
     eca:	8082                	ret

00000ecc <bluetooth_ch9141_uart_callback>:
bluetooth_ch9141_uart_callback():
E:/proj/riscv/Seekfree_CH32V103R8T6_Opensource_Library/Libraries/seekfree_peripheral/SEEKFREE_BLUETOOTH_CH9141.c:60
//  @since      v1.0
//  Sample usage:	
//  @note       该函数在ISR文件 串口8中断程序被调用
//-------------------------------------------------------------------------------------------------------------------
void bluetooth_ch9141_uart_callback()
{
     ecc:	1141                	addi	sp,sp,-16
     ece:	c606                	sw	ra,12(sp)
     ed0:	c422                	sw	s0,8(sp)
     ed2:	0800                	addi	s0,sp,16
E:/proj/riscv/Seekfree_CH32V103R8T6_Opensource_Library/Libraries/seekfree_peripheral/SEEKFREE_BLUETOOTH_CH9141.c:62

    if(1 == at_mode)
     ed4:	81a1c783          	lbu	a5,-2022(gp) # 2000002a <at_mode>
     ed8:	0ff7f713          	andi	a4,a5,255
     edc:	4785                	li	a5,1
     ede:	02f71e63          	bne	a4,a5,f1a <bluetooth_ch9141_uart_callback+0x4e>
E:/proj/riscv/Seekfree_CH32V103R8T6_Opensource_Library/Libraries/seekfree_peripheral/SEEKFREE_BLUETOOTH_CH9141.c:65
    {
        //进入AT模式 接收应答信号 此处if语句内代码用户不要改动
        at_mode_data[at_mode_num++] = ((USART_TypeDef*)UARTN[BLUETOOTH_CH9141_UART])->DATAR & 0x01FF;;
     ee2:	678d                	lui	a5,0x3
     ee4:	a807a783          	lw	a5,-1408(a5) # 2a80 <UARTN>
     ee8:	0047d783          	lhu	a5,4(a5)
     eec:	01079613          	slli	a2,a5,0x10
     ef0:	8241                	srli	a2,a2,0x10
     ef2:	81b1c783          	lbu	a5,-2021(gp) # 2000002b <at_mode_num>
     ef6:	0ff7f793          	andi	a5,a5,255
     efa:	00178713          	addi	a4,a5,1
     efe:	0ff77693          	andi	a3,a4,255
     f02:	80d18da3          	sb	a3,-2021(gp) # 2000002b <at_mode_num>
     f06:	86be                	mv	a3,a5
     f08:	0ff67713          	andi	a4,a2,255
     f0c:	84818793          	addi	a5,gp,-1976 # 20000058 <at_mode_data>
     f10:	97b6                	add	a5,a5,a3
     f12:	00e78023          	sb	a4,0(a5)
E:/proj/riscv/Seekfree_CH32V103R8T6_Opensource_Library/Libraries/seekfree_peripheral/SEEKFREE_BLUETOOTH_CH9141.c:66
        bluetooth_ch9141_check_response();
     f16:	20b1                	jal	f62 <bluetooth_ch9141_check_response>
E:/proj/riscv/Seekfree_CH32V103R8T6_Opensource_Library/Libraries/seekfree_peripheral/SEEKFREE_BLUETOOTH_CH9141.c:84
        uart_flag = 1;
        uart_data = ((USART_TypeDef*)UARTN[BLUETOOTH_CH9141_UART])->DATAR & 0x01FF;;
    }
        

}
     f18:	a081                	j	f58 <bluetooth_ch9141_uart_callback+0x8c>
E:/proj/riscv/Seekfree_CH32V103R8T6_Opensource_Library/Libraries/seekfree_peripheral/SEEKFREE_BLUETOOTH_CH9141.c:68
    else if(2 == at_mode)
     f1a:	81a1c783          	lbu	a5,-2022(gp) # 2000002a <at_mode>
     f1e:	0ff7f713          	andi	a4,a5,255
     f22:	4789                	li	a5,2
     f24:	00f71c63          	bne	a4,a5,f3c <bluetooth_ch9141_uart_callback+0x70>
E:/proj/riscv/Seekfree_CH32V103R8T6_Opensource_Library/Libraries/seekfree_peripheral/SEEKFREE_BLUETOOTH_CH9141.c:71
        at_mode_num++;
     f28:	81b1c783          	lbu	a5,-2021(gp) # 2000002b <at_mode_num>
     f2c:	0ff7f793          	andi	a5,a5,255
     f30:	0785                	addi	a5,a5,1
     f32:	0ff7f713          	andi	a4,a5,255
     f36:	80e18da3          	sb	a4,-2021(gp) # 2000002b <at_mode_num>
E:/proj/riscv/Seekfree_CH32V103R8T6_Opensource_Library/Libraries/seekfree_peripheral/SEEKFREE_BLUETOOTH_CH9141.c:84
}
     f3a:	a839                	j	f58 <bluetooth_ch9141_uart_callback+0x8c>
E:/proj/riscv/Seekfree_CH32V103R8T6_Opensource_Library/Libraries/seekfree_peripheral/SEEKFREE_BLUETOOTH_CH9141.c:79
        uart_flag = 1;
     f3c:	4705                	li	a4,1
     f3e:	80e18c23          	sb	a4,-2024(gp) # 20000028 <uart_flag>
E:/proj/riscv/Seekfree_CH32V103R8T6_Opensource_Library/Libraries/seekfree_peripheral/SEEKFREE_BLUETOOTH_CH9141.c:80
        uart_data = ((USART_TypeDef*)UARTN[BLUETOOTH_CH9141_UART])->DATAR & 0x01FF;;
     f42:	678d                	lui	a5,0x3
     f44:	a807a783          	lw	a5,-1408(a5) # 2a80 <UARTN>
     f48:	0047d783          	lhu	a5,4(a5)
     f4c:	07c2                	slli	a5,a5,0x10
     f4e:	83c1                	srli	a5,a5,0x10
     f50:	0ff7f713          	andi	a4,a5,255
     f54:	80e18ca3          	sb	a4,-2023(gp) # 20000029 <uart_data>
E:/proj/riscv/Seekfree_CH32V103R8T6_Opensource_Library/Libraries/seekfree_peripheral/SEEKFREE_BLUETOOTH_CH9141.c:84
}
     f58:	0001                	nop
     f5a:	40b2                	lw	ra,12(sp)
     f5c:	4422                	lw	s0,8(sp)
     f5e:	0141                	addi	sp,sp,16
     f60:	8082                	ret

00000f62 <bluetooth_ch9141_check_response>:
bluetooth_ch9141_check_response():
E:/proj/riscv/Seekfree_CH32V103R8T6_Opensource_Library/Libraries/seekfree_peripheral/SEEKFREE_BLUETOOTH_CH9141.c:95
//  @since      v1.0
//  Sample usage:	
//  @note       用户无需关心
//-------------------------------------------------------------------------------------------------------------------
void bluetooth_ch9141_check_response(void)
{
     f62:	1141                	addi	sp,sp,-16
     f64:	c606                	sw	ra,12(sp)
     f66:	c422                	sw	s0,8(sp)
     f68:	0800                	addi	s0,sp,16
E:/proj/riscv/Seekfree_CH32V103R8T6_Opensource_Library/Libraries/seekfree_peripheral/SEEKFREE_BLUETOOTH_CH9141.c:96
    if(4 <= at_mode_num)
     f6a:	81b1c783          	lbu	a5,-2021(gp) # 2000002b <at_mode_num>
     f6e:	0ff7f713          	andi	a4,a5,255
     f72:	478d                	li	a5,3
     f74:	02e7f763          	bgeu	a5,a4,fa2 <bluetooth_ch9141_check_response+0x40>
E:/proj/riscv/Seekfree_CH32V103R8T6_Opensource_Library/Libraries/seekfree_peripheral/SEEKFREE_BLUETOOTH_CH9141.c:98
    {
        if(0 == strncmp("OK\r\n", (int8 *)&at_mode_data[at_mode_num-4], 4))
     f78:	81b1c783          	lbu	a5,-2021(gp) # 2000002b <at_mode_num>
     f7c:	0ff7f793          	andi	a5,a5,255
     f80:	ffc78713          	addi	a4,a5,-4
     f84:	84818793          	addi	a5,gp,-1976 # 20000058 <at_mode_data>
     f88:	97ba                	add	a5,a5,a4
     f8a:	4611                	li	a2,4
     f8c:	85be                	mv	a1,a5
     f8e:	678d                	lui	a5,0x3
     f90:	95478513          	addi	a0,a5,-1708 # 2954 <strncmp+0x2e>
     f94:	193010ef          	jal	ra,2926 <strncmp>
     f98:	87aa                	mv	a5,a0
     f9a:	e781                	bnez	a5,fa2 <bluetooth_ch9141_check_response+0x40>
E:/proj/riscv/Seekfree_CH32V103R8T6_Opensource_Library/Libraries/seekfree_peripheral/SEEKFREE_BLUETOOTH_CH9141.c:100
        {
            at_mode_cmd_flag = 1;
     f9c:	4705                	li	a4,1
     f9e:	80e18e23          	sb	a4,-2020(gp) # 2000002c <at_mode_cmd_flag>
E:/proj/riscv/Seekfree_CH32V103R8T6_Opensource_Library/Libraries/seekfree_peripheral/SEEKFREE_BLUETOOTH_CH9141.c:103
        }
    }
}
     fa2:	0001                	nop
     fa4:	40b2                	lw	ra,12(sp)
     fa6:	4422                	lw	s0,8(sp)
     fa8:	0141                	addi	sp,sp,16
     faa:	8082                	ret

00000fac <mt9v03x_uart_callback>:
mt9v03x_uart_callback():
E:/proj/riscv/Seekfree_CH32V103R8T6_Opensource_Library/Libraries/seekfree_peripheral/SEEKFREE_MT9V03X.c:90
//  @since      v1.0
//  Sample usage:
//  @note       
//-------------------------------------------------------------------------------------------------------------------
void mt9v03x_uart_callback(void)
{
     fac:	1141                	addi	sp,sp,-16
     fae:	c622                	sw	s0,12(sp)
     fb0:	0800                	addi	s0,sp,16
E:/proj/riscv/Seekfree_CH32V103R8T6_Opensource_Library/Libraries/seekfree_peripheral/SEEKFREE_MT9V03X.c:91
    receive[receive_num] = ((USART_TypeDef*)UARTN[MT9V03X_COF_UART])->DATAR & 0x01FF;
     fb2:	678d                	lui	a5,0x3
     fb4:	a8078793          	addi	a5,a5,-1408 # 2a80 <UARTN>
     fb8:	43dc                	lw	a5,4(a5)
     fba:	0047d783          	lhu	a5,4(a5)
     fbe:	01079713          	slli	a4,a5,0x10
     fc2:	8341                	srli	a4,a4,0x10
     fc4:	8231c783          	lbu	a5,-2013(gp) # 20000033 <receive_num>
     fc8:	86be                	mv	a3,a5
     fca:	0ff77713          	andi	a4,a4,255
     fce:	82018793          	addi	a5,gp,-2016 # 20000030 <receive>
     fd2:	97b6                	add	a5,a5,a3
     fd4:	00e78023          	sb	a4,0(a5)
E:/proj/riscv/Seekfree_CH32V103R8T6_Opensource_Library/Libraries/seekfree_peripheral/SEEKFREE_MT9V03X.c:92
    receive_num++;
     fd8:	8231c783          	lbu	a5,-2013(gp) # 20000033 <receive_num>
     fdc:	0785                	addi	a5,a5,1
     fde:	0ff7f713          	andi	a4,a5,255
     fe2:	82e181a3          	sb	a4,-2013(gp) # 20000033 <receive_num>
E:/proj/riscv/Seekfree_CH32V103R8T6_Opensource_Library/Libraries/seekfree_peripheral/SEEKFREE_MT9V03X.c:94

    if(1==receive_num && 0XA5!=receive[0])  receive_num = 0;
     fe6:	8231c703          	lbu	a4,-2013(gp) # 20000033 <receive_num>
     fea:	4785                	li	a5,1
     fec:	00f71a63          	bne	a4,a5,1000 <mt9v03x_uart_callback+0x54>
E:/proj/riscv/Seekfree_CH32V103R8T6_Opensource_Library/Libraries/seekfree_peripheral/SEEKFREE_MT9V03X.c:94 (discriminator 1)
     ff0:	8201c703          	lbu	a4,-2016(gp) # 20000030 <receive>
     ff4:	0a500793          	li	a5,165
     ff8:	00f70463          	beq	a4,a5,1000 <mt9v03x_uart_callback+0x54>
E:/proj/riscv/Seekfree_CH32V103R8T6_Opensource_Library/Libraries/seekfree_peripheral/SEEKFREE_MT9V03X.c:94 (discriminator 2)
     ffc:	820181a3          	sb	zero,-2013(gp) # 20000033 <receive_num>
E:/proj/riscv/Seekfree_CH32V103R8T6_Opensource_Library/Libraries/seekfree_peripheral/SEEKFREE_MT9V03X.c:95
    if(3 == receive_num)
    1000:	8231c703          	lbu	a4,-2013(gp) # 20000033 <receive_num>
    1004:	478d                	li	a5,3
    1006:	00f71763          	bne	a4,a5,1014 <mt9v03x_uart_callback+0x68>
E:/proj/riscv/Seekfree_CH32V103R8T6_Opensource_Library/Libraries/seekfree_peripheral/SEEKFREE_MT9V03X.c:97
    {
        receive_num = 0;
    100a:	820181a3          	sb	zero,-2013(gp) # 20000033 <receive_num>
E:/proj/riscv/Seekfree_CH32V103R8T6_Opensource_Library/Libraries/seekfree_peripheral/SEEKFREE_MT9V03X.c:98
        uart_receive_flag = 1;
    100e:	4705                	li	a4,1
    1010:	82e18223          	sb	a4,-2012(gp) # 20000034 <uart_receive_flag>
E:/proj/riscv/Seekfree_CH32V103R8T6_Opensource_Library/Libraries/seekfree_peripheral/SEEKFREE_MT9V03X.c:101
    }
    
}
    1014:	0001                	nop
    1016:	4432                	lw	s0,12(sp)
    1018:	0141                	addi	sp,sp,16
    101a:	8082                	ret

0000101c <mt9v03x_vsync>:
mt9v03x_vsync():
E:/proj/riscv/Seekfree_CH32V103R8T6_Opensource_Library/Libraries/seekfree_peripheral/SEEKFREE_MT9V03X.c:376
//  @return     void
//  @since      v1.0
//  Sample usage:               在isr.c里面先创建对应的中断函数，然后调用该函数(之后别忘记清除中断标志位)
//-------------------------------------------------------------------------------------------------------------------
void mt9v03x_vsync(void)
{
    101c:	1141                	addi	sp,sp,-16
    101e:	c622                	sw	s0,12(sp)
    1020:	0800                	addi	s0,sp,16
E:/proj/riscv/Seekfree_CH32V103R8T6_Opensource_Library/Libraries/seekfree_peripheral/SEEKFREE_MT9V03X.c:379
//    if(mt9v03x_finish_flag == 0)                             //使用完成后,再采集
//    {
        MT9V03X_DMA_CH->CNTR = MT9V03X_H*MT9V03X_W;             //设置当前DMA传输的剩余数量，向下递减，该寄存器只能在DMA不工作时更改。
    1022:	400207b7          	lui	a5,0x40020
    1026:	04478793          	addi	a5,a5,68 # 40020044 <_eusrstack+0x2001b044>
    102a:	6709                	lui	a4,0x2
    102c:	4b870713          	addi	a4,a4,1208 # 24b8 <EXTI15_10_IRQHandler+0x3a>
    1030:	c3d8                	sw	a4,4(a5)
E:/proj/riscv/Seekfree_CH32V103R8T6_Opensource_Library/Libraries/seekfree_peripheral/SEEKFREE_MT9V03X.c:380
        MT9V03X_DMA_CH->CFGR |= DMA_CFGR1_EN;
    1032:	400207b7          	lui	a5,0x40020
    1036:	04478793          	addi	a5,a5,68 # 40020044 <_eusrstack+0x2001b044>
    103a:	4398                	lw	a4,0(a5)
    103c:	400207b7          	lui	a5,0x40020
    1040:	04478793          	addi	a5,a5,68 # 40020044 <_eusrstack+0x2001b044>
    1044:	00176713          	ori	a4,a4,1
    1048:	c398                	sw	a4,0(a5)
E:/proj/riscv/Seekfree_CH32V103R8T6_Opensource_Library/Libraries/seekfree_peripheral/SEEKFREE_MT9V03X.c:381
        MT9V03X_TIM->DMAINTENR |= ((uint16_t)0x4000);
    104a:	400137b7          	lui	a5,0x40013
    104e:	c0078793          	addi	a5,a5,-1024 # 40012c00 <_eusrstack+0x2000dc00>
    1052:	00c7d783          	lhu	a5,12(a5)
    1056:	01079693          	slli	a3,a5,0x10
    105a:	82c1                	srli	a3,a3,0x10
    105c:	400137b7          	lui	a5,0x40013
    1060:	c0078793          	addi	a5,a5,-1024 # 40012c00 <_eusrstack+0x2000dc00>
    1064:	6711                	lui	a4,0x4
    1066:	8f55                	or	a4,a4,a3
    1068:	0742                	slli	a4,a4,0x10
    106a:	8341                	srli	a4,a4,0x10
    106c:	00e79623          	sh	a4,12(a5)
E:/proj/riscv/Seekfree_CH32V103R8T6_Opensource_Library/Libraries/seekfree_peripheral/SEEKFREE_MT9V03X.c:383
//    }
}
    1070:	0001                	nop
    1072:	4432                	lw	s0,12(sp)
    1074:	0141                	addi	sp,sp,16
    1076:	8082                	ret

00001078 <mt9v03x_dma>:
mt9v03x_dma():
E:/proj/riscv/Seekfree_CH32V103R8T6_Opensource_Library/Libraries/seekfree_peripheral/SEEKFREE_MT9V03X.c:393
//  @return     void
//  @since      v1.0
//  Sample usage:
//-------------------------------------------------------------------------------------------------------------------
void mt9v03x_dma(void)
{
    1078:	1141                	addi	sp,sp,-16
    107a:	c622                	sw	s0,12(sp)
    107c:	0800                	addi	s0,sp,16
E:/proj/riscv/Seekfree_CH32V103R8T6_Opensource_Library/Libraries/seekfree_peripheral/SEEKFREE_MT9V03X.c:394
    mt9v03x_finish_flag = 1;//一副图像从采集开始到采集结束耗时3.8MS左右(50FPS、188*120分辨率)
    107e:	4705                	li	a4,1
    1080:	82e182a3          	sb	a4,-2011(gp) # 20000035 <mt9v03x_finish_flag>
E:/proj/riscv/Seekfree_CH32V103R8T6_Opensource_Library/Libraries/seekfree_peripheral/SEEKFREE_MT9V03X.c:395
    MT9V03X_DMA_CH->CFGR &= (uint16)(~DMA_CFGR1_EN);   //关闭DMA1
    1084:	400207b7          	lui	a5,0x40020
    1088:	04478793          	addi	a5,a5,68 # 40020044 <_eusrstack+0x2001b044>
    108c:	4394                	lw	a3,0(a5)
    108e:	400207b7          	lui	a5,0x40020
    1092:	04478793          	addi	a5,a5,68 # 40020044 <_eusrstack+0x2001b044>
    1096:	6741                	lui	a4,0x10
    1098:	1779                	addi	a4,a4,-2
    109a:	8f75                	and	a4,a4,a3
    109c:	c398                	sw	a4,0(a5)
E:/proj/riscv/Seekfree_CH32V103R8T6_Opensource_Library/Libraries/seekfree_peripheral/SEEKFREE_MT9V03X.c:396
    MT9V03X_TIM->DMAINTENR &= ~((uint16_t)0x4000);          //失能TIM触发DMA
    109e:	400137b7          	lui	a5,0x40013
    10a2:	c0078793          	addi	a5,a5,-1024 # 40012c00 <_eusrstack+0x2000dc00>
    10a6:	00c7d783          	lhu	a5,12(a5)
    10aa:	01079693          	slli	a3,a5,0x10
    10ae:	82c1                	srli	a3,a3,0x10
    10b0:	400137b7          	lui	a5,0x40013
    10b4:	c0078793          	addi	a5,a5,-1024 # 40012c00 <_eusrstack+0x2000dc00>
    10b8:	7771                	lui	a4,0xffffc
    10ba:	177d                	addi	a4,a4,-1
    10bc:	8f75                	and	a4,a4,a3
    10be:	0742                	slli	a4,a4,0x10
    10c0:	8341                	srli	a4,a4,0x10
    10c2:	00e79623          	sh	a4,12(a5)
E:/proj/riscv/Seekfree_CH32V103R8T6_Opensource_Library/Libraries/seekfree_peripheral/SEEKFREE_MT9V03X.c:397
}
    10c6:	0001                	nop
    10c8:	4432                	lw	s0,12(sp)
    10ca:	0141                	addi	sp,sp,16
    10cc:	8082                	ret

000010ce <ov7725_cof_uart_interrupt>:
ov7725_cof_uart_interrupt():
E:/proj/riscv/Seekfree_CH32V103R8T6_Opensource_Library/Libraries/seekfree_peripheral/SEEKFREE_UART_7725.c:81
//  Sample usage:
//  @note       该函数在ISR文件 串口3中断程序被调用
//-------------------------------------------------------------------------------------------------------------------

void ov7725_cof_uart_interrupt(void)
{
    10ce:	1141                	addi	sp,sp,-16
    10d0:	c622                	sw	s0,12(sp)
    10d2:	0800                	addi	s0,sp,16
E:/proj/riscv/Seekfree_CH32V103R8T6_Opensource_Library/Libraries/seekfree_peripheral/SEEKFREE_UART_7725.c:83

    ov7725_uart_receive[ov7725_uart_receive_num] = ((USART_TypeDef*)UARTN[OV7725_UART_COF_UART])->DATAR & 0x01FF;
    10d4:	678d                	lui	a5,0x3
    10d6:	a8078793          	addi	a5,a5,-1408 # 2a80 <UARTN>
    10da:	43dc                	lw	a5,4(a5)
    10dc:	0047d783          	lhu	a5,4(a5)
    10e0:	01079713          	slli	a4,a5,0x10
    10e4:	8341                	srli	a4,a4,0x10
    10e6:	82b1c783          	lbu	a5,-2005(gp) # 2000003b <ov7725_uart_receive_num>
    10ea:	86be                	mv	a3,a5
    10ec:	0ff77713          	andi	a4,a4,255
    10f0:	82818793          	addi	a5,gp,-2008 # 20000038 <ov7725_uart_receive>
    10f4:	97b6                	add	a5,a5,a3
    10f6:	00e78023          	sb	a4,0(a5)
E:/proj/riscv/Seekfree_CH32V103R8T6_Opensource_Library/Libraries/seekfree_peripheral/SEEKFREE_UART_7725.c:84
    ov7725_uart_receive_num++;
    10fa:	82b1c783          	lbu	a5,-2005(gp) # 2000003b <ov7725_uart_receive_num>
    10fe:	0785                	addi	a5,a5,1
    1100:	0ff7f713          	andi	a4,a5,255
    1104:	82e185a3          	sb	a4,-2005(gp) # 2000003b <ov7725_uart_receive_num>
E:/proj/riscv/Seekfree_CH32V103R8T6_Opensource_Library/Libraries/seekfree_peripheral/SEEKFREE_UART_7725.c:86

    if(1==ov7725_uart_receive_num && 0XA5!=ov7725_uart_receive[0])  ov7725_uart_receive_num = 0;
    1108:	82b1c703          	lbu	a4,-2005(gp) # 2000003b <ov7725_uart_receive_num>
    110c:	4785                	li	a5,1
    110e:	00f71a63          	bne	a4,a5,1122 <ov7725_cof_uart_interrupt+0x54>
E:/proj/riscv/Seekfree_CH32V103R8T6_Opensource_Library/Libraries/seekfree_peripheral/SEEKFREE_UART_7725.c:86 (discriminator 1)
    1112:	8281c703          	lbu	a4,-2008(gp) # 20000038 <ov7725_uart_receive>
    1116:	0a500793          	li	a5,165
    111a:	00f70463          	beq	a4,a5,1122 <ov7725_cof_uart_interrupt+0x54>
E:/proj/riscv/Seekfree_CH32V103R8T6_Opensource_Library/Libraries/seekfree_peripheral/SEEKFREE_UART_7725.c:86 (discriminator 2)
    111e:	820185a3          	sb	zero,-2005(gp) # 2000003b <ov7725_uart_receive_num>
E:/proj/riscv/Seekfree_CH32V103R8T6_Opensource_Library/Libraries/seekfree_peripheral/SEEKFREE_UART_7725.c:87
    if(3 == ov7725_uart_receive_num)
    1122:	82b1c703          	lbu	a4,-2005(gp) # 2000003b <ov7725_uart_receive_num>
    1126:	478d                	li	a5,3
    1128:	00f71763          	bne	a4,a5,1136 <ov7725_cof_uart_interrupt+0x68>
E:/proj/riscv/Seekfree_CH32V103R8T6_Opensource_Library/Libraries/seekfree_peripheral/SEEKFREE_UART_7725.c:89
    {
        ov7725_uart_receive_num = 0;
    112c:	820185a3          	sb	zero,-2005(gp) # 2000003b <ov7725_uart_receive_num>
E:/proj/riscv/Seekfree_CH32V103R8T6_Opensource_Library/Libraries/seekfree_peripheral/SEEKFREE_UART_7725.c:90
        ov7725_uart_receive_flag = 1;
    1130:	4705                	li	a4,1
    1132:	82e18623          	sb	a4,-2004(gp) # 2000003c <ov7725_uart_receive_flag>
E:/proj/riscv/Seekfree_CH32V103R8T6_Opensource_Library/Libraries/seekfree_peripheral/SEEKFREE_UART_7725.c:92
    }
}
    1136:	0001                	nop
    1138:	4432                	lw	s0,12(sp)
    113a:	0141                	addi	sp,sp,16
    113c:	8082                	ret

0000113e <ov7725_uart_vsync>:
ov7725_uart_vsync():
E:/proj/riscv/Seekfree_CH32V103R8T6_Opensource_Library/Libraries/seekfree_peripheral/SEEKFREE_UART_7725.c:104
//  @since      v1.0
//  Sample usage:                   在isr.c里面先创建对应的中断函数，然后调用该函数(之后别忘记清除中断标志位)
//-------------------------------------------------------------------------------------------------------------------

void ov7725_uart_vsync(void)
{
    113e:	1141                	addi	sp,sp,-16
    1140:	c622                	sw	s0,12(sp)
    1142:	0800                	addi	s0,sp,16
E:/proj/riscv/Seekfree_CH32V103R8T6_Opensource_Library/Libraries/seekfree_peripheral/SEEKFREE_UART_7725.c:107
//    if(ov7725_uart_finish_flag == 0)                             //使用完成后,再采集
//    {
        OV7725_UART_DMA_CH->CNTR = OV7725_UART_SIZE;             //设置当前DMA传输的剩余数量，向下递减，该寄存器只能在DMA不工作时更改。
    1144:	400207b7          	lui	a5,0x40020
    1148:	04478793          	addi	a5,a5,68 # 40020044 <_eusrstack+0x2001b044>
    114c:	6705                	lui	a4,0x1
    114e:	96070713          	addi	a4,a4,-1696 # 960 <__stack_size+0x160>
    1152:	c3d8                	sw	a4,4(a5)
E:/proj/riscv/Seekfree_CH32V103R8T6_Opensource_Library/Libraries/seekfree_peripheral/SEEKFREE_UART_7725.c:108
        OV7725_UART_DMA_CH->CFGR |= DMA_CFGR1_EN;                //开启DMA1
    1154:	400207b7          	lui	a5,0x40020
    1158:	04478793          	addi	a5,a5,68 # 40020044 <_eusrstack+0x2001b044>
    115c:	4398                	lw	a4,0(a5)
    115e:	400207b7          	lui	a5,0x40020
    1162:	04478793          	addi	a5,a5,68 # 40020044 <_eusrstack+0x2001b044>
    1166:	00176713          	ori	a4,a4,1
    116a:	c398                	sw	a4,0(a5)
E:/proj/riscv/Seekfree_CH32V103R8T6_Opensource_Library/Libraries/seekfree_peripheral/SEEKFREE_UART_7725.c:109
        OV7725_UART_TIM->DMAINTENR |= TIM_DMA_Trigger;           //使能TIM触发DMA
    116c:	400137b7          	lui	a5,0x40013
    1170:	c0078793          	addi	a5,a5,-1024 # 40012c00 <_eusrstack+0x2000dc00>
    1174:	00c7d783          	lhu	a5,12(a5)
    1178:	01079693          	slli	a3,a5,0x10
    117c:	82c1                	srli	a3,a3,0x10
    117e:	400137b7          	lui	a5,0x40013
    1182:	c0078793          	addi	a5,a5,-1024 # 40012c00 <_eusrstack+0x2000dc00>
    1186:	6711                	lui	a4,0x4
    1188:	8f55                	or	a4,a4,a3
    118a:	0742                	slli	a4,a4,0x10
    118c:	8341                	srli	a4,a4,0x10
    118e:	00e79623          	sh	a4,12(a5)
E:/proj/riscv/Seekfree_CH32V103R8T6_Opensource_Library/Libraries/seekfree_peripheral/SEEKFREE_UART_7725.c:111
//    }
}
    1192:	0001                	nop
    1194:	4432                	lw	s0,12(sp)
    1196:	0141                	addi	sp,sp,16
    1198:	8082                	ret

0000119a <ov7725_uart_dma>:
ov7725_uart_dma():
E:/proj/riscv/Seekfree_CH32V103R8T6_Opensource_Library/Libraries/seekfree_peripheral/SEEKFREE_UART_7725.c:122
//  @return     void
//  @since      v1.0
//  Sample usage:                   在isr.c里面先创建对应的中断函数，然后调用该函数(之后别忘记清除中断标志位)
//-------------------------------------------------------------------------------------------------------------------
void ov7725_uart_dma(void)
{
    119a:	1141                	addi	sp,sp,-16
    119c:	c622                	sw	s0,12(sp)
    119e:	0800                	addi	s0,sp,16
E:/proj/riscv/Seekfree_CH32V103R8T6_Opensource_Library/Libraries/seekfree_peripheral/SEEKFREE_UART_7725.c:123
    ov7725_uart_finish_flag = 1;                             //摄像头数据采集置1
    11a0:	4705                	li	a4,1
    11a2:	82e186a3          	sb	a4,-2003(gp) # 2000003d <ov7725_uart_finish_flag>
E:/proj/riscv/Seekfree_CH32V103R8T6_Opensource_Library/Libraries/seekfree_peripheral/SEEKFREE_UART_7725.c:124
    OV7725_UART_DMA_CH->CFGR &= (uint16)(~DMA_CFGR1_EN);     //关闭DMA1
    11a6:	400207b7          	lui	a5,0x40020
    11aa:	04478793          	addi	a5,a5,68 # 40020044 <_eusrstack+0x2001b044>
    11ae:	4394                	lw	a3,0(a5)
    11b0:	400207b7          	lui	a5,0x40020
    11b4:	04478793          	addi	a5,a5,68 # 40020044 <_eusrstack+0x2001b044>
    11b8:	6741                	lui	a4,0x10
    11ba:	1779                	addi	a4,a4,-2
    11bc:	8f75                	and	a4,a4,a3
    11be:	c398                	sw	a4,0(a5)
E:/proj/riscv/Seekfree_CH32V103R8T6_Opensource_Library/Libraries/seekfree_peripheral/SEEKFREE_UART_7725.c:125
    OV7725_UART_TIM->DMAINTENR &= ~TIM_DMA_Trigger;          //失能TIM触发DMA
    11c0:	400137b7          	lui	a5,0x40013
    11c4:	c0078793          	addi	a5,a5,-1024 # 40012c00 <_eusrstack+0x2000dc00>
    11c8:	00c7d783          	lhu	a5,12(a5)
    11cc:	01079693          	slli	a3,a5,0x10
    11d0:	82c1                	srli	a3,a3,0x10
    11d2:	400137b7          	lui	a5,0x40013
    11d6:	c0078793          	addi	a5,a5,-1024 # 40012c00 <_eusrstack+0x2000dc00>
    11da:	7771                	lui	a4,0xffffc
    11dc:	177d                	addi	a4,a4,-1
    11de:	8f75                	and	a4,a4,a3
    11e0:	0742                	slli	a4,a4,0x10
    11e2:	8341                	srli	a4,a4,0x10
    11e4:	00e79623          	sh	a4,12(a5)
E:/proj/riscv/Seekfree_CH32V103R8T6_Opensource_Library/Libraries/seekfree_peripheral/SEEKFREE_UART_7725.c:126
}
    11e8:	0001                	nop
    11ea:	4432                	lw	s0,12(sp)
    11ec:	0141                	addi	sp,sp,16
    11ee:	8082                	ret

000011f0 <wireless_uart_callback>:
wireless_uart_callback():
E:/proj/riscv/Seekfree_CH32V103R8T6_Opensource_Library/Libraries/seekfree_peripheral/SEEKFREE_WIRELESS.c:48
//  @since      v1.0
//  Sample usage:
//  @note       该函数在ISR文件 串口1中断程序被调用
//-------------------------------------------------------------------------------------------------------------------
void wireless_uart_callback(void)
{
    11f0:	1141                	addi	sp,sp,-16
    11f2:	c622                	sw	s0,12(sp)
    11f4:	0800                	addi	s0,sp,16
E:/proj/riscv/Seekfree_CH32V103R8T6_Opensource_Library/Libraries/seekfree_peripheral/SEEKFREE_WIRELESS.c:50
    //接到一个字节后单片机将会进入此处，通过在此处读取wireless_rx_buffer可以取走数据
    wireless_rx_buffer = ((USART_TypeDef*)UARTN[WIRELESS_UART])->DATAR & 0x01FF;
    11f6:	678d                	lui	a5,0x3
    11f8:	a8078793          	addi	a5,a5,-1408 # 2a80 <UARTN>
    11fc:	479c                	lw	a5,8(a5)
    11fe:	0047d783          	lhu	a5,4(a5)
    1202:	07c2                	slli	a5,a5,0x10
    1204:	83c1                	srli	a5,a5,0x10
    1206:	0ff7f713          	andi	a4,a5,255
    120a:	82e18723          	sb	a4,-2002(gp) # 2000003e <wireless_rx_buffer>
E:/proj/riscv/Seekfree_CH32V103R8T6_Opensource_Library/Libraries/seekfree_peripheral/SEEKFREE_WIRELESS.c:51
}
    120e:	0001                	nop
    1210:	4432                	lw	s0,12(sp)
    1212:	0141                	addi	sp,sp,16
    1214:	8082                	ret

00001216 <board_init>:
board_init():
E:/proj/riscv/Seekfree_CH32V103R8T6_Opensource_Library/Libraries/seekfree_libraries/board.c:9
#include "ch32v10x_gpio.h"



void board_init(void)
{
    1216:	1141                	addi	sp,sp,-16
    1218:	c606                	sw	ra,12(sp)
    121a:	c422                	sw	s0,8(sp)
    121c:	0800                	addi	s0,sp,16
E:/proj/riscv/Seekfree_CH32V103R8T6_Opensource_Library/Libraries/seekfree_libraries/board.c:10
    GPIO_DeInit(GPIOA);
    121e:	400117b7          	lui	a5,0x40011
    1222:	80078513          	addi	a0,a5,-2048 # 40010800 <_eusrstack+0x2000b800>
    1226:	8aeff0ef          	jal	ra,2d4 <GPIO_DeInit>
E:/proj/riscv/Seekfree_CH32V103R8T6_Opensource_Library/Libraries/seekfree_libraries/board.c:11
    GPIO_DeInit(GPIOB);
    122a:	400117b7          	lui	a5,0x40011
    122e:	c0078513          	addi	a0,a5,-1024 # 40010c00 <_eusrstack+0x2000bc00>
    1232:	8a2ff0ef          	jal	ra,2d4 <GPIO_DeInit>
E:/proj/riscv/Seekfree_CH32V103R8T6_Opensource_Library/Libraries/seekfree_libraries/board.c:12
    GPIO_DeInit(GPIOC);
    1236:	40011537          	lui	a0,0x40011
    123a:	89aff0ef          	jal	ra,2d4 <GPIO_DeInit>
E:/proj/riscv/Seekfree_CH32V103R8T6_Opensource_Library/Libraries/seekfree_libraries/board.c:13
    GPIO_DeInit(GPIOD);
    123e:	400117b7          	lui	a5,0x40011
    1242:	40078513          	addi	a0,a5,1024 # 40011400 <_eusrstack+0x2000c400>
    1246:	88eff0ef          	jal	ra,2d4 <GPIO_DeInit>
E:/proj/riscv/Seekfree_CH32V103R8T6_Opensource_Library/Libraries/seekfree_libraries/board.c:16

    //获取系统主频
    sys_clk = 8000000 * (((RCC->CFGR0 >> 18)&0x0F) + 2);
    124a:	400217b7          	lui	a5,0x40021
    124e:	43dc                	lw	a5,4(a5)
    1250:	83c9                	srli	a5,a5,0x12
    1252:	00f7f713          	andi	a4,a5,15
    1256:	007a17b7          	lui	a5,0x7a1
    125a:	20078793          	addi	a5,a5,512 # 7a1200 <_data_lma+0x79e5f8>
    125e:	02f70733          	mul	a4,a4,a5
    1262:	00f427b7          	lui	a5,0xf42
    1266:	40078793          	addi	a5,a5,1024 # f42400 <_data_lma+0xf3f7f8>
    126a:	973e                	add	a4,a4,a5
    126c:	82e1ac23          	sw	a4,-1992(gp) # 20000048 <sys_clk>
E:/proj/riscv/Seekfree_CH32V103R8T6_Opensource_Library/Libraries/seekfree_libraries/board.c:18
    //初始化DEBUG串口
    uart_init(DEBUG_UART, DEBUG_UART_BAUD, DEBUG_UART_TX_PIN, DEBUG_UART_RX_PIN);
    1270:	4685                	li	a3,1
    1272:	4601                	li	a2,0
    1274:	67f1                	lui	a5,0x1c
    1276:	20078593          	addi	a1,a5,512 # 1c200 <_data_lma+0x195f8>
    127a:	4501                	li	a0,0
    127c:	2b19                	jal	1792 <uart_init>
E:/proj/riscv/Seekfree_CH32V103R8T6_Opensource_Library/Libraries/seekfree_libraries/board.c:19
}
    127e:	0001                	nop
    1280:	40b2                	lw	ra,12(sp)
    1282:	4422                	lw	s0,8(sp)
    1284:	0141                	addi	sp,sp,16
    1286:	8082                	ret

00001288 <SetSysClock>:
SetSysClock():
E:/proj/riscv/Seekfree_CH32V103R8T6_Opensource_Library/Libraries/seekfree_libraries/clock_config.c:11
* Description    : Sets System clock frequency to 72MHz and configure HCLK, PCLK2 and PCLK1 prescalers.
* Input          : None
* Return         : None
*******************************************************************************************/
static void SetSysClock(void)
{
    1288:	1101                	addi	sp,sp,-32
    128a:	ce22                	sw	s0,28(sp)
    128c:	1000                	addi	s0,sp,32
E:/proj/riscv/Seekfree_CH32V103R8T6_Opensource_Library/Libraries/seekfree_libraries/clock_config.c:12
    __IO uint32_t StartUpCounter = 0, HSEStatus = 0;
    128e:	fe042623          	sw	zero,-20(s0)
    1292:	fe042423          	sw	zero,-24(s0)
E:/proj/riscv/Seekfree_CH32V103R8T6_Opensource_Library/Libraries/seekfree_libraries/clock_config.c:14

    RCC->CTLR |= ((uint32_t)RCC_HSEON);
    1296:	400217b7          	lui	a5,0x40021
    129a:	4394                	lw	a3,0(a5)
    129c:	400217b7          	lui	a5,0x40021
    12a0:	6741                	lui	a4,0x10
    12a2:	8f55                	or	a4,a4,a3
    12a4:	c398                	sw	a4,0(a5)
E:/proj/riscv/Seekfree_CH32V103R8T6_Opensource_Library/Libraries/seekfree_libraries/clock_config.c:19 (discriminator 2)

    /* Wait till HSE is ready and if Time out is reached exit */
    do
    {
        HSEStatus = RCC->CTLR & RCC_HSERDY;
    12a6:	400217b7          	lui	a5,0x40021
    12aa:	4398                	lw	a4,0(a5)
    12ac:	000207b7          	lui	a5,0x20
    12b0:	8ff9                	and	a5,a5,a4
    12b2:	fef42423          	sw	a5,-24(s0)
E:/proj/riscv/Seekfree_CH32V103R8T6_Opensource_Library/Libraries/seekfree_libraries/clock_config.c:20 (discriminator 2)
        StartUpCounter++;
    12b6:	fec42783          	lw	a5,-20(s0)
    12ba:	0785                	addi	a5,a5,1
    12bc:	fef42623          	sw	a5,-20(s0)
E:/proj/riscv/Seekfree_CH32V103R8T6_Opensource_Library/Libraries/seekfree_libraries/clock_config.c:21 (discriminator 2)
    } while((HSEStatus == 0) && (StartUpCounter != HSE_STARTUP_TIMEOUT));
    12c0:	fe842783          	lw	a5,-24(s0)
    12c4:	e799                	bnez	a5,12d2 <SetSysClock+0x4a>
E:/proj/riscv/Seekfree_CH32V103R8T6_Opensource_Library/Libraries/seekfree_libraries/clock_config.c:21 (discriminator 1)
    12c6:	fec42703          	lw	a4,-20(s0)
    12ca:	50000793          	li	a5,1280
    12ce:	fcf71ce3          	bne	a4,a5,12a6 <SetSysClock+0x1e>
E:/proj/riscv/Seekfree_CH32V103R8T6_Opensource_Library/Libraries/seekfree_libraries/clock_config.c:23

    if ((RCC->CTLR & RCC_HSERDY) != RESET)
    12d2:	400217b7          	lui	a5,0x40021
    12d6:	4398                	lw	a4,0(a5)
    12d8:	000207b7          	lui	a5,0x20
    12dc:	8ff9                	and	a5,a5,a4
    12de:	c789                	beqz	a5,12e8 <SetSysClock+0x60>
E:/proj/riscv/Seekfree_CH32V103R8T6_Opensource_Library/Libraries/seekfree_libraries/clock_config.c:25
    {
        HSEStatus = (uint32_t)0x01;
    12e0:	4785                	li	a5,1
    12e2:	fef42423          	sw	a5,-24(s0)
    12e6:	a019                	j	12ec <SetSysClock+0x64>
E:/proj/riscv/Seekfree_CH32V103R8T6_Opensource_Library/Libraries/seekfree_libraries/clock_config.c:29
    }
    else
    {
        HSEStatus = (uint32_t)0x00;
    12e8:	fe042423          	sw	zero,-24(s0)
E:/proj/riscv/Seekfree_CH32V103R8T6_Opensource_Library/Libraries/seekfree_libraries/clock_config.c:32
    }

    if (HSEStatus == (uint32_t)0x01)
    12ec:	fe842703          	lw	a4,-24(s0)
    12f0:	4785                	li	a5,1
    12f2:	0cf71763          	bne	a4,a5,13c0 <SetSysClock+0x138>
E:/proj/riscv/Seekfree_CH32V103R8T6_Opensource_Library/Libraries/seekfree_libraries/clock_config.c:35
    {
        /* Enable Prefetch Buffer */
        FLASH->ACTLR |= FLASH_ACTLR_PRFTBE;
    12f6:	400227b7          	lui	a5,0x40022
    12fa:	4398                	lw	a4,0(a5)
    12fc:	400227b7          	lui	a5,0x40022
    1300:	01076713          	ori	a4,a4,16
    1304:	c398                	sw	a4,0(a5)
E:/proj/riscv/Seekfree_CH32V103R8T6_Opensource_Library/Libraries/seekfree_libraries/clock_config.c:38

        /* Flash 2 wait state */
        FLASH->ACTLR &= (uint32_t)((uint32_t)~FLASH_ACTLR_LATENCY);
    1306:	400227b7          	lui	a5,0x40022
    130a:	4398                	lw	a4,0(a5)
    130c:	400227b7          	lui	a5,0x40022
    1310:	9b71                	andi	a4,a4,-4
    1312:	c398                	sw	a4,0(a5)
E:/proj/riscv/Seekfree_CH32V103R8T6_Opensource_Library/Libraries/seekfree_libraries/clock_config.c:39
        FLASH->ACTLR |= (uint32_t)FLASH_ACTLR_LATENCY_2;
    1314:	400227b7          	lui	a5,0x40022
    1318:	4398                	lw	a4,0(a5)
    131a:	400227b7          	lui	a5,0x40022
    131e:	00276713          	ori	a4,a4,2
    1322:	c398                	sw	a4,0(a5)
E:/proj/riscv/Seekfree_CH32V103R8T6_Opensource_Library/Libraries/seekfree_libraries/clock_config.c:42

        /* HCLK = SYSCLK */
        RCC->CFGR0 |= (uint32_t)RCC_HPRE_DIV1;
    1324:	40021737          	lui	a4,0x40021
    1328:	400217b7          	lui	a5,0x40021
    132c:	4358                	lw	a4,4(a4)
    132e:	c3d8                	sw	a4,4(a5)
E:/proj/riscv/Seekfree_CH32V103R8T6_Opensource_Library/Libraries/seekfree_libraries/clock_config.c:44
        /* PCLK2 = HCLK */
        RCC->CFGR0 |= (uint32_t)RCC_PPRE2_DIV1;
    1330:	40021737          	lui	a4,0x40021
    1334:	400217b7          	lui	a5,0x40021
    1338:	4358                	lw	a4,4(a4)
    133a:	c3d8                	sw	a4,4(a5)
E:/proj/riscv/Seekfree_CH32V103R8T6_Opensource_Library/Libraries/seekfree_libraries/clock_config.c:46
        /* PCLK1 = HCLK */
        RCC->CFGR0 |= (uint32_t)RCC_PPRE1_DIV1;
    133c:	40021737          	lui	a4,0x40021
    1340:	400217b7          	lui	a5,0x40021
    1344:	4358                	lw	a4,4(a4)
    1346:	c3d8                	sw	a4,4(a5)
E:/proj/riscv/Seekfree_CH32V103R8T6_Opensource_Library/Libraries/seekfree_libraries/clock_config.c:49


        RCC->CFGR0 &= (uint32_t)((uint32_t)~(RCC_PLLSRC | RCC_PLLXTPRE |
    1348:	400217b7          	lui	a5,0x40021
    134c:	43d4                	lw	a3,4(a5)
    134e:	400217b7          	lui	a5,0x40021
    1352:	ffc10737          	lui	a4,0xffc10
    1356:	177d                	addi	a4,a4,-1
    1358:	8f75                	and	a4,a4,a3
    135a:	c3d8                	sw	a4,4(a5)
E:/proj/riscv/Seekfree_CH32V103R8T6_Opensource_Library/Libraries/seekfree_libraries/clock_config.c:52
                                            RCC_PLLMULL));
        /*  PLL configuration: PLLCLK = HSE * ?  */
        RCC->CFGR0 |= (uint32_t)(RCC_PLLSRC_HSE | RCC_PLLMULL11);
    135c:	400217b7          	lui	a5,0x40021
    1360:	43d4                	lw	a3,4(a5)
    1362:	400217b7          	lui	a5,0x40021
    1366:	00250737          	lui	a4,0x250
    136a:	8f55                	or	a4,a4,a3
    136c:	c3d8                	sw	a4,4(a5)
E:/proj/riscv/Seekfree_CH32V103R8T6_Opensource_Library/Libraries/seekfree_libraries/clock_config.c:54
        /* Enable PLL */
        RCC->CTLR |= RCC_PLLON;
    136e:	400217b7          	lui	a5,0x40021
    1372:	4394                	lw	a3,0(a5)
    1374:	400217b7          	lui	a5,0x40021
    1378:	01000737          	lui	a4,0x1000
    137c:	8f55                	or	a4,a4,a3
    137e:	c398                	sw	a4,0(a5)
E:/proj/riscv/Seekfree_CH32V103R8T6_Opensource_Library/Libraries/seekfree_libraries/clock_config.c:56
        /* Wait till PLL is ready */
        while((RCC->CTLR & RCC_PLLRDY) == 0)
    1380:	0001                	nop
E:/proj/riscv/Seekfree_CH32V103R8T6_Opensource_Library/Libraries/seekfree_libraries/clock_config.c:56 (discriminator 1)
    1382:	400217b7          	lui	a5,0x40021
    1386:	4398                	lw	a4,0(a5)
    1388:	020007b7          	lui	a5,0x2000
    138c:	8ff9                	and	a5,a5,a4
    138e:	dbf5                	beqz	a5,1382 <SetSysClock+0xfa>
E:/proj/riscv/Seekfree_CH32V103R8T6_Opensource_Library/Libraries/seekfree_libraries/clock_config.c:60
        {
        }
        /* Select PLL as system clock source */
        RCC->CFGR0 &= (uint32_t)((uint32_t)~(RCC_SW));
    1390:	400217b7          	lui	a5,0x40021
    1394:	43d8                	lw	a4,4(a5)
    1396:	400217b7          	lui	a5,0x40021
    139a:	9b71                	andi	a4,a4,-4
    139c:	c3d8                	sw	a4,4(a5)
E:/proj/riscv/Seekfree_CH32V103R8T6_Opensource_Library/Libraries/seekfree_libraries/clock_config.c:61
        RCC->CFGR0 |= (uint32_t)RCC_SW_PLL;
    139e:	400217b7          	lui	a5,0x40021
    13a2:	43d8                	lw	a4,4(a5)
    13a4:	400217b7          	lui	a5,0x40021
    13a8:	00276713          	ori	a4,a4,2
    13ac:	c3d8                	sw	a4,4(a5)
E:/proj/riscv/Seekfree_CH32V103R8T6_Opensource_Library/Libraries/seekfree_libraries/clock_config.c:63
        /* Wait till PLL is used as system clock source */
        while ((RCC->CFGR0 & (uint32_t)RCC_SWS) != (uint32_t)0x08)
    13ae:	0001                	nop
E:/proj/riscv/Seekfree_CH32V103R8T6_Opensource_Library/Libraries/seekfree_libraries/clock_config.c:63 (discriminator 1)
    13b0:	400217b7          	lui	a5,0x40021
    13b4:	43dc                	lw	a5,4(a5)
    13b6:	00c7f713          	andi	a4,a5,12
    13ba:	47a1                	li	a5,8
    13bc:	fef71ae3          	bne	a4,a5,13b0 <SetSysClock+0x128>
E:/proj/riscv/Seekfree_CH32V103R8T6_Opensource_Library/Libraries/seekfree_libraries/clock_config.c:74
        /*
         * If HSE fails to start-up, the application will have wrong clock
     * configuration. User can add here some code to deal with this error
         */
    }
}
    13c0:	0001                	nop
    13c2:	4472                	lw	s0,28(sp)
    13c4:	6105                	addi	sp,sp,32
    13c6:	8082                	ret

000013c8 <SystemInit>:
SystemInit():
E:/proj/riscv/Seekfree_CH32V103R8T6_Opensource_Library/Libraries/seekfree_libraries/clock_config.c:84
*                  the PLL and update the SystemCoreClock variable.
* Input          : None
* Return         : None
*******************************************************************************************/
void SystemInit (void)
{
    13c8:	1141                	addi	sp,sp,-16
    13ca:	c606                	sw	ra,12(sp)
    13cc:	c422                	sw	s0,8(sp)
    13ce:	0800                	addi	s0,sp,16
E:/proj/riscv/Seekfree_CH32V103R8T6_Opensource_Library/Libraries/seekfree_libraries/clock_config.c:85
    RCC->CTLR |= (uint32_t)0x00000001;
    13d0:	400217b7          	lui	a5,0x40021
    13d4:	4398                	lw	a4,0(a5)
    13d6:	400217b7          	lui	a5,0x40021
    13da:	00176713          	ori	a4,a4,1
    13de:	c398                	sw	a4,0(a5)
E:/proj/riscv/Seekfree_CH32V103R8T6_Opensource_Library/Libraries/seekfree_libraries/clock_config.c:86
    RCC->CFGR0 &= (uint32_t)0xF8FF0000;
    13e0:	400217b7          	lui	a5,0x40021
    13e4:	43d4                	lw	a3,4(a5)
    13e6:	400217b7          	lui	a5,0x40021
    13ea:	f8ff0737          	lui	a4,0xf8ff0
    13ee:	8f75                	and	a4,a4,a3
    13f0:	c3d8                	sw	a4,4(a5)
E:/proj/riscv/Seekfree_CH32V103R8T6_Opensource_Library/Libraries/seekfree_libraries/clock_config.c:87
    RCC->CTLR &= (uint32_t)0xFEF6FFFF;
    13f2:	400217b7          	lui	a5,0x40021
    13f6:	4394                	lw	a3,0(a5)
    13f8:	400217b7          	lui	a5,0x40021
    13fc:	fef70737          	lui	a4,0xfef70
    1400:	177d                	addi	a4,a4,-1
    1402:	8f75                	and	a4,a4,a3
    1404:	c398                	sw	a4,0(a5)
E:/proj/riscv/Seekfree_CH32V103R8T6_Opensource_Library/Libraries/seekfree_libraries/clock_config.c:88
    RCC->CTLR &= (uint32_t)0xFFFBFFFF;
    1406:	400217b7          	lui	a5,0x40021
    140a:	4394                	lw	a3,0(a5)
    140c:	400217b7          	lui	a5,0x40021
    1410:	fffc0737          	lui	a4,0xfffc0
    1414:	177d                	addi	a4,a4,-1
    1416:	8f75                	and	a4,a4,a3
    1418:	c398                	sw	a4,0(a5)
E:/proj/riscv/Seekfree_CH32V103R8T6_Opensource_Library/Libraries/seekfree_libraries/clock_config.c:89
    RCC->CFGR0 &= (uint32_t)0xFF80FFFF;
    141a:	400217b7          	lui	a5,0x40021
    141e:	43d4                	lw	a3,4(a5)
    1420:	400217b7          	lui	a5,0x40021
    1424:	ff810737          	lui	a4,0xff810
    1428:	177d                	addi	a4,a4,-1
    142a:	8f75                	and	a4,a4,a3
    142c:	c3d8                	sw	a4,4(a5)
E:/proj/riscv/Seekfree_CH32V103R8T6_Opensource_Library/Libraries/seekfree_libraries/clock_config.c:90
    RCC->INTR = 0x009F0000;
    142e:	400217b7          	lui	a5,0x40021
    1432:	009f0737          	lui	a4,0x9f0
    1436:	c798                	sw	a4,8(a5)
E:/proj/riscv/Seekfree_CH32V103R8T6_Opensource_Library/Libraries/seekfree_libraries/clock_config.c:91
    SetSysClock();
    1438:	3d81                	jal	1288 <SetSysClock>
E:/proj/riscv/Seekfree_CH32V103R8T6_Opensource_Library/Libraries/seekfree_libraries/clock_config.c:92
}
    143a:	0001                	nop
    143c:	40b2                	lw	ra,12(sp)
    143e:	4422                	lw	s0,8(sp)
    1440:	0141                	addi	sp,sp,16
    1442:	8082                	ret

00001444 <gpio_init>:
gpio_init():
E:/proj/riscv/Seekfree_CH32V103R8T6_Opensource_Library/Libraries/seekfree_libraries/zf_gpio.c:40
//  @param      pinconf     引脚配置（可设置参数由zf_gpio.h文件内GPIOSPEED_enum与GPIOMODE_enum枚举值确定，多个条件使用 | 相或）
//  @return     void
//  Sample usage:           gpio_init(D0, GPO, 1, GPIO_PIN_CONFIG);//D0初始化为GPIO功能、输出模式、输出高电平、速度100MHZ 推挽输出
//-------------------------------------------------------------------------------------------------------------------
void gpio_init(PIN_enum pin, GPIODIR_enum dir, uint8 dat, uint32 pinconf)
{
    1444:	7179                	addi	sp,sp,-48
    1446:	d606                	sw	ra,44(sp)
    1448:	d422                	sw	s0,40(sp)
    144a:	1800                	addi	s0,sp,48
    144c:	fca42e23          	sw	a0,-36(s0)
    1450:	fcb42c23          	sw	a1,-40(s0)
    1454:	87b2                	mv	a5,a2
    1456:	fcd42823          	sw	a3,-48(s0)
    145a:	fcf40ba3          	sb	a5,-41(s0)
E:/proj/riscv/Seekfree_CH32V103R8T6_Opensource_Library/Libraries/seekfree_libraries/zf_gpio.c:42
    GPIO_InitTypeDef GPIO_InitStructure;
    uint8 io_group = (pin & 0xE0) >> 5;
    145e:	fdc42783          	lw	a5,-36(s0)
    1462:	8395                	srli	a5,a5,0x5
    1464:	0ff7f793          	andi	a5,a5,255
    1468:	8b9d                	andi	a5,a5,7
    146a:	fef407a3          	sb	a5,-17(s0)
E:/proj/riscv/Seekfree_CH32V103R8T6_Opensource_Library/Libraries/seekfree_libraries/zf_gpio.c:43
    uint8 io_pin = pin & 0x1F;
    146e:	fdc42783          	lw	a5,-36(s0)
    1472:	0ff7f793          	andi	a5,a5,255
    1476:	8bfd                	andi	a5,a5,31
    1478:	fef40723          	sb	a5,-18(s0)
E:/proj/riscv/Seekfree_CH32V103R8T6_Opensource_Library/Libraries/seekfree_libraries/zf_gpio.c:46


    if(PIN_NULL == pin) return;
    147c:	fdc42703          	lw	a4,-36(s0)
    1480:	08000793          	li	a5,128
    1484:	14f70d63          	beq	a4,a5,15de <gpio_init+0x19a>
E:/proj/riscv/Seekfree_CH32V103R8T6_Opensource_Library/Libraries/seekfree_libraries/zf_gpio.c:48
    //GPIO总线使能
    if(0 == (pin >> 5))      RCC_APB2PeriphClockCmd(RCC_APB2Periph_GPIOA, ENABLE);
    1488:	fdc42783          	lw	a5,-36(s0)
    148c:	8395                	srli	a5,a5,0x5
    148e:	e791                	bnez	a5,149a <gpio_init+0x56>
E:/proj/riscv/Seekfree_CH32V103R8T6_Opensource_Library/Libraries/seekfree_libraries/zf_gpio.c:48 (discriminator 1)
    1490:	4585                	li	a1,1
    1492:	4511                	li	a0,4
    1494:	ce6ff0ef          	jal	ra,97a <RCC_APB2PeriphClockCmd>
    1498:	a861                	j	1530 <gpio_init+0xec>
E:/proj/riscv/Seekfree_CH32V103R8T6_Opensource_Library/Libraries/seekfree_libraries/zf_gpio.c:49
    else if(1 == (pin >> 5)) RCC_APB2PeriphClockCmd(RCC_APB2Periph_GPIOB, ENABLE);
    149a:	fdc42783          	lw	a5,-36(s0)
    149e:	0057d713          	srli	a4,a5,0x5
    14a2:	4785                	li	a5,1
    14a4:	00f71763          	bne	a4,a5,14b2 <gpio_init+0x6e>
E:/proj/riscv/Seekfree_CH32V103R8T6_Opensource_Library/Libraries/seekfree_libraries/zf_gpio.c:49 (discriminator 1)
    14a8:	4585                	li	a1,1
    14aa:	4521                	li	a0,8
    14ac:	cceff0ef          	jal	ra,97a <RCC_APB2PeriphClockCmd>
    14b0:	a041                	j	1530 <gpio_init+0xec>
E:/proj/riscv/Seekfree_CH32V103R8T6_Opensource_Library/Libraries/seekfree_libraries/zf_gpio.c:50
    else if(2 == (pin >> 5)) RCC_APB2PeriphClockCmd(RCC_APB2Periph_GPIOC, ENABLE);
    14b2:	fdc42783          	lw	a5,-36(s0)
    14b6:	0057d713          	srli	a4,a5,0x5
    14ba:	4789                	li	a5,2
    14bc:	00f71763          	bne	a4,a5,14ca <gpio_init+0x86>
E:/proj/riscv/Seekfree_CH32V103R8T6_Opensource_Library/Libraries/seekfree_libraries/zf_gpio.c:50 (discriminator 1)
    14c0:	4585                	li	a1,1
    14c2:	4541                	li	a0,16
    14c4:	cb6ff0ef          	jal	ra,97a <RCC_APB2PeriphClockCmd>
    14c8:	a0a5                	j	1530 <gpio_init+0xec>
E:/proj/riscv/Seekfree_CH32V103R8T6_Opensource_Library/Libraries/seekfree_libraries/zf_gpio.c:51
    else if(3 == (pin >> 5)) RCC_APB2PeriphClockCmd(RCC_APB2Periph_GPIOD, ENABLE);
    14ca:	fdc42783          	lw	a5,-36(s0)
    14ce:	0057d713          	srli	a4,a5,0x5
    14d2:	478d                	li	a5,3
    14d4:	00f71863          	bne	a4,a5,14e4 <gpio_init+0xa0>
E:/proj/riscv/Seekfree_CH32V103R8T6_Opensource_Library/Libraries/seekfree_libraries/zf_gpio.c:51 (discriminator 1)
    14d8:	4585                	li	a1,1
    14da:	02000513          	li	a0,32
    14de:	c9cff0ef          	jal	ra,97a <RCC_APB2PeriphClockCmd>
    14e2:	a0b9                	j	1530 <gpio_init+0xec>
E:/proj/riscv/Seekfree_CH32V103R8T6_Opensource_Library/Libraries/seekfree_libraries/zf_gpio.c:52
    else if(4 == (pin >> 5)) RCC_APB2PeriphClockCmd(RCC_APB2Periph_GPIOE, ENABLE);
    14e4:	fdc42783          	lw	a5,-36(s0)
    14e8:	0057d713          	srli	a4,a5,0x5
    14ec:	4791                	li	a5,4
    14ee:	00f71863          	bne	a4,a5,14fe <gpio_init+0xba>
E:/proj/riscv/Seekfree_CH32V103R8T6_Opensource_Library/Libraries/seekfree_libraries/zf_gpio.c:52 (discriminator 1)
    14f2:	4585                	li	a1,1
    14f4:	04000513          	li	a0,64
    14f8:	c82ff0ef          	jal	ra,97a <RCC_APB2PeriphClockCmd>
    14fc:	a815                	j	1530 <gpio_init+0xec>
E:/proj/riscv/Seekfree_CH32V103R8T6_Opensource_Library/Libraries/seekfree_libraries/zf_gpio.c:53
    else if(5 == (pin >> 5)) RCC_APB2PeriphClockCmd(RCC_APB2Periph_GPIOF, ENABLE);
    14fe:	fdc42783          	lw	a5,-36(s0)
    1502:	0057d713          	srli	a4,a5,0x5
    1506:	4795                	li	a5,5
    1508:	00f71863          	bne	a4,a5,1518 <gpio_init+0xd4>
E:/proj/riscv/Seekfree_CH32V103R8T6_Opensource_Library/Libraries/seekfree_libraries/zf_gpio.c:53 (discriminator 1)
    150c:	4585                	li	a1,1
    150e:	08000513          	li	a0,128
    1512:	c68ff0ef          	jal	ra,97a <RCC_APB2PeriphClockCmd>
    1516:	a829                	j	1530 <gpio_init+0xec>
E:/proj/riscv/Seekfree_CH32V103R8T6_Opensource_Library/Libraries/seekfree_libraries/zf_gpio.c:54
    else if(6 == (pin >> 5)) RCC_APB2PeriphClockCmd(RCC_APB2Periph_GPIOG, ENABLE);
    1518:	fdc42783          	lw	a5,-36(s0)
    151c:	0057d713          	srli	a4,a5,0x5
    1520:	4799                	li	a5,6
    1522:	00f71763          	bne	a4,a5,1530 <gpio_init+0xec>
E:/proj/riscv/Seekfree_CH32V103R8T6_Opensource_Library/Libraries/seekfree_libraries/zf_gpio.c:54 (discriminator 1)
    1526:	4585                	li	a1,1
    1528:	10000513          	li	a0,256
    152c:	c4eff0ef          	jal	ra,97a <RCC_APB2PeriphClockCmd>
E:/proj/riscv/Seekfree_CH32V103R8T6_Opensource_Library/Libraries/seekfree_libraries/zf_gpio.c:58


    //设置引脚号
    GPIO_InitStructure.GPIO_Pin = (uint16)(1 << io_pin);
    1530:	fee44783          	lbu	a5,-18(s0)
    1534:	4705                	li	a4,1
    1536:	00f717b3          	sll	a5,a4,a5
    153a:	07c2                	slli	a5,a5,0x10
    153c:	83c1                	srli	a5,a5,0x10
    153e:	fef41023          	sh	a5,-32(s0)
E:/proj/riscv/Seekfree_CH32V103R8T6_Opensource_Library/Libraries/seekfree_libraries/zf_gpio.c:60

    if(GPO == dir)
    1542:	fd842703          	lw	a4,-40(s0)
    1546:	4785                	li	a5,1
    1548:	02f71763          	bne	a4,a5,1576 <gpio_init+0x132>
E:/proj/riscv/Seekfree_CH32V103R8T6_Opensource_Library/Libraries/seekfree_libraries/zf_gpio.c:63
    {
        //只有输出需要设置速度
        if((uint16)pinconf >> 8 == 0) GPIO_InitStructure.GPIO_Speed = (GPIOSpeed_TypeDef)(GPIO_Speed_50MHz);  //防止没有填写这个参数,默认设置50Mhz
    154c:	fd042783          	lw	a5,-48(s0)
    1550:	07c2                	slli	a5,a5,0x10
    1552:	83c1                	srli	a5,a5,0x10
    1554:	83a1                	srli	a5,a5,0x8
    1556:	07c2                	slli	a5,a5,0x10
    1558:	83c1                	srli	a5,a5,0x10
    155a:	e789                	bnez	a5,1564 <gpio_init+0x120>
E:/proj/riscv/Seekfree_CH32V103R8T6_Opensource_Library/Libraries/seekfree_libraries/zf_gpio.c:63 (discriminator 1)
    155c:	478d                	li	a5,3
    155e:	fef42223          	sw	a5,-28(s0)
    1562:	a811                	j	1576 <gpio_init+0x132>
E:/proj/riscv/Seekfree_CH32V103R8T6_Opensource_Library/Libraries/seekfree_libraries/zf_gpio.c:64
        else GPIO_InitStructure.GPIO_Speed = (GPIOSpeed_TypeDef)((uint16)pinconf >> 8);                       //已经填写了该参数。根据值来设置
    1564:	fd042783          	lw	a5,-48(s0)
    1568:	07c2                	slli	a5,a5,0x10
    156a:	83c1                	srli	a5,a5,0x10
    156c:	83a1                	srli	a5,a5,0x8
    156e:	07c2                	slli	a5,a5,0x10
    1570:	83c1                	srli	a5,a5,0x10
    1572:	fef42223          	sw	a5,-28(s0)
E:/proj/riscv/Seekfree_CH32V103R8T6_Opensource_Library/Libraries/seekfree_libraries/zf_gpio.c:68
    }

    //设置模式
    GPIO_InitStructure.GPIO_Mode = (GPIOMode_TypeDef)((uint16)pinconf & 0xff);
    1576:	fd042783          	lw	a5,-48(s0)
    157a:	07c2                	slli	a5,a5,0x10
    157c:	83c1                	srli	a5,a5,0x10
    157e:	0ff7f793          	andi	a5,a5,255
    1582:	fef42423          	sw	a5,-24(s0)
E:/proj/riscv/Seekfree_CH32V103R8T6_Opensource_Library/Libraries/seekfree_libraries/zf_gpio.c:69
    GPIO_Init((GPIO_TypeDef *)(GPION[io_group]), &GPIO_InitStructure);
    1586:	fef44703          	lbu	a4,-17(s0)
    158a:	678d                	lui	a5,0x3
    158c:	070a                	slli	a4,a4,0x2
    158e:	a7078793          	addi	a5,a5,-1424 # 2a70 <GPION>
    1592:	97ba                	add	a5,a5,a4
    1594:	439c                	lw	a5,0(a5)
    1596:	873e                	mv	a4,a5
    1598:	fe040793          	addi	a5,s0,-32
    159c:	85be                	mv	a1,a5
    159e:	853a                	mv	a0,a4
    15a0:	e23fe0ef          	jal	ra,3c2 <GPIO_Init>
E:/proj/riscv/Seekfree_CH32V103R8T6_Opensource_Library/Libraries/seekfree_libraries/zf_gpio.c:71

    if(GPO == dir)
    15a4:	fd842703          	lw	a4,-40(s0)
    15a8:	4785                	li	a5,1
    15aa:	02f71b63          	bne	a4,a5,15e0 <gpio_init+0x19c>
E:/proj/riscv/Seekfree_CH32V103R8T6_Opensource_Library/Libraries/seekfree_libraries/zf_gpio.c:74
    {
        //只有输出需要设置引脚状态
        GPIO_WriteBit((GPIO_TypeDef *)(GPION[io_group]), (uint16)(1 << io_pin), dat);
    15ae:	fef44703          	lbu	a4,-17(s0)
    15b2:	678d                	lui	a5,0x3
    15b4:	070a                	slli	a4,a4,0x2
    15b6:	a7078793          	addi	a5,a5,-1424 # 2a70 <GPION>
    15ba:	97ba                	add	a5,a5,a4
    15bc:	439c                	lw	a5,0(a5)
    15be:	86be                	mv	a3,a5
    15c0:	fee44783          	lbu	a5,-18(s0)
    15c4:	4705                	li	a4,1
    15c6:	00f717b3          	sll	a5,a4,a5
    15ca:	07c2                	slli	a5,a5,0x10
    15cc:	83c1                	srli	a5,a5,0x10
    15ce:	fd744703          	lbu	a4,-41(s0)
    15d2:	863a                	mv	a2,a4
    15d4:	85be                	mv	a1,a5
    15d6:	8536                	mv	a0,a3
    15d8:	814ff0ef          	jal	ra,5ec <GPIO_WriteBit>
    15dc:	a011                	j	15e0 <gpio_init+0x19c>
E:/proj/riscv/Seekfree_CH32V103R8T6_Opensource_Library/Libraries/seekfree_libraries/zf_gpio.c:46
    if(PIN_NULL == pin) return;
    15de:	0001                	nop
E:/proj/riscv/Seekfree_CH32V103R8T6_Opensource_Library/Libraries/seekfree_libraries/zf_gpio.c:76
    }
}
    15e0:	50b2                	lw	ra,44(sp)
    15e2:	5422                	lw	s0,40(sp)
    15e4:	6145                	addi	sp,sp,48
    15e6:	8082                	ret

000015e8 <DisableGlobalIRQ>:
DisableGlobalIRQ():
E:/proj/riscv/Seekfree_CH32V103R8T6_Opensource_Library/Libraries/seekfree_libraries/zf_nvic.c:89
//  @return     void
//  @since      v1.0
//  Sample usage:
//-------------------------------------------------------------------------------------------------------------------
uint32 DisableGlobalIRQ(void)
{
    15e8:	1141                	addi	sp,sp,-16
    15ea:	c606                	sw	ra,12(sp)
    15ec:	c422                	sw	s0,8(sp)
    15ee:	0800                	addi	s0,sp,16
E:/proj/riscv/Seekfree_CH32V103R8T6_Opensource_Library/Libraries/seekfree_libraries/zf_nvic.c:99
//    close_all_irq();
//    return state;

    extern uint32 interrupt_disable();
    //返回当前mstatus寄存器的值
    return interrupt_disable();
    15f0:	b51fe0ef          	jal	ra,140 <interrupt_disable>
    15f4:	87aa                	mv	a5,a0
E:/proj/riscv/Seekfree_CH32V103R8T6_Opensource_Library/Libraries/seekfree_libraries/zf_nvic.c:100
}
    15f6:	853e                	mv	a0,a5
    15f8:	40b2                	lw	ra,12(sp)
    15fa:	4422                	lw	s0,8(sp)
    15fc:	0141                	addi	sp,sp,16
    15fe:	8082                	ret

00001600 <EnableGlobalIRQ>:
EnableGlobalIRQ():
E:/proj/riscv/Seekfree_CH32V103R8T6_Opensource_Library/Libraries/seekfree_libraries/zf_nvic.c:110
//  @return     void
//  @since      v1.0
//  Sample usage:
//-------------------------------------------------------------------------------------------------------------------
void EnableGlobalIRQ(uint8 state)
{
    1600:	1101                	addi	sp,sp,-32
    1602:	ce06                	sw	ra,28(sp)
    1604:	cc22                	sw	s0,24(sp)
    1606:	1000                	addi	s0,sp,32
    1608:	87aa                	mv	a5,a0
    160a:	fef407a3          	sb	a5,-17(s0)
E:/proj/riscv/Seekfree_CH32V103R8T6_Opensource_Library/Libraries/seekfree_libraries/zf_nvic.c:116
//    if(state == 0)
//    {
//        irq_status.flag = 0;
//        sys_recover_irq();
//    }
    if(state == 0)
    160e:	fef44783          	lbu	a5,-17(s0)
    1612:	e789                	bnez	a5,161c <EnableGlobalIRQ+0x1c>
E:/proj/riscv/Seekfree_CH32V103R8T6_Opensource_Library/Libraries/seekfree_libraries/zf_nvic.c:119
    {
        extern void interrupt_enable(long);
        interrupt_enable(0x88);
    1614:	08800513          	li	a0,136
    1618:	b2ffe0ef          	jal	ra,146 <interrupt_enable>
E:/proj/riscv/Seekfree_CH32V103R8T6_Opensource_Library/Libraries/seekfree_libraries/zf_nvic.c:121
    }
}
    161c:	0001                	nop
    161e:	40f2                	lw	ra,28(sp)
    1620:	4462                	lw	s0,24(sp)
    1622:	6105                	addi	sp,sp,32
    1624:	8082                	ret

00001626 <systick_delay>:
systick_delay():
E:/proj/riscv/Seekfree_CH32V103R8T6_Opensource_Library/Libraries/seekfree_libraries/zf_systick.c:29
//  @param      time                us
//  @return     void
//  Sample usage:                   内部使用，用户无需关心
//-------------------------------------------------------------------------------------------------------------------
void systick_delay(uint64 time)
{
    1626:	1101                	addi	sp,sp,-32
    1628:	ce22                	sw	s0,28(sp)
    162a:	1000                	addi	s0,sp,32
    162c:	fea42423          	sw	a0,-24(s0)
    1630:	feb42623          	sw	a1,-20(s0)
E:/proj/riscv/Seekfree_CH32V103R8T6_Opensource_Library/Libraries/seekfree_libraries/zf_systick.c:30
    SysTick->CTLR = 0;
    1634:	e000f737          	lui	a4,0xe000f
    1638:	00072023          	sw	zero,0(a4) # e000f000 <_eusrstack+0xc000a000>
E:/proj/riscv/Seekfree_CH32V103R8T6_Opensource_Library/Libraries/seekfree_libraries/zf_systick.c:31
    SysTick->CNTL0 = 0;
    163c:	e000f737          	lui	a4,0xe000f
    1640:	00070223          	sb	zero,4(a4) # e000f004 <_eusrstack+0xc000a004>
E:/proj/riscv/Seekfree_CH32V103R8T6_Opensource_Library/Libraries/seekfree_libraries/zf_systick.c:32
    SysTick->CNTL1 = 0;
    1644:	e000f737          	lui	a4,0xe000f
    1648:	000702a3          	sb	zero,5(a4) # e000f005 <_eusrstack+0xc000a005>
E:/proj/riscv/Seekfree_CH32V103R8T6_Opensource_Library/Libraries/seekfree_libraries/zf_systick.c:33
    SysTick->CNTL2 = 0;
    164c:	e000f737          	lui	a4,0xe000f
    1650:	00070323          	sb	zero,6(a4) # e000f006 <_eusrstack+0xc000a006>
E:/proj/riscv/Seekfree_CH32V103R8T6_Opensource_Library/Libraries/seekfree_libraries/zf_systick.c:34
    SysTick->CNTL3 = 0;
    1654:	e000f737          	lui	a4,0xe000f
    1658:	000703a3          	sb	zero,7(a4) # e000f007 <_eusrstack+0xc000a007>
E:/proj/riscv/Seekfree_CH32V103R8T6_Opensource_Library/Libraries/seekfree_libraries/zf_systick.c:35
    SysTick->CNTH0 = 0;
    165c:	e000f737          	lui	a4,0xe000f
    1660:	00070423          	sb	zero,8(a4) # e000f008 <_eusrstack+0xc000a008>
E:/proj/riscv/Seekfree_CH32V103R8T6_Opensource_Library/Libraries/seekfree_libraries/zf_systick.c:36
    SysTick->CNTH1 = 0;
    1664:	e000f737          	lui	a4,0xe000f
    1668:	000704a3          	sb	zero,9(a4) # e000f009 <_eusrstack+0xc000a009>
E:/proj/riscv/Seekfree_CH32V103R8T6_Opensource_Library/Libraries/seekfree_libraries/zf_systick.c:37
    SysTick->CNTH2 = 0;
    166c:	e000f737          	lui	a4,0xe000f
    1670:	00070523          	sb	zero,10(a4) # e000f00a <_eusrstack+0xc000a00a>
E:/proj/riscv/Seekfree_CH32V103R8T6_Opensource_Library/Libraries/seekfree_libraries/zf_systick.c:38
    SysTick->CNTH3 = 0;
    1674:	e000f737          	lui	a4,0xe000f
    1678:	000705a3          	sb	zero,11(a4) # e000f00b <_eusrstack+0xc000a00b>
E:/proj/riscv/Seekfree_CH32V103R8T6_Opensource_Library/Libraries/seekfree_libraries/zf_systick.c:39
    SysTick->CTLR = 1;          //启动系统计数器 systick（HCLK/8 时基） us
    167c:	e000f737          	lui	a4,0xe000f
    1680:	4685                	li	a3,1
    1682:	c314                	sw	a3,0(a4)
E:/proj/riscv/Seekfree_CH32V103R8T6_Opensource_Library/Libraries/seekfree_libraries/zf_systick.c:41

    while((*(volatile uint32*)0xE000F004) <= time);
    1684:	0001                	nop
E:/proj/riscv/Seekfree_CH32V103R8T6_Opensource_Library/Libraries/seekfree_libraries/zf_systick.c:41 (discriminator 1)
    1686:	e000f737          	lui	a4,0xe000f
    168a:	0711                	addi	a4,a4,4
    168c:	4318                	lw	a4,0(a4)
    168e:	87ba                	mv	a5,a4
    1690:	4801                	li	a6,0
    1692:	fec42703          	lw	a4,-20(s0)
    1696:	86c2                	mv	a3,a6
    1698:	00d76d63          	bltu	a4,a3,16b2 <systick_delay+0x8c>
    169c:	fec42703          	lw	a4,-20(s0)
    16a0:	86c2                	mv	a3,a6
    16a2:	fed712e3          	bne	a4,a3,1686 <systick_delay+0x60>
    16a6:	fe842703          	lw	a4,-24(s0)
    16aa:	86be                	mv	a3,a5
    16ac:	00d76363          	bltu	a4,a3,16b2 <systick_delay+0x8c>
    16b0:	bfd9                	j	1686 <systick_delay+0x60>
E:/proj/riscv/Seekfree_CH32V103R8T6_Opensource_Library/Libraries/seekfree_libraries/zf_systick.c:42
}
    16b2:	0001                	nop
    16b4:	4472                	lw	s0,28(sp)
    16b6:	6105                	addi	sp,sp,32
    16b8:	8082                	ret

000016ba <uart_gpio_init>:
uart_gpio_init():
E:/proj/riscv/Seekfree_CH32V103R8T6_Opensource_Library/Libraries/seekfree_libraries/zf_uart.c:38
//  @param      rx_pin      串口接收引脚号
//  @return     void
//  Sample usage:           内部使用，用户无需关心
//-------------------------------------------------------------------------------------------------------------------
void uart_gpio_init(UARTPIN_enum tx_pin, UARTPIN_enum rx_pin)
{
    16ba:	1101                	addi	sp,sp,-32
    16bc:	ce06                	sw	ra,28(sp)
    16be:	cc22                	sw	s0,24(sp)
    16c0:	1000                	addi	s0,sp,32
    16c2:	fea42623          	sw	a0,-20(s0)
    16c6:	feb42423          	sw	a1,-24(s0)
E:/proj/riscv/Seekfree_CH32V103R8T6_Opensource_Library/Libraries/seekfree_libraries/zf_uart.c:39
    if(tx_pin == UART1_TX_A9 && rx_pin == UART1_RX_A10)
    16ca:	fec42783          	lw	a5,-20(s0)
    16ce:	e395                	bnez	a5,16f2 <uart_gpio_init+0x38>
E:/proj/riscv/Seekfree_CH32V103R8T6_Opensource_Library/Libraries/seekfree_libraries/zf_uart.c:39 (discriminator 1)
    16d0:	fe842703          	lw	a4,-24(s0)
    16d4:	4785                	li	a5,1
    16d6:	00f71e63          	bne	a4,a5,16f2 <uart_gpio_init+0x38>
E:/proj/riscv/Seekfree_CH32V103R8T6_Opensource_Library/Libraries/seekfree_libraries/zf_uart.c:41
    {
        gpio_init(A9, GPO, 0, SPEED_50MHZ|OUT_AF_PP);
    16da:	31800693          	li	a3,792
    16de:	4601                	li	a2,0
    16e0:	4585                	li	a1,1
    16e2:	4525                	li	a0,9
    16e4:	3385                	jal	1444 <gpio_init>
E:/proj/riscv/Seekfree_CH32V103R8T6_Opensource_Library/Libraries/seekfree_libraries/zf_uart.c:42
        gpio_init(A10, GPI, 0, IN_FLOAT);
    16e6:	4691                	li	a3,4
    16e8:	4601                	li	a2,0
    16ea:	4581                	li	a1,0
    16ec:	4529                	li	a0,10
    16ee:	3b99                	jal	1444 <gpio_init>
E:/proj/riscv/Seekfree_CH32V103R8T6_Opensource_Library/Libraries/seekfree_libraries/zf_uart.c:67
    else if(tx_pin == UART3_TX_C10)
    {
        gpio_init(C10, GPO, 0, SPEED_50MHZ|OUT_AF_PP);
        gpio_init(C11, GPI, 0, IN_FLOAT);
    }
}
    16f0:	a861                	j	1788 <uart_gpio_init+0xce>
E:/proj/riscv/Seekfree_CH32V103R8T6_Opensource_Library/Libraries/seekfree_libraries/zf_uart.c:44
    else if(tx_pin == UART1_TX_B6)
    16f2:	fec42703          	lw	a4,-20(s0)
    16f6:	4789                	li	a5,2
    16f8:	02f71063          	bne	a4,a5,1718 <uart_gpio_init+0x5e>
E:/proj/riscv/Seekfree_CH32V103R8T6_Opensource_Library/Libraries/seekfree_libraries/zf_uart.c:46
        gpio_init(B6, GPO, 0, SPEED_50MHZ|OUT_AF_PP);
    16fc:	31800693          	li	a3,792
    1700:	4601                	li	a2,0
    1702:	4585                	li	a1,1
    1704:	02600513          	li	a0,38
    1708:	3b35                	jal	1444 <gpio_init>
E:/proj/riscv/Seekfree_CH32V103R8T6_Opensource_Library/Libraries/seekfree_libraries/zf_uart.c:47
        gpio_init(B7, GPI, 0, IN_FLOAT);
    170a:	4691                	li	a3,4
    170c:	4601                	li	a2,0
    170e:	4581                	li	a1,0
    1710:	02700513          	li	a0,39
    1714:	3b05                	jal	1444 <gpio_init>
E:/proj/riscv/Seekfree_CH32V103R8T6_Opensource_Library/Libraries/seekfree_libraries/zf_uart.c:67
}
    1716:	a88d                	j	1788 <uart_gpio_init+0xce>
E:/proj/riscv/Seekfree_CH32V103R8T6_Opensource_Library/Libraries/seekfree_libraries/zf_uart.c:50
    else if(tx_pin == UART2_TX_A2)
    1718:	fec42703          	lw	a4,-20(s0)
    171c:	47c1                	li	a5,16
    171e:	00f71e63          	bne	a4,a5,173a <uart_gpio_init+0x80>
E:/proj/riscv/Seekfree_CH32V103R8T6_Opensource_Library/Libraries/seekfree_libraries/zf_uart.c:52
        gpio_init(A2, GPO, 0, SPEED_50MHZ|OUT_AF_PP);
    1722:	31800693          	li	a3,792
    1726:	4601                	li	a2,0
    1728:	4585                	li	a1,1
    172a:	4509                	li	a0,2
    172c:	3b21                	jal	1444 <gpio_init>
E:/proj/riscv/Seekfree_CH32V103R8T6_Opensource_Library/Libraries/seekfree_libraries/zf_uart.c:53
        gpio_init(A3, GPI, 0, IN_FLOAT);
    172e:	4691                	li	a3,4
    1730:	4601                	li	a2,0
    1732:	4581                	li	a1,0
    1734:	450d                	li	a0,3
    1736:	3339                	jal	1444 <gpio_init>
E:/proj/riscv/Seekfree_CH32V103R8T6_Opensource_Library/Libraries/seekfree_libraries/zf_uart.c:67
}
    1738:	a881                	j	1788 <uart_gpio_init+0xce>
E:/proj/riscv/Seekfree_CH32V103R8T6_Opensource_Library/Libraries/seekfree_libraries/zf_uart.c:56
    else if(tx_pin == UART3_TX_B10)
    173a:	fec42703          	lw	a4,-20(s0)
    173e:	02000793          	li	a5,32
    1742:	02f71063          	bne	a4,a5,1762 <uart_gpio_init+0xa8>
E:/proj/riscv/Seekfree_CH32V103R8T6_Opensource_Library/Libraries/seekfree_libraries/zf_uart.c:58
        gpio_init(B10, GPO, 0, SPEED_50MHZ|OUT_AF_PP);
    1746:	31800693          	li	a3,792
    174a:	4601                	li	a2,0
    174c:	4585                	li	a1,1
    174e:	02a00513          	li	a0,42
    1752:	39cd                	jal	1444 <gpio_init>
E:/proj/riscv/Seekfree_CH32V103R8T6_Opensource_Library/Libraries/seekfree_libraries/zf_uart.c:59
        gpio_init(B11, GPI, 0, IN_FLOAT);
    1754:	4691                	li	a3,4
    1756:	4601                	li	a2,0
    1758:	4581                	li	a1,0
    175a:	02b00513          	li	a0,43
    175e:	31dd                	jal	1444 <gpio_init>
E:/proj/riscv/Seekfree_CH32V103R8T6_Opensource_Library/Libraries/seekfree_libraries/zf_uart.c:67
}
    1760:	a025                	j	1788 <uart_gpio_init+0xce>
E:/proj/riscv/Seekfree_CH32V103R8T6_Opensource_Library/Libraries/seekfree_libraries/zf_uart.c:62
    else if(tx_pin == UART3_TX_C10)
    1762:	fec42703          	lw	a4,-20(s0)
    1766:	02200793          	li	a5,34
    176a:	00f71f63          	bne	a4,a5,1788 <uart_gpio_init+0xce>
E:/proj/riscv/Seekfree_CH32V103R8T6_Opensource_Library/Libraries/seekfree_libraries/zf_uart.c:64
        gpio_init(C10, GPO, 0, SPEED_50MHZ|OUT_AF_PP);
    176e:	31800693          	li	a3,792
    1772:	4601                	li	a2,0
    1774:	4585                	li	a1,1
    1776:	04a00513          	li	a0,74
    177a:	31e9                	jal	1444 <gpio_init>
E:/proj/riscv/Seekfree_CH32V103R8T6_Opensource_Library/Libraries/seekfree_libraries/zf_uart.c:65
        gpio_init(C11, GPI, 0, IN_FLOAT);
    177c:	4691                	li	a3,4
    177e:	4601                	li	a2,0
    1780:	4581                	li	a1,0
    1782:	04b00513          	li	a0,75
    1786:	397d                	jal	1444 <gpio_init>
E:/proj/riscv/Seekfree_CH32V103R8T6_Opensource_Library/Libraries/seekfree_libraries/zf_uart.c:67
}
    1788:	0001                	nop
    178a:	40f2                	lw	ra,28(sp)
    178c:	4462                	lw	s0,24(sp)
    178e:	6105                	addi	sp,sp,32
    1790:	8082                	ret

00001792 <uart_init>:
uart_init():
E:/proj/riscv/Seekfree_CH32V103R8T6_Opensource_Library/Libraries/seekfree_libraries/zf_uart.c:79
//  @param      rx_pin      串口接收引脚号
//  @return     void
//  Sample usage:           uart_init(UART_1, 115200, UART1_TX_A9, UART1_RX_A10); //串口1初始化引脚号,TX为A9,RX为A10
//-------------------------------------------------------------------------------------------------------------------
void uart_init(UARTN_enum uartn, uint32 baud, UARTPIN_enum tx_pin, UARTPIN_enum rx_pin)
{
    1792:	7179                	addi	sp,sp,-48
    1794:	d606                	sw	ra,44(sp)
    1796:	d422                	sw	s0,40(sp)
    1798:	1800                	addi	s0,sp,48
    179a:	fca42e23          	sw	a0,-36(s0)
    179e:	fcb42c23          	sw	a1,-40(s0)
    17a2:	fcc42a23          	sw	a2,-44(s0)
    17a6:	fcd42823          	sw	a3,-48(s0)
E:/proj/riscv/Seekfree_CH32V103R8T6_Opensource_Library/Libraries/seekfree_libraries/zf_uart.c:83
    USART_InitTypeDef USART_InitStructure;


    RCC_APB2PeriphClockCmd(RCC_APB2Periph_AFIO, ENABLE);
    17aa:	4585                	li	a1,1
    17ac:	4505                	li	a0,1
    17ae:	9ccff0ef          	jal	ra,97a <RCC_APB2PeriphClockCmd>
E:/proj/riscv/Seekfree_CH32V103R8T6_Opensource_Library/Libraries/seekfree_libraries/zf_uart.c:86

    //引脚初始化
    uart_gpio_init(tx_pin, rx_pin);
    17b2:	fd042583          	lw	a1,-48(s0)
    17b6:	fd442503          	lw	a0,-44(s0)
    17ba:	3701                	jal	16ba <uart_gpio_init>
E:/proj/riscv/Seekfree_CH32V103R8T6_Opensource_Library/Libraries/seekfree_libraries/zf_uart.c:88

    if(UART1_TX_B6 == tx_pin && UART1_RX_B7 == rx_pin)                         //引脚重映射
    17bc:	fd442703          	lw	a4,-44(s0)
    17c0:	4789                	li	a5,2
    17c2:	00f71b63          	bne	a4,a5,17d8 <uart_init+0x46>
E:/proj/riscv/Seekfree_CH32V103R8T6_Opensource_Library/Libraries/seekfree_libraries/zf_uart.c:88 (discriminator 1)
    17c6:	fd042703          	lw	a4,-48(s0)
    17ca:	478d                	li	a5,3
    17cc:	00f71663          	bne	a4,a5,17d8 <uart_init+0x46>
E:/proj/riscv/Seekfree_CH32V103R8T6_Opensource_Library/Libraries/seekfree_libraries/zf_uart.c:89
        GPIO_PinRemapConfig(GPIO_Remap_USART1, ENABLE);
    17d0:	4585                	li	a1,1
    17d2:	4511                	li	a0,4
    17d4:	e51fe0ef          	jal	ra,624 <GPIO_PinRemapConfig>
E:/proj/riscv/Seekfree_CH32V103R8T6_Opensource_Library/Libraries/seekfree_libraries/zf_uart.c:90
    if(UART3_TX_C10 == tx_pin && UART3_RX_C11 == rx_pin)
    17d8:	fd442703          	lw	a4,-44(s0)
    17dc:	02200793          	li	a5,34
    17e0:	00f71f63          	bne	a4,a5,17fe <uart_init+0x6c>
E:/proj/riscv/Seekfree_CH32V103R8T6_Opensource_Library/Libraries/seekfree_libraries/zf_uart.c:90 (discriminator 1)
    17e4:	fd042703          	lw	a4,-48(s0)
    17e8:	02300793          	li	a5,35
    17ec:	00f71963          	bne	a4,a5,17fe <uart_init+0x6c>
E:/proj/riscv/Seekfree_CH32V103R8T6_Opensource_Library/Libraries/seekfree_libraries/zf_uart.c:91
        GPIO_PinRemapConfig(GPIO_PartialRemap_USART3, ENABLE);
    17f0:	4585                	li	a1,1
    17f2:	001407b7          	lui	a5,0x140
    17f6:	01078513          	addi	a0,a5,16 # 140010 <_data_lma+0x13d408>
    17fa:	e2bfe0ef          	jal	ra,624 <GPIO_PinRemapConfig>
E:/proj/riscv/Seekfree_CH32V103R8T6_Opensource_Library/Libraries/seekfree_libraries/zf_uart.c:94

    //串口总线使能
    if(UART_1 == uartn) RCC_APB2PeriphClockCmd(RCC_APB2Periph_USART1, ENABLE);
    17fe:	fdc42783          	lw	a5,-36(s0)
    1802:	e791                	bnez	a5,180e <uart_init+0x7c>
E:/proj/riscv/Seekfree_CH32V103R8T6_Opensource_Library/Libraries/seekfree_libraries/zf_uart.c:94 (discriminator 1)
    1804:	4585                	li	a1,1
    1806:	6511                	lui	a0,0x4
    1808:	972ff0ef          	jal	ra,97a <RCC_APB2PeriphClockCmd>
    180c:	a035                	j	1838 <uart_init+0xa6>
E:/proj/riscv/Seekfree_CH32V103R8T6_Opensource_Library/Libraries/seekfree_libraries/zf_uart.c:95
    else if(UART_2 == uartn) RCC_APB1PeriphClockCmd(RCC_APB1Periph_USART2, ENABLE);
    180e:	fdc42703          	lw	a4,-36(s0)
    1812:	4785                	li	a5,1
    1814:	00f71863          	bne	a4,a5,1824 <uart_init+0x92>
E:/proj/riscv/Seekfree_CH32V103R8T6_Opensource_Library/Libraries/seekfree_libraries/zf_uart.c:95 (discriminator 1)
    1818:	4585                	li	a1,1
    181a:	00020537          	lui	a0,0x20
    181e:	9a2ff0ef          	jal	ra,9c0 <RCC_APB1PeriphClockCmd>
    1822:	a819                	j	1838 <uart_init+0xa6>
E:/proj/riscv/Seekfree_CH32V103R8T6_Opensource_Library/Libraries/seekfree_libraries/zf_uart.c:96
    else if(UART_3 == uartn) RCC_APB1PeriphClockCmd(RCC_APB1Periph_USART3, ENABLE);
    1824:	fdc42703          	lw	a4,-36(s0)
    1828:	4789                	li	a5,2
    182a:	00f71763          	bne	a4,a5,1838 <uart_init+0xa6>
E:/proj/riscv/Seekfree_CH32V103R8T6_Opensource_Library/Libraries/seekfree_libraries/zf_uart.c:96 (discriminator 1)
    182e:	4585                	li	a1,1
    1830:	00040537          	lui	a0,0x40
    1834:	98cff0ef          	jal	ra,9c0 <RCC_APB1PeriphClockCmd>
E:/proj/riscv/Seekfree_CH32V103R8T6_Opensource_Library/Libraries/seekfree_libraries/zf_uart.c:99

    //串口参数配置
    USART_InitStructure.USART_BaudRate = baud;
    1838:	fd842783          	lw	a5,-40(s0)
    183c:	fef42023          	sw	a5,-32(s0)
E:/proj/riscv/Seekfree_CH32V103R8T6_Opensource_Library/Libraries/seekfree_libraries/zf_uart.c:100
    USART_InitStructure.USART_WordLength = USART_WordLength_8b;
    1840:	fe041223          	sh	zero,-28(s0)
E:/proj/riscv/Seekfree_CH32V103R8T6_Opensource_Library/Libraries/seekfree_libraries/zf_uart.c:101
    USART_InitStructure.USART_StopBits = USART_StopBits_1;
    1844:	fe041323          	sh	zero,-26(s0)
E:/proj/riscv/Seekfree_CH32V103R8T6_Opensource_Library/Libraries/seekfree_libraries/zf_uart.c:102
    USART_InitStructure.USART_Parity = USART_Parity_No;
    1848:	fe041423          	sh	zero,-24(s0)
E:/proj/riscv/Seekfree_CH32V103R8T6_Opensource_Library/Libraries/seekfree_libraries/zf_uart.c:103
    USART_InitStructure.USART_HardwareFlowControl = USART_HardwareFlowControl_None;
    184c:	fe041623          	sh	zero,-20(s0)
E:/proj/riscv/Seekfree_CH32V103R8T6_Opensource_Library/Libraries/seekfree_libraries/zf_uart.c:104
    USART_InitStructure.USART_Mode = USART_Mode_Tx | USART_Mode_Rx;
    1850:	47b1                	li	a5,12
    1852:	fef41523          	sh	a5,-22(s0)
E:/proj/riscv/Seekfree_CH32V103R8T6_Opensource_Library/Libraries/seekfree_libraries/zf_uart.c:107

    //使能串口
    USART_Init((USART_TypeDef*)UARTN[uartn], &USART_InitStructure);
    1856:	678d                	lui	a5,0x3
    1858:	fdc42703          	lw	a4,-36(s0)
    185c:	070a                	slli	a4,a4,0x2
    185e:	a8078793          	addi	a5,a5,-1408 # 2a80 <UARTN>
    1862:	97ba                	add	a5,a5,a4
    1864:	439c                	lw	a5,0(a5)
    1866:	873e                	mv	a4,a5
    1868:	fe040793          	addi	a5,s0,-32
    186c:	85be                	mv	a1,a5
    186e:	853a                	mv	a0,a4
    1870:	a7aff0ef          	jal	ra,aea <USART_Init>
E:/proj/riscv/Seekfree_CH32V103R8T6_Opensource_Library/Libraries/seekfree_libraries/zf_uart.c:108
    USART_Cmd((USART_TypeDef*)UARTN[uartn], ENABLE);
    1874:	678d                	lui	a5,0x3
    1876:	fdc42703          	lw	a4,-36(s0)
    187a:	070a                	slli	a4,a4,0x2
    187c:	a8078793          	addi	a5,a5,-1408 # 2a80 <UARTN>
    1880:	97ba                	add	a5,a5,a4
    1882:	439c                	lw	a5,0(a5)
    1884:	4585                	li	a1,1
    1886:	853e                	mv	a0,a5
    1888:	c94ff0ef          	jal	ra,d1c <USART_Cmd>
E:/proj/riscv/Seekfree_CH32V103R8T6_Opensource_Library/Libraries/seekfree_libraries/zf_uart.c:111


}
    188c:	0001                	nop
    188e:	50b2                	lw	ra,44(sp)
    1890:	5422                	lw	s0,40(sp)
    1892:	6145                	addi	sp,sp,48
    1894:	8082                	ret

00001896 <USB_DevTransProcess>:
USB_DevTransProcess():
E:/proj/riscv/Seekfree_CH32V103R8T6_Opensource_Library/Libraries/seekfree_libraries/zf_usb_cdc.c:203
* Description    : USB device transfer process.
* Input          : None
* Return         : None
*******************************************************************************/
void USB_DevTransProcess( void )
{
    1896:	1101                	addi	sp,sp,-32
    1898:	ce06                	sw	ra,28(sp)
    189a:	cc22                	sw	s0,24(sp)
    189c:	1000                	addi	s0,sp,32
E:/proj/riscv/Seekfree_CH32V103R8T6_Opensource_Library/Libraries/seekfree_libraries/zf_usb_cdc.c:205
    UINT8  len, chtype,i;
    UINT8  intflag, errflag = 0;
    189e:	fe040623          	sb	zero,-20(s0)
E:/proj/riscv/Seekfree_CH32V103R8T6_Opensource_Library/Libraries/seekfree_libraries/zf_usb_cdc.c:207

    intflag = R8_USB_INT_FG;         //USB中断标志寄存器
    18a2:	400237b7          	lui	a5,0x40023
    18a6:	40678793          	addi	a5,a5,1030 # 40023406 <_eusrstack+0x2001e406>
    18aa:	0007c783          	lbu	a5,0(a5)
    18ae:	fef405a3          	sb	a5,-21(s0)
E:/proj/riscv/Seekfree_CH32V103R8T6_Opensource_Library/Libraries/seekfree_libraries/zf_usb_cdc.c:209

    if( intflag & RB_UIF_TRANSFER )  //USB传输完成中断标志位
    18b2:	feb44783          	lbu	a5,-21(s0)
    18b6:	8b89                	andi	a5,a5,2
    18b8:	1a0787e3          	beqz	a5,2266 <USB_DevTransProcess+0x9d0>
E:/proj/riscv/Seekfree_CH32V103R8T6_Opensource_Library/Libraries/seekfree_libraries/zf_usb_cdc.c:212
    {
        //R8_USB_INT_ST：USB中断状态寄存器   MASK_UIS_TOKEN：设备模式下，当前USB传输事务的令牌PID标识   MASK_UIS_ENDP：设备模式下，当前USB传输事务的端点号
        switch ( R8_USB_INT_ST & ( MASK_UIS_TOKEN | MASK_UIS_ENDP ) )
    18bc:	400237b7          	lui	a5,0x40023
    18c0:	40778793          	addi	a5,a5,1031 # 40023407 <_eusrstack+0x2001e407>
    18c4:	0007c783          	lbu	a5,0(a5)
    18c8:	0ff7f793          	andi	a5,a5,255
    18cc:	03f7f793          	andi	a5,a5,63
    18d0:	03000713          	li	a4,48
    18d4:	16f76ce3          	bltu	a4,a5,224c <USB_DevTransProcess+0x9b6>
    18d8:	00279713          	slli	a4,a5,0x2
    18dc:	678d                	lui	a5,0x3
    18de:	b1878793          	addi	a5,a5,-1256 # 2b18 <MyProdInfo+0xc>
    18e2:	97ba                	add	a5,a5,a4
    18e4:	439c                	lw	a5,0(a5)
    18e6:	8782                	jr	a5
E:/proj/riscv/Seekfree_CH32V103R8T6_Opensource_Library/Libraries/seekfree_libraries/zf_usb_cdc.c:216
        {
            //前面描述符配置中数据接口使用端点2进行数据输入输出
            case UIS_TOKEN_OUT | 2:
                if (R8_USB_INT_FG & RB_U_TOG_OK)                                    //不同步的数据包将丢弃，RB_U_TOG_OK：当前USB传输DATA0/1同步标志匹配状态位
    18e8:	400237b7          	lui	a5,0x40023
    18ec:	40678793          	addi	a5,a5,1030 # 40023406 <_eusrstack+0x2001e406>
    18f0:	0007c783          	lbu	a5,0(a5)
    18f4:	0ff7f793          	andi	a5,a5,255
    18f8:	0407f793          	andi	a5,a5,64
    18fc:	14078ae3          	beqz	a5,2250 <USB_DevTransProcess+0x9ba>
E:/proj/riscv/Seekfree_CH32V103R8T6_Opensource_Library/Libraries/seekfree_libraries/zf_usb_cdc.c:218
                {
                    USBByteCount = R8_USB_RX_LEN;                                   //R8_USB_RX_LEN：当前USB端点接收的数据字节数
    1900:	400237b7          	lui	a5,0x40023
    1904:	40878793          	addi	a5,a5,1032 # 40023408 <_eusrstack+0x2001e408>
    1908:	0007c783          	lbu	a5,0(a5)
    190c:	0ff7f713          	andi	a4,a5,255
    1910:	84e18023          	sb	a4,-1984(gp) # 20000050 <USBByteCount>
E:/proj/riscv/Seekfree_CH32V103R8T6_Opensource_Library/Libraries/seekfree_libraries/zf_usb_cdc.c:219
                    for(i=0; i<USBByteCount; i++)
    1914:	fe0406a3          	sb	zero,-19(s0)
    1918:	a035                	j	1944 <USB_DevTransProcess+0xae>
E:/proj/riscv/Seekfree_CH32V103R8T6_Opensource_Library/Libraries/seekfree_libraries/zf_usb_cdc.c:221 (discriminator 3)
                    {
                        pEP2_IN_DataBuf[i] = pEP2_OUT_DataBuf[i];
    191a:	8141a703          	lw	a4,-2028(gp) # 20000024 <pEP2_RAM_Addr>
    191e:	fed44783          	lbu	a5,-19(s0)
    1922:	973e                	add	a4,a4,a5
    1924:	8141a683          	lw	a3,-2028(gp) # 20000024 <pEP2_RAM_Addr>
    1928:	fed44783          	lbu	a5,-19(s0)
    192c:	04078793          	addi	a5,a5,64
    1930:	97b6                	add	a5,a5,a3
    1932:	00074703          	lbu	a4,0(a4) # e000f000 <_eusrstack+0xc000a000>
    1936:	00e78023          	sb	a4,0(a5)
E:/proj/riscv/Seekfree_CH32V103R8T6_Opensource_Library/Libraries/seekfree_libraries/zf_usb_cdc.c:219 (discriminator 3)
                    for(i=0; i<USBByteCount; i++)
    193a:	fed44783          	lbu	a5,-19(s0)
    193e:	0785                	addi	a5,a5,1
    1940:	fef406a3          	sb	a5,-19(s0)
E:/proj/riscv/Seekfree_CH32V103R8T6_Opensource_Library/Libraries/seekfree_libraries/zf_usb_cdc.c:219 (discriminator 1)
    1944:	8401c783          	lbu	a5,-1984(gp) # 20000050 <USBByteCount>
    1948:	0ff7f793          	andi	a5,a5,255
    194c:	fed44703          	lbu	a4,-19(s0)
    1950:	fcf765e3          	bltu	a4,a5,191a <USB_DevTransProcess+0x84>
E:/proj/riscv/Seekfree_CH32V103R8T6_Opensource_Library/Libraries/seekfree_libraries/zf_usb_cdc.c:223
                    }
                    R8_UEP2_T_LEN = USBByteCount;                                   //R8_UEP2_T_LEN：端点2发送长度
    1954:	400237b7          	lui	a5,0x40023
    1958:	43878793          	addi	a5,a5,1080 # 40023438 <_eusrstack+0x2001e438>
    195c:	8401c703          	lbu	a4,-1984(gp) # 20000050 <USBByteCount>
    1960:	0ff77713          	andi	a4,a4,255
    1964:	00e78023          	sb	a4,0(a5)
E:/proj/riscv/Seekfree_CH32V103R8T6_Opensource_Library/Libraries/seekfree_libraries/zf_usb_cdc.c:224
                    R8_UEP2_CTRL = (R8_UEP2_CTRL & ~MASK_UEP_T_RES)| UEP_T_RES_ACK; //MASK_UEP_T_RES：端点2的发送器对IN事务的响应控制
    1968:	400237b7          	lui	a5,0x40023
    196c:	43a78793          	addi	a5,a5,1082 # 4002343a <_eusrstack+0x2001e43a>
    1970:	0007c783          	lbu	a5,0(a5)
    1974:	0ff7f713          	andi	a4,a5,255
    1978:	400237b7          	lui	a5,0x40023
    197c:	43a78793          	addi	a5,a5,1082 # 4002343a <_eusrstack+0x2001e43a>
    1980:	9b71                	andi	a4,a4,-4
    1982:	0ff77713          	andi	a4,a4,255
    1986:	00e78023          	sb	a4,0(a5)
E:/proj/riscv/Seekfree_CH32V103R8T6_Opensource_Library/Libraries/seekfree_libraries/zf_usb_cdc.c:225
                    R8_USB_INT_FG = RB_UIF_TRANSFER;                                //USB传输完成中断标志位，写 1 清零
    198a:	400237b7          	lui	a5,0x40023
    198e:	40678793          	addi	a5,a5,1030 # 40023406 <_eusrstack+0x2001e406>
    1992:	4709                	li	a4,2
    1994:	00e78023          	sb	a4,0(a5)
E:/proj/riscv/Seekfree_CH32V103R8T6_Opensource_Library/Libraries/seekfree_libraries/zf_usb_cdc.c:227
                }
                break;
    1998:	0b90006f          	j	2250 <USB_DevTransProcess+0x9ba>
E:/proj/riscv/Seekfree_CH32V103R8T6_Opensource_Library/Libraries/seekfree_libraries/zf_usb_cdc.c:230

            case UIS_TOKEN_IN | 2:
                R8_UEP2_CTRL = (R8_UEP2_CTRL & ~MASK_UEP_T_RES) | UEP_T_RES_NAK;
    199c:	400237b7          	lui	a5,0x40023
    19a0:	43a78793          	addi	a5,a5,1082 # 4002343a <_eusrstack+0x2001e43a>
    19a4:	0007c783          	lbu	a5,0(a5)
    19a8:	0ff7f793          	andi	a5,a5,255
    19ac:	07e2                	slli	a5,a5,0x18
    19ae:	87e1                	srai	a5,a5,0x18
    19b0:	9bf1                	andi	a5,a5,-4
    19b2:	07e2                	slli	a5,a5,0x18
    19b4:	87e1                	srai	a5,a5,0x18
    19b6:	0027e793          	ori	a5,a5,2
    19ba:	01879713          	slli	a4,a5,0x18
    19be:	8761                	srai	a4,a4,0x18
    19c0:	400237b7          	lui	a5,0x40023
    19c4:	43a78793          	addi	a5,a5,1082 # 4002343a <_eusrstack+0x2001e43a>
    19c8:	0ff77713          	andi	a4,a4,255
    19cc:	00e78023          	sb	a4,0(a5)
E:/proj/riscv/Seekfree_CH32V103R8T6_Opensource_Library/Libraries/seekfree_libraries/zf_usb_cdc.c:231
                R8_USB_INT_FG = RB_UIF_TRANSFER;
    19d0:	400237b7          	lui	a5,0x40023
    19d4:	40678793          	addi	a5,a5,1030 # 40023406 <_eusrstack+0x2001e406>
    19d8:	4709                	li	a4,2
    19da:	00e78023          	sb	a4,0(a5)
E:/proj/riscv/Seekfree_CH32V103R8T6_Opensource_Library/Libraries/seekfree_libraries/zf_usb_cdc.c:232
                break;
    19de:	0790006f          	j	2256 <USB_DevTransProcess+0x9c0>
E:/proj/riscv/Seekfree_CH32V103R8T6_Opensource_Library/Libraries/seekfree_libraries/zf_usb_cdc.c:234
            case UIS_TOKEN_SETUP:
                R8_UEP0_CTRL = RB_UEP_R_TOG | RB_UEP_T_TOG | UEP_R_RES_ACK | UEP_T_RES_NAK;
    19e2:	400237b7          	lui	a5,0x40023
    19e6:	43278793          	addi	a5,a5,1074 # 40023432 <_eusrstack+0x2001e432>
    19ea:	fc200713          	li	a4,-62
    19ee:	00e78023          	sb	a4,0(a5)
E:/proj/riscv/Seekfree_CH32V103R8T6_Opensource_Library/Libraries/seekfree_libraries/zf_usb_cdc.c:235
                len = R8_USB_RX_LEN;
    19f2:	400237b7          	lui	a5,0x40023
    19f6:	40878793          	addi	a5,a5,1032 # 40023408 <_eusrstack+0x2001e408>
    19fa:	0007c783          	lbu	a5,0(a5)
    19fe:	fef407a3          	sb	a5,-17(s0)
E:/proj/riscv/Seekfree_CH32V103R8T6_Opensource_Library/Libraries/seekfree_libraries/zf_usb_cdc.c:238

                //获取一系列描述符
                if ( len == sizeof( USB_SETUP_REQ ) )
    1a02:	fef44703          	lbu	a4,-17(s0)
    1a06:	47a1                	li	a5,8
    1a08:	5cf71763          	bne	a4,a5,1fd6 <USB_DevTransProcess+0x740>
E:/proj/riscv/Seekfree_CH32V103R8T6_Opensource_Library/Libraries/seekfree_libraries/zf_usb_cdc.c:240
                {
                    SetupReqLen = pSetupReqPak->wLength;
    1a0c:	8101a783          	lw	a5,-2032(gp) # 20000020 <_edata>
    1a10:	0067c703          	lbu	a4,6(a5)
    1a14:	0077c783          	lbu	a5,7(a5)
    1a18:	07a2                	slli	a5,a5,0x8
    1a1a:	8fd9                	or	a5,a5,a4
    1a1c:	01079713          	slli	a4,a5,0x10
    1a20:	8341                	srli	a4,a4,0x10
    1a22:	82e19f23          	sh	a4,-1986(gp) # 2000004e <SetupReqLen>
E:/proj/riscv/Seekfree_CH32V103R8T6_Opensource_Library/Libraries/seekfree_libraries/zf_usb_cdc.c:241
                    SetupReqCode = pSetupReqPak->bRequest;
    1a26:	8101a783          	lw	a5,-2032(gp) # 20000020 <_edata>
    1a2a:	0017c703          	lbu	a4,1(a5)
    1a2e:	82e18ea3          	sb	a4,-1987(gp) # 2000004d <SetupReqCode>
E:/proj/riscv/Seekfree_CH32V103R8T6_Opensource_Library/Libraries/seekfree_libraries/zf_usb_cdc.c:242
                    chtype = pSetupReqPak->bRequestType;
    1a32:	8101a783          	lw	a5,-2032(gp) # 20000020 <_edata>
    1a36:	0007c783          	lbu	a5,0(a5)
    1a3a:	fef40723          	sb	a5,-18(s0)
E:/proj/riscv/Seekfree_CH32V103R8T6_Opensource_Library/Libraries/seekfree_libraries/zf_usb_cdc.c:244

                    len = 0;
    1a3e:	fe0407a3          	sb	zero,-17(s0)
E:/proj/riscv/Seekfree_CH32V103R8T6_Opensource_Library/Libraries/seekfree_libraries/zf_usb_cdc.c:245
                    errflag = 0;
    1a42:	fe040623          	sb	zero,-20(s0)
E:/proj/riscv/Seekfree_CH32V103R8T6_Opensource_Library/Libraries/seekfree_libraries/zf_usb_cdc.c:246
                    if ( ( pSetupReqPak->bRequestType & USB_REQ_TYP_MASK ) != USB_REQ_TYP_STANDARD )  //判断是否为标准请求
    1a46:	8101a783          	lw	a5,-2032(gp) # 20000020 <_edata>
    1a4a:	0007c783          	lbu	a5,0(a5)
    1a4e:	0607f793          	andi	a5,a5,96
    1a52:	cfad                	beqz	a5,1acc <USB_DevTransProcess+0x236>
E:/proj/riscv/Seekfree_CH32V103R8T6_Opensource_Library/Libraries/seekfree_libraries/zf_usb_cdc.c:249
                    {
                        //若不是标准请求
                        switch(SetupReqCode)
    1a54:	83d1c783          	lbu	a5,-1987(gp) # 2000004d <SetupReqCode>
    1a58:	02100713          	li	a4,33
    1a5c:	00e78b63          	beq	a5,a4,1a72 <USB_DevTransProcess+0x1dc>
    1a60:	02200713          	li	a4,34
    1a64:	56e78d63          	beq	a5,a4,1fde <USB_DevTransProcess+0x748>
    1a68:	02000713          	li	a4,32
    1a6c:	56e78b63          	beq	a5,a4,1fe2 <USB_DevTransProcess+0x74c>
    1a70:	a891                	j	1ac4 <USB_DevTransProcess+0x22e>
E:/proj/riscv/Seekfree_CH32V103R8T6_Opensource_Library/Libraries/seekfree_libraries/zf_usb_cdc.c:252
                        {
                            case GET_LINE_CODING:         //currently configured
                                pDescr = LineCoding;
    1a72:	20000737          	lui	a4,0x20000
    1a76:	01470713          	addi	a4,a4,20 # 20000014 <LineCoding>
    1a7a:	84e1a223          	sw	a4,-1980(gp) # 20000054 <pDescr>
E:/proj/riscv/Seekfree_CH32V103R8T6_Opensource_Library/Libraries/seekfree_libraries/zf_usb_cdc.c:253
                                len = sizeof(LineCoding);
    1a7e:	479d                	li	a5,7
    1a80:	fef407a3          	sb	a5,-17(s0)
E:/proj/riscv/Seekfree_CH32V103R8T6_Opensource_Library/Libraries/seekfree_libraries/zf_usb_cdc.c:254
                                len = SetupReqLen >= DEFAULT_ENDP0_SIZE ? DEFAULT_ENDP0_SIZE : SetupReqLen;  // 本次传输长度
    1a84:	83e1d783          	lhu	a5,-1986(gp) # 2000004e <SetupReqLen>
    1a88:	01079693          	slli	a3,a5,0x10
    1a8c:	82c1                	srli	a3,a3,0x10
    1a8e:	4721                	li	a4,8
    1a90:	00d77363          	bgeu	a4,a3,1a96 <USB_DevTransProcess+0x200>
    1a94:	47a1                	li	a5,8
    1a96:	07c2                	slli	a5,a5,0x10
    1a98:	83c1                	srli	a5,a5,0x10
    1a9a:	fef407a3          	sb	a5,-17(s0)
E:/proj/riscv/Seekfree_CH32V103R8T6_Opensource_Library/Libraries/seekfree_libraries/zf_usb_cdc.c:255
                                memcpy(pEP0_DataBuf,pDescr,len);
    1a9e:	8101a703          	lw	a4,-2032(gp) # 20000020 <_edata>
    1aa2:	8441a783          	lw	a5,-1980(gp) # 20000054 <pDescr>
    1aa6:	fef44683          	lbu	a3,-17(s0)
    1aaa:	8636                	mv	a2,a3
    1aac:	85be                	mv	a1,a5
    1aae:	853a                	mv	a0,a4
    1ab0:	5c1000ef          	jal	ra,2870 <memcpy>
E:/proj/riscv/Seekfree_CH32V103R8T6_Opensource_Library/Libraries/seekfree_libraries/zf_usb_cdc.c:256
                                pDescr += len;
    1ab4:	8441a703          	lw	a4,-1980(gp) # 20000054 <pDescr>
    1ab8:	fef44783          	lbu	a5,-17(s0)
    1abc:	973e                	add	a4,a4,a5
    1abe:	84e1a223          	sw	a4,-1980(gp) # 20000054 <pDescr>
E:/proj/riscv/Seekfree_CH32V103R8T6_Opensource_Library/Libraries/seekfree_libraries/zf_usb_cdc.c:257
                                break;
    1ac2:	ab1d                	j	1ff8 <USB_DevTransProcess+0x762>
E:/proj/riscv/Seekfree_CH32V103R8T6_Opensource_Library/Libraries/seekfree_libraries/zf_usb_cdc.c:263
                            case SET_CONTROL_LINE_STATE:  //0x22  generates RS-232/V.24 style control signals
                                break;
                            case SET_LINE_CODING:         //0x20  Configure
                                break;
                            default:
                                errflag = 0xFF;
    1ac4:	57fd                	li	a5,-1
    1ac6:	fef40623          	sb	a5,-20(s0)
    1aca:	a33d                	j	1ff8 <USB_DevTransProcess+0x762>
E:/proj/riscv/Seekfree_CH32V103R8T6_Opensource_Library/Libraries/seekfree_libraries/zf_usb_cdc.c:269
                        }
                    }
                    else
                    {
                        //若是标准请求
                        switch( SetupReqCode )
    1acc:	83d1c783          	lbu	a5,-1987(gp) # 2000004d <SetupReqCode>
    1ad0:	4729                	li	a4,10
    1ad2:	4ef76d63          	bltu	a4,a5,1fcc <USB_DevTransProcess+0x736>
    1ad6:	00279713          	slli	a4,a5,0x2
    1ada:	678d                	lui	a5,0x3
    1adc:	bdc78793          	addi	a5,a5,-1060 # 2bdc <MyProdInfo+0xd0>
    1ae0:	97ba                	add	a5,a5,a4
    1ae2:	439c                	lw	a5,0(a5)
    1ae4:	8782                	jr	a5
E:/proj/riscv/Seekfree_CH32V103R8T6_Opensource_Library/Libraries/seekfree_libraries/zf_usb_cdc.c:273 (discriminator 1)
                        {
                            case USB_GET_DESCRIPTOR:                   //获取描述符
                            {
                                switch( ((pSetupReqPak->wValue)>>8) )
    1ae6:	8101a783          	lw	a5,-2032(gp) # 20000020 <_edata>
    1aea:	0027c703          	lbu	a4,2(a5)
    1aee:	0037c783          	lbu	a5,3(a5)
    1af2:	07a2                	slli	a5,a5,0x8
    1af4:	8fd9                	or	a5,a5,a4
    1af6:	07c2                	slli	a5,a5,0x10
    1af8:	83c1                	srli	a5,a5,0x10
    1afa:	83a1                	srli	a5,a5,0x8
    1afc:	07c2                	slli	a5,a5,0x10
    1afe:	83c1                	srli	a5,a5,0x10
    1b00:	4709                	li	a4,2
    1b02:	02e78163          	beq	a5,a4,1b24 <USB_DevTransProcess+0x28e>
    1b06:	470d                	li	a4,3
    1b08:	02e78863          	beq	a5,a4,1b38 <USB_DevTransProcess+0x2a2>
    1b0c:	4705                	li	a4,1
    1b0e:	0ae79863          	bne	a5,a4,1bbe <USB_DevTransProcess+0x328>
E:/proj/riscv/Seekfree_CH32V103R8T6_Opensource_Library/Libraries/seekfree_libraries/zf_usb_cdc.c:276
                                {
                                    case USB_DESCR_TYP_DEVICE:         //设备描述符
                                        pDescr = MyDevDescr;
    1b12:	670d                	lui	a4,0x3
    1b14:	a9070713          	addi	a4,a4,-1392 # 2a90 <MyDevDescr>
    1b18:	84e1a223          	sw	a4,-1980(gp) # 20000054 <pDescr>
E:/proj/riscv/Seekfree_CH32V103R8T6_Opensource_Library/Libraries/seekfree_libraries/zf_usb_cdc.c:277
                                        len = MyDevDescr[0];
    1b1c:	47c9                	li	a5,18
    1b1e:	fef407a3          	sb	a5,-17(s0)
E:/proj/riscv/Seekfree_CH32V103R8T6_Opensource_Library/Libraries/seekfree_libraries/zf_usb_cdc.c:278
                                        break;
    1b22:	a055                	j	1bc6 <USB_DevTransProcess+0x330>
E:/proj/riscv/Seekfree_CH32V103R8T6_Opensource_Library/Libraries/seekfree_libraries/zf_usb_cdc.c:281

                                    case USB_DESCR_TYP_CONFIG:         //配置描述符
                                        pDescr = MyCfgDescr;
    1b24:	670d                	lui	a4,0x3
    1b26:	aa470713          	addi	a4,a4,-1372 # 2aa4 <MyCfgDescr>
    1b2a:	84e1a223          	sw	a4,-1980(gp) # 20000054 <pDescr>
E:/proj/riscv/Seekfree_CH32V103R8T6_Opensource_Library/Libraries/seekfree_libraries/zf_usb_cdc.c:282
                                        len = MyCfgDescr[2];
    1b2e:	04300793          	li	a5,67
    1b32:	fef407a3          	sb	a5,-17(s0)
E:/proj/riscv/Seekfree_CH32V103R8T6_Opensource_Library/Libraries/seekfree_libraries/zf_usb_cdc.c:283
                                        break;
    1b36:	a841                	j	1bc6 <USB_DevTransProcess+0x330>
E:/proj/riscv/Seekfree_CH32V103R8T6_Opensource_Library/Libraries/seekfree_libraries/zf_usb_cdc.c:286 (discriminator 2)

                                    case USB_DESCR_TYP_STRING:         //字符串描述符
                                        switch( (pSetupReqPak->wValue)&0xff )
    1b38:	8101a783          	lw	a5,-2032(gp) # 20000020 <_edata>
    1b3c:	0027c703          	lbu	a4,2(a5)
    1b40:	0037c783          	lbu	a5,3(a5)
    1b44:	07a2                	slli	a5,a5,0x8
    1b46:	8fd9                	or	a5,a5,a4
    1b48:	07c2                	slli	a5,a5,0x10
    1b4a:	83c1                	srli	a5,a5,0x10
    1b4c:	0ff7f793          	andi	a5,a5,255
    1b50:	4705                	li	a4,1
    1b52:	00e78e63          	beq	a5,a4,1b6e <USB_DevTransProcess+0x2d8>
    1b56:	4705                	li	a4,1
    1b58:	00f74463          	blt	a4,a5,1b60 <USB_DevTransProcess+0x2ca>
    1b5c:	cb9d                	beqz	a5,1b92 <USB_DevTransProcess+0x2fc>
    1b5e:	a899                	j	1bb4 <USB_DevTransProcess+0x31e>
    1b60:	4709                	li	a4,2
    1b62:	00e78f63          	beq	a5,a4,1b80 <USB_DevTransProcess+0x2ea>
    1b66:	470d                	li	a4,3
    1b68:	02e78d63          	beq	a5,a4,1ba2 <USB_DevTransProcess+0x30c>
    1b6c:	a0a1                	j	1bb4 <USB_DevTransProcess+0x31e>
E:/proj/riscv/Seekfree_CH32V103R8T6_Opensource_Library/Libraries/seekfree_libraries/zf_usb_cdc.c:289
                                        {
                                            case 1:
                                                pDescr = MyManuInfo;   //厂商信息
    1b6e:	670d                	lui	a4,0x3
    1b70:	afc70713          	addi	a4,a4,-1284 # 2afc <MyManuInfo>
    1b74:	84e1a223          	sw	a4,-1980(gp) # 20000054 <pDescr>
E:/proj/riscv/Seekfree_CH32V103R8T6_Opensource_Library/Libraries/seekfree_libraries/zf_usb_cdc.c:290
                                                len = MyManuInfo[0];
    1b78:	47b9                	li	a5,14
    1b7a:	fef407a3          	sb	a5,-17(s0)
E:/proj/riscv/Seekfree_CH32V103R8T6_Opensource_Library/Libraries/seekfree_libraries/zf_usb_cdc.c:291
                                                break;
    1b7e:	a83d                	j	1bbc <USB_DevTransProcess+0x326>
E:/proj/riscv/Seekfree_CH32V103R8T6_Opensource_Library/Libraries/seekfree_libraries/zf_usb_cdc.c:294

                                            case 2:
                                                pDescr = MyProdInfo;   //产品信息
    1b80:	670d                	lui	a4,0x3
    1b82:	b0c70713          	addi	a4,a4,-1268 # 2b0c <MyProdInfo>
    1b86:	84e1a223          	sw	a4,-1980(gp) # 20000054 <pDescr>
E:/proj/riscv/Seekfree_CH32V103R8T6_Opensource_Library/Libraries/seekfree_libraries/zf_usb_cdc.c:295
                                                len = MyProdInfo[0];
    1b8a:	47b1                	li	a5,12
    1b8c:	fef407a3          	sb	a5,-17(s0)
E:/proj/riscv/Seekfree_CH32V103R8T6_Opensource_Library/Libraries/seekfree_libraries/zf_usb_cdc.c:296
                                                break;
    1b90:	a035                	j	1bbc <USB_DevTransProcess+0x326>
E:/proj/riscv/Seekfree_CH32V103R8T6_Opensource_Library/Libraries/seekfree_libraries/zf_usb_cdc.c:299

                                            case 0:
                                                pDescr = MyLangDescr;  //语言信息
    1b92:	80c18713          	addi	a4,gp,-2036 # 2000001c <MyLangDescr>
    1b96:	84e1a223          	sw	a4,-1980(gp) # 20000054 <pDescr>
E:/proj/riscv/Seekfree_CH32V103R8T6_Opensource_Library/Libraries/seekfree_libraries/zf_usb_cdc.c:300
                                                len = MyLangDescr[0];
    1b9a:	4791                	li	a5,4
    1b9c:	fef407a3          	sb	a5,-17(s0)
E:/proj/riscv/Seekfree_CH32V103R8T6_Opensource_Library/Libraries/seekfree_libraries/zf_usb_cdc.c:301
                                                break;
    1ba0:	a831                	j	1bbc <USB_DevTransProcess+0x326>
E:/proj/riscv/Seekfree_CH32V103R8T6_Opensource_Library/Libraries/seekfree_libraries/zf_usb_cdc.c:304

                                            case 3:
                                                pDescr = (PUINT8)( &MyProductIDInfo[0] ); //产品序列号
    1ba2:	670d                	lui	a4,0x3
    1ba4:	ae870713          	addi	a4,a4,-1304 # 2ae8 <MyProductIDInfo>
    1ba8:	84e1a223          	sw	a4,-1980(gp) # 20000054 <pDescr>
E:/proj/riscv/Seekfree_CH32V103R8T6_Opensource_Library/Libraries/seekfree_libraries/zf_usb_cdc.c:305
                                                len = sizeof( MyProductIDInfo );
    1bac:	47d1                	li	a5,20
    1bae:	fef407a3          	sb	a5,-17(s0)
E:/proj/riscv/Seekfree_CH32V103R8T6_Opensource_Library/Libraries/seekfree_libraries/zf_usb_cdc.c:306
                                                break;
    1bb2:	a029                	j	1bbc <USB_DevTransProcess+0x326>
E:/proj/riscv/Seekfree_CH32V103R8T6_Opensource_Library/Libraries/seekfree_libraries/zf_usb_cdc.c:309

                                            default:
                                                errflag = 0xFF;
    1bb4:	57fd                	li	a5,-1
    1bb6:	fef40623          	sb	a5,-20(s0)
E:/proj/riscv/Seekfree_CH32V103R8T6_Opensource_Library/Libraries/seekfree_libraries/zf_usb_cdc.c:310
                                                break;
    1bba:	0001                	nop
E:/proj/riscv/Seekfree_CH32V103R8T6_Opensource_Library/Libraries/seekfree_libraries/zf_usb_cdc.c:312
                                        }
                                        break;
    1bbc:	a029                	j	1bc6 <USB_DevTransProcess+0x330>
E:/proj/riscv/Seekfree_CH32V103R8T6_Opensource_Library/Libraries/seekfree_libraries/zf_usb_cdc.c:315

                                    default :
                                        errflag = 0xff;
    1bbe:	57fd                	li	a5,-1
    1bc0:	fef40623          	sb	a5,-20(s0)
E:/proj/riscv/Seekfree_CH32V103R8T6_Opensource_Library/Libraries/seekfree_libraries/zf_usb_cdc.c:316
                                        break;
    1bc4:	0001                	nop
E:/proj/riscv/Seekfree_CH32V103R8T6_Opensource_Library/Libraries/seekfree_libraries/zf_usb_cdc.c:319
                                }

                                if( SetupReqLen>len )   SetupReqLen = len;
    1bc6:	fef44783          	lbu	a5,-17(s0)
    1bca:	01079713          	slli	a4,a5,0x10
    1bce:	8341                	srli	a4,a4,0x10
    1bd0:	83e1d783          	lhu	a5,-1986(gp) # 2000004e <SetupReqLen>
    1bd4:	00f77963          	bgeu	a4,a5,1be6 <USB_DevTransProcess+0x350>
E:/proj/riscv/Seekfree_CH32V103R8T6_Opensource_Library/Libraries/seekfree_libraries/zf_usb_cdc.c:319 (discriminator 1)
    1bd8:	fef44783          	lbu	a5,-17(s0)
    1bdc:	01079713          	slli	a4,a5,0x10
    1be0:	8341                	srli	a4,a4,0x10
    1be2:	82e19f23          	sh	a4,-1986(gp) # 2000004e <SetupReqLen>
E:/proj/riscv/Seekfree_CH32V103R8T6_Opensource_Library/Libraries/seekfree_libraries/zf_usb_cdc.c:320
                                len = (SetupReqLen >= DevEP0SIZE) ? DevEP0SIZE : SetupReqLen;
    1be6:	83e1d783          	lhu	a5,-1986(gp) # 2000004e <SetupReqLen>
    1bea:	01079693          	slli	a3,a5,0x10
    1bee:	82c1                	srli	a3,a3,0x10
    1bf0:	04000713          	li	a4,64
    1bf4:	00d77463          	bgeu	a4,a3,1bfc <USB_DevTransProcess+0x366>
    1bf8:	04000793          	li	a5,64
    1bfc:	07c2                	slli	a5,a5,0x10
    1bfe:	83c1                	srli	a5,a5,0x10
    1c00:	fef407a3          	sb	a5,-17(s0)
E:/proj/riscv/Seekfree_CH32V103R8T6_Opensource_Library/Libraries/seekfree_libraries/zf_usb_cdc.c:321
                                memcpy( pEP0_DataBuf, pDescr, len );
    1c04:	8101a703          	lw	a4,-2032(gp) # 20000020 <_edata>
    1c08:	8441a783          	lw	a5,-1980(gp) # 20000054 <pDescr>
    1c0c:	fef44683          	lbu	a3,-17(s0)
    1c10:	8636                	mv	a2,a3
    1c12:	85be                	mv	a1,a5
    1c14:	853a                	mv	a0,a4
    1c16:	45b000ef          	jal	ra,2870 <memcpy>
E:/proj/riscv/Seekfree_CH32V103R8T6_Opensource_Library/Libraries/seekfree_libraries/zf_usb_cdc.c:322
                                pDescr += len;
    1c1a:	8441a703          	lw	a4,-1980(gp) # 20000054 <pDescr>
    1c1e:	fef44783          	lbu	a5,-17(s0)
    1c22:	973e                	add	a4,a4,a5
    1c24:	84e1a223          	sw	a4,-1980(gp) # 20000054 <pDescr>
E:/proj/riscv/Seekfree_CH32V103R8T6_Opensource_Library/Libraries/seekfree_libraries/zf_usb_cdc.c:324
                            }
                                break;
    1c28:	aec1                	j	1ff8 <USB_DevTransProcess+0x762>
E:/proj/riscv/Seekfree_CH32V103R8T6_Opensource_Library/Libraries/seekfree_libraries/zf_usb_cdc.c:327

                            case USB_SET_ADDRESS:
                                SetupReqLen = (pSetupReqPak->wValue)&0xff;
    1c2a:	8101a783          	lw	a5,-2032(gp) # 20000020 <_edata>
    1c2e:	0027c703          	lbu	a4,2(a5)
    1c32:	0037c783          	lbu	a5,3(a5)
    1c36:	07a2                	slli	a5,a5,0x8
    1c38:	8fd9                	or	a5,a5,a4
    1c3a:	07c2                	slli	a5,a5,0x10
    1c3c:	83c1                	srli	a5,a5,0x10
    1c3e:	0ff7f793          	andi	a5,a5,255
    1c42:	01079713          	slli	a4,a5,0x10
    1c46:	8341                	srli	a4,a4,0x10
    1c48:	82e19f23          	sh	a4,-1986(gp) # 2000004e <SetupReqLen>
E:/proj/riscv/Seekfree_CH32V103R8T6_Opensource_Library/Libraries/seekfree_libraries/zf_usb_cdc.c:328
                                break;
    1c4c:	a675                	j	1ff8 <USB_DevTransProcess+0x762>
E:/proj/riscv/Seekfree_CH32V103R8T6_Opensource_Library/Libraries/seekfree_libraries/zf_usb_cdc.c:331

                            case USB_GET_CONFIGURATION:
                                pEP0_DataBuf[0] = UsbConfig;
    1c4e:	8101a783          	lw	a5,-2032(gp) # 20000020 <_edata>
    1c52:	83c1c703          	lbu	a4,-1988(gp) # 2000004c <UsbConfig>
    1c56:	00e78023          	sb	a4,0(a5)
E:/proj/riscv/Seekfree_CH32V103R8T6_Opensource_Library/Libraries/seekfree_libraries/zf_usb_cdc.c:332
                                if ( SetupReqLen > 1 ) SetupReqLen = 1;
    1c5a:	83e1d703          	lhu	a4,-1986(gp) # 2000004e <SetupReqLen>
    1c5e:	4785                	li	a5,1
    1c60:	38e7f363          	bgeu	a5,a4,1fe6 <USB_DevTransProcess+0x750>
E:/proj/riscv/Seekfree_CH32V103R8T6_Opensource_Library/Libraries/seekfree_libraries/zf_usb_cdc.c:332 (discriminator 1)
    1c64:	4705                	li	a4,1
    1c66:	82e19f23          	sh	a4,-1986(gp) # 2000004e <SetupReqLen>
E:/proj/riscv/Seekfree_CH32V103R8T6_Opensource_Library/Libraries/seekfree_libraries/zf_usb_cdc.c:333 (discriminator 1)
                                break;
    1c6a:	aeb5                	j	1fe6 <USB_DevTransProcess+0x750>
E:/proj/riscv/Seekfree_CH32V103R8T6_Opensource_Library/Libraries/seekfree_libraries/zf_usb_cdc.c:336

                            case USB_SET_CONFIGURATION:
                                UsbConfig = (pSetupReqPak->wValue)&0xff;
    1c6c:	8101a783          	lw	a5,-2032(gp) # 20000020 <_edata>
    1c70:	0027c703          	lbu	a4,2(a5)
    1c74:	0037c783          	lbu	a5,3(a5)
    1c78:	07a2                	slli	a5,a5,0x8
    1c7a:	8fd9                	or	a5,a5,a4
    1c7c:	07c2                	slli	a5,a5,0x10
    1c7e:	83c1                	srli	a5,a5,0x10
    1c80:	0ff7f713          	andi	a4,a5,255
    1c84:	82e18e23          	sb	a4,-1988(gp) # 2000004c <UsbConfig>
E:/proj/riscv/Seekfree_CH32V103R8T6_Opensource_Library/Libraries/seekfree_libraries/zf_usb_cdc.c:337
                                break;
    1c88:	ae85                	j	1ff8 <USB_DevTransProcess+0x762>
E:/proj/riscv/Seekfree_CH32V103R8T6_Opensource_Library/Libraries/seekfree_libraries/zf_usb_cdc.c:340

                            case USB_CLEAR_FEATURE:
                                if( ( pSetupReqPak->bRequestType & 0x1F ) == USB_REQ_RECIP_DEVICE )  /* 清除设备 */
    1c8a:	8101a783          	lw	a5,-2032(gp) # 20000020 <_edata>
    1c8e:	0007c783          	lbu	a5,0(a5)
    1c92:	8bfd                	andi	a5,a5,31
    1c94:	ef8d                	bnez	a5,1cce <USB_DevTransProcess+0x438>
E:/proj/riscv/Seekfree_CH32V103R8T6_Opensource_Library/Libraries/seekfree_libraries/zf_usb_cdc.c:342
                                {
                                    if((pSetupReqPak->wValue) == 0x01 )
    1c96:	8101a783          	lw	a5,-2032(gp) # 20000020 <_edata>
    1c9a:	0027c703          	lbu	a4,2(a5)
    1c9e:	0037c783          	lbu	a5,3(a5)
    1ca2:	07a2                	slli	a5,a5,0x8
    1ca4:	8fd9                	or	a5,a5,a4
    1ca6:	01079713          	slli	a4,a5,0x10
    1caa:	8341                	srli	a4,a4,0x10
    1cac:	4785                	li	a5,1
    1cae:	00f71c63          	bne	a4,a5,1cc6 <USB_DevTransProcess+0x430>
E:/proj/riscv/Seekfree_CH32V103R8T6_Opensource_Library/Libraries/seekfree_libraries/zf_usb_cdc.c:344
                                    {
                                       if( MyCfgDescr[ 7 ] & 0x20 )
    1cb2:	0a000793          	li	a5,160
    1cb6:	0207f793          	andi	a5,a5,32
    1cba:	32079863          	bnez	a5,1fea <USB_DevTransProcess+0x754>
E:/proj/riscv/Seekfree_CH32V103R8T6_Opensource_Library/Libraries/seekfree_libraries/zf_usb_cdc.c:350
                                       {
                                           /* 唤醒 */
                                       }
                                       else
                                       {
                                           errflag = 0xFF;                                           /* 操作失败 */
    1cbe:	57fd                	li	a5,-1
    1cc0:	fef40623          	sb	a5,-20(s0)
E:/proj/riscv/Seekfree_CH32V103R8T6_Opensource_Library/Libraries/seekfree_libraries/zf_usb_cdc.c:385
                                            break;

                                    }
                                }
                                else    errflag = 0xFF;
                                break;
    1cc4:	a61d                	j	1fea <USB_DevTransProcess+0x754>
E:/proj/riscv/Seekfree_CH32V103R8T6_Opensource_Library/Libraries/seekfree_libraries/zf_usb_cdc.c:355
                                        errflag = 0xFF;                                              /* 操作失败 */
    1cc6:	57fd                	li	a5,-1
    1cc8:	fef40623          	sb	a5,-20(s0)
E:/proj/riscv/Seekfree_CH32V103R8T6_Opensource_Library/Libraries/seekfree_libraries/zf_usb_cdc.c:385
                                break;
    1ccc:	ae39                	j	1fea <USB_DevTransProcess+0x754>
E:/proj/riscv/Seekfree_CH32V103R8T6_Opensource_Library/Libraries/seekfree_libraries/zf_usb_cdc.c:358
                                else if ( ( pSetupReqPak->bRequestType & USB_REQ_RECIP_MASK ) == USB_REQ_RECIP_ENDP )
    1cce:	8101a783          	lw	a5,-2032(gp) # 20000020 <_edata>
    1cd2:	0007c783          	lbu	a5,0(a5)
    1cd6:	01f7f713          	andi	a4,a5,31
    1cda:	4789                	li	a5,2
    1cdc:	10f71363          	bne	a4,a5,1de2 <USB_DevTransProcess+0x54c>
E:/proj/riscv/Seekfree_CH32V103R8T6_Opensource_Library/Libraries/seekfree_libraries/zf_usb_cdc.c:360
                                    switch( (pSetupReqPak->wIndex)&0xff )
    1ce0:	8101a783          	lw	a5,-2032(gp) # 20000020 <_edata>
    1ce4:	0047c703          	lbu	a4,4(a5)
    1ce8:	0057c783          	lbu	a5,5(a5)
    1cec:	07a2                	slli	a5,a5,0x8
    1cee:	8fd9                	or	a5,a5,a4
    1cf0:	07c2                	slli	a5,a5,0x10
    1cf2:	83c1                	srli	a5,a5,0x10
    1cf4:	0ff7f793          	andi	a5,a5,255
    1cf8:	4709                	li	a4,2
    1cfa:	04e78d63          	beq	a5,a4,1d54 <USB_DevTransProcess+0x4be>
    1cfe:	4709                	li	a4,2
    1d00:	00f74663          	blt	a4,a5,1d0c <USB_DevTransProcess+0x476>
    1d04:	4705                	li	a4,1
    1d06:	0ae78663          	beq	a5,a4,1db2 <USB_DevTransProcess+0x51c>
    1d0a:	a0f9                	j	1dd8 <USB_DevTransProcess+0x542>
    1d0c:	08100713          	li	a4,129
    1d10:	06e78563          	beq	a5,a4,1d7a <USB_DevTransProcess+0x4e4>
    1d14:	08200713          	li	a4,130
    1d18:	0ce79063          	bne	a5,a4,1dd8 <USB_DevTransProcess+0x542>
E:/proj/riscv/Seekfree_CH32V103R8T6_Opensource_Library/Libraries/seekfree_libraries/zf_usb_cdc.c:363
                                            R8_UEP2_CTRL = (R8_UEP2_CTRL & ~( RB_UEP_T_TOG|MASK_UEP_T_RES )) | UEP_T_RES_NAK;
    1d1c:	400237b7          	lui	a5,0x40023
    1d20:	43a78793          	addi	a5,a5,1082 # 4002343a <_eusrstack+0x2001e43a>
    1d24:	0007c783          	lbu	a5,0(a5)
    1d28:	0ff7f793          	andi	a5,a5,255
    1d2c:	07e2                	slli	a5,a5,0x18
    1d2e:	87e1                	srai	a5,a5,0x18
    1d30:	fbc7f793          	andi	a5,a5,-68
    1d34:	07e2                	slli	a5,a5,0x18
    1d36:	87e1                	srai	a5,a5,0x18
    1d38:	0027e793          	ori	a5,a5,2
    1d3c:	01879713          	slli	a4,a5,0x18
    1d40:	8761                	srai	a4,a4,0x18
    1d42:	400237b7          	lui	a5,0x40023
    1d46:	43a78793          	addi	a5,a5,1082 # 4002343a <_eusrstack+0x2001e43a>
    1d4a:	0ff77713          	andi	a4,a4,255
    1d4e:	00e78023          	sb	a4,0(a5)
E:/proj/riscv/Seekfree_CH32V103R8T6_Opensource_Library/Libraries/seekfree_libraries/zf_usb_cdc.c:364
                                            break;
    1d52:	a861                	j	1dea <USB_DevTransProcess+0x554>
E:/proj/riscv/Seekfree_CH32V103R8T6_Opensource_Library/Libraries/seekfree_libraries/zf_usb_cdc.c:367
                                            R8_UEP2_CTRL = (R8_UEP2_CTRL & ~( RB_UEP_R_TOG|MASK_UEP_R_RES )) | UEP_R_RES_ACK;
    1d54:	400237b7          	lui	a5,0x40023
    1d58:	43a78793          	addi	a5,a5,1082 # 4002343a <_eusrstack+0x2001e43a>
    1d5c:	0007c783          	lbu	a5,0(a5)
    1d60:	0ff7f713          	andi	a4,a5,255
    1d64:	400237b7          	lui	a5,0x40023
    1d68:	43a78793          	addi	a5,a5,1082 # 4002343a <_eusrstack+0x2001e43a>
    1d6c:	07377713          	andi	a4,a4,115
    1d70:	0ff77713          	andi	a4,a4,255
    1d74:	00e78023          	sb	a4,0(a5)
E:/proj/riscv/Seekfree_CH32V103R8T6_Opensource_Library/Libraries/seekfree_libraries/zf_usb_cdc.c:368
                                            break;
    1d78:	a88d                	j	1dea <USB_DevTransProcess+0x554>
E:/proj/riscv/Seekfree_CH32V103R8T6_Opensource_Library/Libraries/seekfree_libraries/zf_usb_cdc.c:371
                                            R8_UEP1_CTRL = (R8_UEP1_CTRL & ~( RB_UEP_T_TOG|MASK_UEP_T_RES )) | UEP_T_RES_NAK;
    1d7a:	400237b7          	lui	a5,0x40023
    1d7e:	43678793          	addi	a5,a5,1078 # 40023436 <_eusrstack+0x2001e436>
    1d82:	0007c783          	lbu	a5,0(a5)
    1d86:	0ff7f793          	andi	a5,a5,255
    1d8a:	07e2                	slli	a5,a5,0x18
    1d8c:	87e1                	srai	a5,a5,0x18
    1d8e:	fbc7f793          	andi	a5,a5,-68
    1d92:	07e2                	slli	a5,a5,0x18
    1d94:	87e1                	srai	a5,a5,0x18
    1d96:	0027e793          	ori	a5,a5,2
    1d9a:	01879713          	slli	a4,a5,0x18
    1d9e:	8761                	srai	a4,a4,0x18
    1da0:	400237b7          	lui	a5,0x40023
    1da4:	43678793          	addi	a5,a5,1078 # 40023436 <_eusrstack+0x2001e436>
    1da8:	0ff77713          	andi	a4,a4,255
    1dac:	00e78023          	sb	a4,0(a5)
E:/proj/riscv/Seekfree_CH32V103R8T6_Opensource_Library/Libraries/seekfree_libraries/zf_usb_cdc.c:372
                                            break;
    1db0:	a82d                	j	1dea <USB_DevTransProcess+0x554>
E:/proj/riscv/Seekfree_CH32V103R8T6_Opensource_Library/Libraries/seekfree_libraries/zf_usb_cdc.c:375
                                            R8_UEP1_CTRL = (R8_UEP1_CTRL & ~( RB_UEP_R_TOG|MASK_UEP_R_RES )) | UEP_R_RES_ACK;
    1db2:	400237b7          	lui	a5,0x40023
    1db6:	43678793          	addi	a5,a5,1078 # 40023436 <_eusrstack+0x2001e436>
    1dba:	0007c783          	lbu	a5,0(a5)
    1dbe:	0ff7f713          	andi	a4,a5,255
    1dc2:	400237b7          	lui	a5,0x40023
    1dc6:	43678793          	addi	a5,a5,1078 # 40023436 <_eusrstack+0x2001e436>
    1dca:	07377713          	andi	a4,a4,115
    1dce:	0ff77713          	andi	a4,a4,255
    1dd2:	00e78023          	sb	a4,0(a5)
E:/proj/riscv/Seekfree_CH32V103R8T6_Opensource_Library/Libraries/seekfree_libraries/zf_usb_cdc.c:376
                                            break;
    1dd6:	a811                	j	1dea <USB_DevTransProcess+0x554>
E:/proj/riscv/Seekfree_CH32V103R8T6_Opensource_Library/Libraries/seekfree_libraries/zf_usb_cdc.c:379
                                            errflag = 0xFF;
    1dd8:	57fd                	li	a5,-1
    1dda:	fef40623          	sb	a5,-20(s0)
E:/proj/riscv/Seekfree_CH32V103R8T6_Opensource_Library/Libraries/seekfree_libraries/zf_usb_cdc.c:380
                                            break;
    1dde:	0001                	nop
    1de0:	a029                	j	1dea <USB_DevTransProcess+0x554>
E:/proj/riscv/Seekfree_CH32V103R8T6_Opensource_Library/Libraries/seekfree_libraries/zf_usb_cdc.c:384
                                else    errflag = 0xFF;
    1de2:	57fd                	li	a5,-1
    1de4:	fef40623          	sb	a5,-20(s0)
E:/proj/riscv/Seekfree_CH32V103R8T6_Opensource_Library/Libraries/seekfree_libraries/zf_usb_cdc.c:385
                                break;
    1de8:	a409                	j	1fea <USB_DevTransProcess+0x754>
E:/proj/riscv/Seekfree_CH32V103R8T6_Opensource_Library/Libraries/seekfree_libraries/zf_usb_cdc.c:385 (discriminator 5)
    1dea:	a401                	j	1fea <USB_DevTransProcess+0x754>
E:/proj/riscv/Seekfree_CH32V103R8T6_Opensource_Library/Libraries/seekfree_libraries/zf_usb_cdc.c:388

                            case USB_SET_FEATURE:                                          /* Set Feature */
                                if( ( pSetupReqPak->bRequestType & 0x1F ) == USB_REQ_RECIP_DEVICE )                  /* 设置设备 */
    1dec:	8101a783          	lw	a5,-2032(gp) # 20000020 <_edata>
    1df0:	0007c783          	lbu	a5,0(a5)
    1df4:	8bfd                	andi	a5,a5,31
    1df6:	ef8d                	bnez	a5,1e30 <USB_DevTransProcess+0x59a>
E:/proj/riscv/Seekfree_CH32V103R8T6_Opensource_Library/Libraries/seekfree_libraries/zf_usb_cdc.c:390
                                {
                                    if(( pSetupReqPak->wValue) == 0x01 )
    1df8:	8101a783          	lw	a5,-2032(gp) # 20000020 <_edata>
    1dfc:	0027c703          	lbu	a4,2(a5)
    1e00:	0037c783          	lbu	a5,3(a5)
    1e04:	07a2                	slli	a5,a5,0x8
    1e06:	8fd9                	or	a5,a5,a4
    1e08:	01079713          	slli	a4,a5,0x10
    1e0c:	8341                	srli	a4,a4,0x10
    1e0e:	4785                	li	a5,1
    1e10:	00f71c63          	bne	a4,a5,1e28 <USB_DevTransProcess+0x592>
E:/proj/riscv/Seekfree_CH32V103R8T6_Opensource_Library/Libraries/seekfree_libraries/zf_usb_cdc.c:392
                                    {
                                        if( MyCfgDescr[ 7 ] & 0x20 )
    1e14:	0a000793          	li	a5,160
    1e18:	0207f793          	andi	a5,a5,32
    1e1c:	1c079963          	bnez	a5,1fee <USB_DevTransProcess+0x758>
E:/proj/riscv/Seekfree_CH32V103R8T6_Opensource_Library/Libraries/seekfree_libraries/zf_usb_cdc.c:398
                                        {
                                            ;
                                        }
                                        else
                                        {
                                            errflag = 0xFF;                                        /* 操作失败 */
    1e20:	57fd                	li	a5,-1
    1e22:	fef40623          	sb	a5,-20(s0)
E:/proj/riscv/Seekfree_CH32V103R8T6_Opensource_Library/Libraries/seekfree_libraries/zf_usb_cdc.c:438
                                }
                                else
                                {
                                    errflag = 0xFF;                                          /* 操作失败 */
                                }
                                break;
    1e26:	a2e1                	j	1fee <USB_DevTransProcess+0x758>
E:/proj/riscv/Seekfree_CH32V103R8T6_Opensource_Library/Libraries/seekfree_libraries/zf_usb_cdc.c:403
                                         errflag = 0xFF;                                           /* 操作失败 */
    1e28:	57fd                	li	a5,-1
    1e2a:	fef40623          	sb	a5,-20(s0)
E:/proj/riscv/Seekfree_CH32V103R8T6_Opensource_Library/Libraries/seekfree_libraries/zf_usb_cdc.c:438
                                break;
    1e2e:	a2c1                	j	1fee <USB_DevTransProcess+0x758>
E:/proj/riscv/Seekfree_CH32V103R8T6_Opensource_Library/Libraries/seekfree_libraries/zf_usb_cdc.c:406
                                else if( ( pSetupReqPak->bRequestType & 0x1F ) == USB_REQ_RECIP_ENDP )                /* 设置端点 */
    1e30:	8101a783          	lw	a5,-2032(gp) # 20000020 <_edata>
    1e34:	0007c783          	lbu	a5,0(a5)
    1e38:	01f7f713          	andi	a4,a5,31
    1e3c:	4789                	li	a5,2
    1e3e:	14f71363          	bne	a4,a5,1f84 <USB_DevTransProcess+0x6ee>
E:/proj/riscv/Seekfree_CH32V103R8T6_Opensource_Library/Libraries/seekfree_libraries/zf_usb_cdc.c:408
                                    if(( pSetupReqPak->wValue) == 0x00 )
    1e42:	8101a783          	lw	a5,-2032(gp) # 20000020 <_edata>
    1e46:	0027c703          	lbu	a4,2(a5)
    1e4a:	0037c783          	lbu	a5,3(a5)
    1e4e:	07a2                	slli	a5,a5,0x8
    1e50:	8fd9                	or	a5,a5,a4
    1e52:	07c2                	slli	a5,a5,0x10
    1e54:	83c1                	srli	a5,a5,0x10
    1e56:	12079363          	bnez	a5,1f7c <USB_DevTransProcess+0x6e6>
E:/proj/riscv/Seekfree_CH32V103R8T6_Opensource_Library/Libraries/seekfree_libraries/zf_usb_cdc.c:410
                                        switch(pSetupReqPak->wIndex)
    1e5a:	8101a783          	lw	a5,-2032(gp) # 20000020 <_edata>
    1e5e:	0047c703          	lbu	a4,4(a5)
    1e62:	0057c783          	lbu	a5,5(a5)
    1e66:	07a2                	slli	a5,a5,0x8
    1e68:	8fd9                	or	a5,a5,a4
    1e6a:	07c2                	slli	a5,a5,0x10
    1e6c:	83c1                	srli	a5,a5,0x10
    1e6e:	4709                	li	a4,2
    1e70:	04e78d63          	beq	a5,a4,1eca <USB_DevTransProcess+0x634>
    1e74:	4709                	li	a4,2
    1e76:	00f74663          	blt	a4,a5,1e82 <USB_DevTransProcess+0x5ec>
    1e7a:	4705                	li	a4,1
    1e7c:	0ae78f63          	beq	a5,a4,1f3a <USB_DevTransProcess+0x6a4>
    1e80:	a8cd                	j	1f72 <USB_DevTransProcess+0x6dc>
    1e82:	08100713          	li	a4,129
    1e86:	06e78e63          	beq	a5,a4,1f02 <USB_DevTransProcess+0x66c>
    1e8a:	08200713          	li	a4,130
    1e8e:	0ee79263          	bne	a5,a4,1f72 <USB_DevTransProcess+0x6dc>
E:/proj/riscv/Seekfree_CH32V103R8T6_Opensource_Library/Libraries/seekfree_libraries/zf_usb_cdc.c:413
                                                    R8_UEP2_CTRL = (R8_UEP2_CTRL & (~RB_UEP_R_TOG)) | UEP_T_RES_STALL;/* 设置端点2 IN STALL */
    1e92:	400237b7          	lui	a5,0x40023
    1e96:	43a78793          	addi	a5,a5,1082 # 4002343a <_eusrstack+0x2001e43a>
    1e9a:	0007c783          	lbu	a5,0(a5)
    1e9e:	0ff7f793          	andi	a5,a5,255
    1ea2:	07e2                	slli	a5,a5,0x18
    1ea4:	87e1                	srai	a5,a5,0x18
    1ea6:	07c7f793          	andi	a5,a5,124
    1eaa:	07e2                	slli	a5,a5,0x18
    1eac:	87e1                	srai	a5,a5,0x18
    1eae:	0037e793          	ori	a5,a5,3
    1eb2:	01879713          	slli	a4,a5,0x18
    1eb6:	8761                	srai	a4,a4,0x18
    1eb8:	400237b7          	lui	a5,0x40023
    1ebc:	43a78793          	addi	a5,a5,1082 # 4002343a <_eusrstack+0x2001e43a>
    1ec0:	0ff77713          	andi	a4,a4,255
    1ec4:	00e78023          	sb	a4,0(a5)
E:/proj/riscv/Seekfree_CH32V103R8T6_Opensource_Library/Libraries/seekfree_libraries/zf_usb_cdc.c:414
                                                    break;
    1ec8:	a0d1                	j	1f8c <USB_DevTransProcess+0x6f6>
E:/proj/riscv/Seekfree_CH32V103R8T6_Opensource_Library/Libraries/seekfree_libraries/zf_usb_cdc.c:416
                                                    R8_UEP2_CTRL = (R8_UEP2_CTRL & (~RB_UEP_R_TOG)) | UEP_R_RES_STALL;/* 设置端点2 OUT Stall */
    1eca:	400237b7          	lui	a5,0x40023
    1ece:	43a78793          	addi	a5,a5,1082 # 4002343a <_eusrstack+0x2001e43a>
    1ed2:	0007c783          	lbu	a5,0(a5)
    1ed6:	0ff7f793          	andi	a5,a5,255
    1eda:	07e2                	slli	a5,a5,0x18
    1edc:	87e1                	srai	a5,a5,0x18
    1ede:	0737f793          	andi	a5,a5,115
    1ee2:	07e2                	slli	a5,a5,0x18
    1ee4:	87e1                	srai	a5,a5,0x18
    1ee6:	00c7e793          	ori	a5,a5,12
    1eea:	01879713          	slli	a4,a5,0x18
    1eee:	8761                	srai	a4,a4,0x18
    1ef0:	400237b7          	lui	a5,0x40023
    1ef4:	43a78793          	addi	a5,a5,1082 # 4002343a <_eusrstack+0x2001e43a>
    1ef8:	0ff77713          	andi	a4,a4,255
    1efc:	00e78023          	sb	a4,0(a5)
E:/proj/riscv/Seekfree_CH32V103R8T6_Opensource_Library/Libraries/seekfree_libraries/zf_usb_cdc.c:417
                                                    break;
    1f00:	a071                	j	1f8c <USB_DevTransProcess+0x6f6>
E:/proj/riscv/Seekfree_CH32V103R8T6_Opensource_Library/Libraries/seekfree_libraries/zf_usb_cdc.c:419
                                                    R8_UEP1_CTRL = (R8_UEP1_CTRL & (~RB_UEP_R_TOG)) | UEP_T_RES_STALL;/* 设置端点1 IN STALL */
    1f02:	400237b7          	lui	a5,0x40023
    1f06:	43678793          	addi	a5,a5,1078 # 40023436 <_eusrstack+0x2001e436>
    1f0a:	0007c783          	lbu	a5,0(a5)
    1f0e:	0ff7f793          	andi	a5,a5,255
    1f12:	07e2                	slli	a5,a5,0x18
    1f14:	87e1                	srai	a5,a5,0x18
    1f16:	07c7f793          	andi	a5,a5,124
    1f1a:	07e2                	slli	a5,a5,0x18
    1f1c:	87e1                	srai	a5,a5,0x18
    1f1e:	0037e793          	ori	a5,a5,3
    1f22:	01879713          	slli	a4,a5,0x18
    1f26:	8761                	srai	a4,a4,0x18
    1f28:	400237b7          	lui	a5,0x40023
    1f2c:	43678793          	addi	a5,a5,1078 # 40023436 <_eusrstack+0x2001e436>
    1f30:	0ff77713          	andi	a4,a4,255
    1f34:	00e78023          	sb	a4,0(a5)
E:/proj/riscv/Seekfree_CH32V103R8T6_Opensource_Library/Libraries/seekfree_libraries/zf_usb_cdc.c:420
                                                    break;
    1f38:	a891                	j	1f8c <USB_DevTransProcess+0x6f6>
E:/proj/riscv/Seekfree_CH32V103R8T6_Opensource_Library/Libraries/seekfree_libraries/zf_usb_cdc.c:422
                                                    R8_UEP1_CTRL = (R8_UEP1_CTRL & (~RB_UEP_R_TOG)) | UEP_R_RES_STALL;/* 设置端点1 OUT Stall */
    1f3a:	400237b7          	lui	a5,0x40023
    1f3e:	43678793          	addi	a5,a5,1078 # 40023436 <_eusrstack+0x2001e436>
    1f42:	0007c783          	lbu	a5,0(a5)
    1f46:	0ff7f793          	andi	a5,a5,255
    1f4a:	07e2                	slli	a5,a5,0x18
    1f4c:	87e1                	srai	a5,a5,0x18
    1f4e:	0737f793          	andi	a5,a5,115
    1f52:	07e2                	slli	a5,a5,0x18
    1f54:	87e1                	srai	a5,a5,0x18
    1f56:	00c7e793          	ori	a5,a5,12
    1f5a:	01879713          	slli	a4,a5,0x18
    1f5e:	8761                	srai	a4,a4,0x18
    1f60:	400237b7          	lui	a5,0x40023
    1f64:	43678793          	addi	a5,a5,1078 # 40023436 <_eusrstack+0x2001e436>
    1f68:	0ff77713          	andi	a4,a4,255
    1f6c:	00e78023          	sb	a4,0(a5)
E:/proj/riscv/Seekfree_CH32V103R8T6_Opensource_Library/Libraries/seekfree_libraries/zf_usb_cdc.c:423
                                                    break;
    1f70:	a831                	j	1f8c <USB_DevTransProcess+0x6f6>
E:/proj/riscv/Seekfree_CH32V103R8T6_Opensource_Library/Libraries/seekfree_libraries/zf_usb_cdc.c:425
                                                errflag = 0xFF;                              /* 操作失败 */
    1f72:	57fd                	li	a5,-1
    1f74:	fef40623          	sb	a5,-20(s0)
E:/proj/riscv/Seekfree_CH32V103R8T6_Opensource_Library/Libraries/seekfree_libraries/zf_usb_cdc.c:426
                                                break;
    1f78:	0001                	nop
    1f7a:	a809                	j	1f8c <USB_DevTransProcess+0x6f6>
E:/proj/riscv/Seekfree_CH32V103R8T6_Opensource_Library/Libraries/seekfree_libraries/zf_usb_cdc.c:431
                                        errflag = 0xFF;                                      /* 操作失败 */
    1f7c:	57fd                	li	a5,-1
    1f7e:	fef40623          	sb	a5,-20(s0)
E:/proj/riscv/Seekfree_CH32V103R8T6_Opensource_Library/Libraries/seekfree_libraries/zf_usb_cdc.c:438
                                break;
    1f82:	a0b5                	j	1fee <USB_DevTransProcess+0x758>
E:/proj/riscv/Seekfree_CH32V103R8T6_Opensource_Library/Libraries/seekfree_libraries/zf_usb_cdc.c:436
                                    errflag = 0xFF;                                          /* 操作失败 */
    1f84:	57fd                	li	a5,-1
    1f86:	fef40623          	sb	a5,-20(s0)
E:/proj/riscv/Seekfree_CH32V103R8T6_Opensource_Library/Libraries/seekfree_libraries/zf_usb_cdc.c:438
                                break;
    1f8a:	a095                	j	1fee <USB_DevTransProcess+0x758>
E:/proj/riscv/Seekfree_CH32V103R8T6_Opensource_Library/Libraries/seekfree_libraries/zf_usb_cdc.c:438 (discriminator 8)
    1f8c:	a08d                	j	1fee <USB_DevTransProcess+0x758>
E:/proj/riscv/Seekfree_CH32V103R8T6_Opensource_Library/Libraries/seekfree_libraries/zf_usb_cdc.c:441

                            case USB_GET_INTERFACE:
                                pEP0_DataBuf[0] = 0x00;
    1f8e:	8101a783          	lw	a5,-2032(gp) # 20000020 <_edata>
    1f92:	00078023          	sb	zero,0(a5)
E:/proj/riscv/Seekfree_CH32V103R8T6_Opensource_Library/Libraries/seekfree_libraries/zf_usb_cdc.c:442
                                if ( SetupReqLen > 1 ) SetupReqLen = 1;
    1f96:	83e1d703          	lhu	a4,-1986(gp) # 2000004e <SetupReqLen>
    1f9a:	4785                	li	a5,1
    1f9c:	04e7fb63          	bgeu	a5,a4,1ff2 <USB_DevTransProcess+0x75c>
E:/proj/riscv/Seekfree_CH32V103R8T6_Opensource_Library/Libraries/seekfree_libraries/zf_usb_cdc.c:442 (discriminator 1)
    1fa0:	4705                	li	a4,1
    1fa2:	82e19f23          	sh	a4,-1986(gp) # 2000004e <SetupReqLen>
E:/proj/riscv/Seekfree_CH32V103R8T6_Opensource_Library/Libraries/seekfree_libraries/zf_usb_cdc.c:443 (discriminator 1)
                                break;
    1fa6:	a0b1                	j	1ff2 <USB_DevTransProcess+0x75c>
E:/proj/riscv/Seekfree_CH32V103R8T6_Opensource_Library/Libraries/seekfree_libraries/zf_usb_cdc.c:446

                            case USB_GET_STATUS:
                                pEP0_DataBuf[0] = 0x00;
    1fa8:	8101a783          	lw	a5,-2032(gp) # 20000020 <_edata>
    1fac:	00078023          	sb	zero,0(a5)
E:/proj/riscv/Seekfree_CH32V103R8T6_Opensource_Library/Libraries/seekfree_libraries/zf_usb_cdc.c:447
                                pEP0_DataBuf[1] = 0x00;
    1fb0:	8101a783          	lw	a5,-2032(gp) # 20000020 <_edata>
    1fb4:	0785                	addi	a5,a5,1
    1fb6:	00078023          	sb	zero,0(a5)
E:/proj/riscv/Seekfree_CH32V103R8T6_Opensource_Library/Libraries/seekfree_libraries/zf_usb_cdc.c:448
                                if ( SetupReqLen > 2 ) SetupReqLen = 2;
    1fba:	83e1d703          	lhu	a4,-1986(gp) # 2000004e <SetupReqLen>
    1fbe:	4789                	li	a5,2
    1fc0:	02e7fb63          	bgeu	a5,a4,1ff6 <USB_DevTransProcess+0x760>
E:/proj/riscv/Seekfree_CH32V103R8T6_Opensource_Library/Libraries/seekfree_libraries/zf_usb_cdc.c:448 (discriminator 1)
    1fc4:	4709                	li	a4,2
    1fc6:	82e19f23          	sh	a4,-1986(gp) # 2000004e <SetupReqLen>
E:/proj/riscv/Seekfree_CH32V103R8T6_Opensource_Library/Libraries/seekfree_libraries/zf_usb_cdc.c:449 (discriminator 1)
                                break;
    1fca:	a035                	j	1ff6 <USB_DevTransProcess+0x760>
E:/proj/riscv/Seekfree_CH32V103R8T6_Opensource_Library/Libraries/seekfree_libraries/zf_usb_cdc.c:452

                            default:
                                errflag = 0xff;
    1fcc:	57fd                	li	a5,-1
    1fce:	fef40623          	sb	a5,-20(s0)
E:/proj/riscv/Seekfree_CH32V103R8T6_Opensource_Library/Libraries/seekfree_libraries/zf_usb_cdc.c:453
                                break;
    1fd2:	0001                	nop
    1fd4:	a015                	j	1ff8 <USB_DevTransProcess+0x762>
E:/proj/riscv/Seekfree_CH32V103R8T6_Opensource_Library/Libraries/seekfree_libraries/zf_usb_cdc.c:457
                        }
                    }
                }
                else    errflag = 0xff;
    1fd6:	57fd                	li	a5,-1
    1fd8:	fef40623          	sb	a5,-20(s0)
    1fdc:	a831                	j	1ff8 <USB_DevTransProcess+0x762>
E:/proj/riscv/Seekfree_CH32V103R8T6_Opensource_Library/Libraries/seekfree_libraries/zf_usb_cdc.c:259
                                break;
    1fde:	0001                	nop
    1fe0:	a821                	j	1ff8 <USB_DevTransProcess+0x762>
E:/proj/riscv/Seekfree_CH32V103R8T6_Opensource_Library/Libraries/seekfree_libraries/zf_usb_cdc.c:261
                                break;
    1fe2:	0001                	nop
    1fe4:	a811                	j	1ff8 <USB_DevTransProcess+0x762>
E:/proj/riscv/Seekfree_CH32V103R8T6_Opensource_Library/Libraries/seekfree_libraries/zf_usb_cdc.c:333
                                break;
    1fe6:	0001                	nop
    1fe8:	a801                	j	1ff8 <USB_DevTransProcess+0x762>
E:/proj/riscv/Seekfree_CH32V103R8T6_Opensource_Library/Libraries/seekfree_libraries/zf_usb_cdc.c:385
                                break;
    1fea:	0001                	nop
    1fec:	a031                	j	1ff8 <USB_DevTransProcess+0x762>
E:/proj/riscv/Seekfree_CH32V103R8T6_Opensource_Library/Libraries/seekfree_libraries/zf_usb_cdc.c:438
                                break;
    1fee:	0001                	nop
    1ff0:	a021                	j	1ff8 <USB_DevTransProcess+0x762>
E:/proj/riscv/Seekfree_CH32V103R8T6_Opensource_Library/Libraries/seekfree_libraries/zf_usb_cdc.c:443
                                break;
    1ff2:	0001                	nop
    1ff4:	a011                	j	1ff8 <USB_DevTransProcess+0x762>
E:/proj/riscv/Seekfree_CH32V103R8T6_Opensource_Library/Libraries/seekfree_libraries/zf_usb_cdc.c:449
                                break;
    1ff6:	0001                	nop
E:/proj/riscv/Seekfree_CH32V103R8T6_Opensource_Library/Libraries/seekfree_libraries/zf_usb_cdc.c:459

                if( errflag == 0xff)
    1ff8:	fec44703          	lbu	a4,-20(s0)
    1ffc:	0ff00793          	li	a5,255
    2000:	00f71b63          	bne	a4,a5,2016 <USB_DevTransProcess+0x780>
E:/proj/riscv/Seekfree_CH32V103R8T6_Opensource_Library/Libraries/seekfree_libraries/zf_usb_cdc.c:461
                {
                    R8_UEP0_CTRL = RB_UEP_R_TOG | RB_UEP_T_TOG | UEP_R_RES_STALL | UEP_T_RES_STALL;
    2004:	400237b7          	lui	a5,0x40023
    2008:	43278793          	addi	a5,a5,1074 # 40023432 <_eusrstack+0x2001e432>
    200c:	fcf00713          	li	a4,-49
    2010:	00e78023          	sb	a4,0(a5)
E:/proj/riscv/Seekfree_CH32V103R8T6_Opensource_Library/Libraries/seekfree_libraries/zf_usb_cdc.c:475
                    else  len = 0;

                    R8_UEP0_T_LEN = len;
                    R8_UEP0_CTRL = RB_UEP_R_TOG | RB_UEP_T_TOG | UEP_R_RES_ACK | UEP_T_RES_ACK;
                }
                break;
    2014:	a489                	j	2256 <USB_DevTransProcess+0x9c0>
E:/proj/riscv/Seekfree_CH32V103R8T6_Opensource_Library/Libraries/seekfree_libraries/zf_usb_cdc.c:465
                    if( chtype & 0x80 )
    2016:	fee40783          	lb	a5,-18(s0)
    201a:	0207df63          	bgez	a5,2058 <USB_DevTransProcess+0x7c2>
E:/proj/riscv/Seekfree_CH32V103R8T6_Opensource_Library/Libraries/seekfree_libraries/zf_usb_cdc.c:467
                        len = (SetupReqLen>DevEP0SIZE) ? DevEP0SIZE : SetupReqLen;
    201e:	83e1d783          	lhu	a5,-1986(gp) # 2000004e <SetupReqLen>
    2022:	01079693          	slli	a3,a5,0x10
    2026:	82c1                	srli	a3,a3,0x10
    2028:	04000713          	li	a4,64
    202c:	00d77463          	bgeu	a4,a3,2034 <USB_DevTransProcess+0x79e>
    2030:	04000793          	li	a5,64
    2034:	07c2                	slli	a5,a5,0x10
    2036:	83c1                	srli	a5,a5,0x10
    2038:	fef407a3          	sb	a5,-17(s0)
E:/proj/riscv/Seekfree_CH32V103R8T6_Opensource_Library/Libraries/seekfree_libraries/zf_usb_cdc.c:468
                        SetupReqLen -= len;
    203c:	83e1d703          	lhu	a4,-1986(gp) # 2000004e <SetupReqLen>
    2040:	fef44783          	lbu	a5,-17(s0)
    2044:	07c2                	slli	a5,a5,0x10
    2046:	83c1                	srli	a5,a5,0x10
    2048:	40f707b3          	sub	a5,a4,a5
    204c:	01079713          	slli	a4,a5,0x10
    2050:	8341                	srli	a4,a4,0x10
    2052:	82e19f23          	sh	a4,-1986(gp) # 2000004e <SetupReqLen>
    2056:	a019                	j	205c <USB_DevTransProcess+0x7c6>
E:/proj/riscv/Seekfree_CH32V103R8T6_Opensource_Library/Libraries/seekfree_libraries/zf_usb_cdc.c:470
                    else  len = 0;
    2058:	fe0407a3          	sb	zero,-17(s0)
E:/proj/riscv/Seekfree_CH32V103R8T6_Opensource_Library/Libraries/seekfree_libraries/zf_usb_cdc.c:472
                    R8_UEP0_T_LEN = len;
    205c:	400237b7          	lui	a5,0x40023
    2060:	43078793          	addi	a5,a5,1072 # 40023430 <_eusrstack+0x2001e430>
    2064:	fef44703          	lbu	a4,-17(s0)
    2068:	00e78023          	sb	a4,0(a5)
E:/proj/riscv/Seekfree_CH32V103R8T6_Opensource_Library/Libraries/seekfree_libraries/zf_usb_cdc.c:473
                    R8_UEP0_CTRL = RB_UEP_R_TOG | RB_UEP_T_TOG | UEP_R_RES_ACK | UEP_T_RES_ACK;
    206c:	400237b7          	lui	a5,0x40023
    2070:	43278793          	addi	a5,a5,1074 # 40023432 <_eusrstack+0x2001e432>
    2074:	fc000713          	li	a4,-64
    2078:	00e78023          	sb	a4,0(a5)
E:/proj/riscv/Seekfree_CH32V103R8T6_Opensource_Library/Libraries/seekfree_libraries/zf_usb_cdc.c:475
                break;
    207c:	aae9                	j	2256 <USB_DevTransProcess+0x9c0>
E:/proj/riscv/Seekfree_CH32V103R8T6_Opensource_Library/Libraries/seekfree_libraries/zf_usb_cdc.c:478

            case UIS_TOKEN_IN:
                switch( SetupReqCode )
    207e:	83d1c783          	lbu	a5,-1987(gp) # 2000004d <SetupReqCode>
    2082:	4715                	li	a4,5
    2084:	08e78e63          	beq	a5,a4,2120 <USB_DevTransProcess+0x88a>
    2088:	4719                	li	a4,6
    208a:	0ee79263          	bne	a5,a4,216e <USB_DevTransProcess+0x8d8>
E:/proj/riscv/Seekfree_CH32V103R8T6_Opensource_Library/Libraries/seekfree_libraries/zf_usb_cdc.c:481
                {
                    case USB_GET_DESCRIPTOR:
                        len = SetupReqLen >= DevEP0SIZE ? DevEP0SIZE : SetupReqLen;
    208e:	83e1d783          	lhu	a5,-1986(gp) # 2000004e <SetupReqLen>
    2092:	01079693          	slli	a3,a5,0x10
    2096:	82c1                	srli	a3,a3,0x10
    2098:	04000713          	li	a4,64
    209c:	00d77463          	bgeu	a4,a3,20a4 <USB_DevTransProcess+0x80e>
    20a0:	04000793          	li	a5,64
    20a4:	07c2                	slli	a5,a5,0x10
    20a6:	83c1                	srli	a5,a5,0x10
    20a8:	fef407a3          	sb	a5,-17(s0)
E:/proj/riscv/Seekfree_CH32V103R8T6_Opensource_Library/Libraries/seekfree_libraries/zf_usb_cdc.c:482
                        memcpy( pEP0_DataBuf, pDescr, len );
    20ac:	8101a703          	lw	a4,-2032(gp) # 20000020 <_edata>
    20b0:	8441a783          	lw	a5,-1980(gp) # 20000054 <pDescr>
    20b4:	fef44683          	lbu	a3,-17(s0)
    20b8:	8636                	mv	a2,a3
    20ba:	85be                	mv	a1,a5
    20bc:	853a                	mv	a0,a4
    20be:	7b2000ef          	jal	ra,2870 <memcpy>
E:/proj/riscv/Seekfree_CH32V103R8T6_Opensource_Library/Libraries/seekfree_libraries/zf_usb_cdc.c:483
                        SetupReqLen -= len;
    20c2:	83e1d703          	lhu	a4,-1986(gp) # 2000004e <SetupReqLen>
    20c6:	fef44783          	lbu	a5,-17(s0)
    20ca:	07c2                	slli	a5,a5,0x10
    20cc:	83c1                	srli	a5,a5,0x10
    20ce:	40f707b3          	sub	a5,a4,a5
    20d2:	01079713          	slli	a4,a5,0x10
    20d6:	8341                	srli	a4,a4,0x10
    20d8:	82e19f23          	sh	a4,-1986(gp) # 2000004e <SetupReqLen>
E:/proj/riscv/Seekfree_CH32V103R8T6_Opensource_Library/Libraries/seekfree_libraries/zf_usb_cdc.c:484
                        pDescr += len;
    20dc:	8441a703          	lw	a4,-1980(gp) # 20000054 <pDescr>
    20e0:	fef44783          	lbu	a5,-17(s0)
    20e4:	973e                	add	a4,a4,a5
    20e6:	84e1a223          	sw	a4,-1980(gp) # 20000054 <pDescr>
E:/proj/riscv/Seekfree_CH32V103R8T6_Opensource_Library/Libraries/seekfree_libraries/zf_usb_cdc.c:485
                        R8_UEP0_T_LEN = len;
    20ea:	400237b7          	lui	a5,0x40023
    20ee:	43078793          	addi	a5,a5,1072 # 40023430 <_eusrstack+0x2001e430>
    20f2:	fef44703          	lbu	a4,-17(s0)
    20f6:	00e78023          	sb	a4,0(a5)
E:/proj/riscv/Seekfree_CH32V103R8T6_Opensource_Library/Libraries/seekfree_libraries/zf_usb_cdc.c:486
                        R8_UEP0_CTRL ^= RB_UEP_T_TOG;
    20fa:	400237b7          	lui	a5,0x40023
    20fe:	43278793          	addi	a5,a5,1074 # 40023432 <_eusrstack+0x2001e432>
    2102:	0007c783          	lbu	a5,0(a5)
    2106:	0ff7f713          	andi	a4,a5,255
    210a:	400237b7          	lui	a5,0x40023
    210e:	43278793          	addi	a5,a5,1074 # 40023432 <_eusrstack+0x2001e432>
    2112:	04074713          	xori	a4,a4,64
    2116:	0ff77713          	andi	a4,a4,255
    211a:	00e78023          	sb	a4,0(a5)
E:/proj/riscv/Seekfree_CH32V103R8T6_Opensource_Library/Libraries/seekfree_libraries/zf_usb_cdc.c:487
                        break;
    211e:	a0b5                	j	218a <USB_DevTransProcess+0x8f4>
E:/proj/riscv/Seekfree_CH32V103R8T6_Opensource_Library/Libraries/seekfree_libraries/zf_usb_cdc.c:490

                    case USB_SET_ADDRESS:
                        R8_USB_DEV_AD = (R8_USB_DEV_AD&RB_UDA_GP_BIT) | SetupReqLen;
    2120:	400237b7          	lui	a5,0x40023
    2124:	40378793          	addi	a5,a5,1027 # 40023403 <_eusrstack+0x2001e403>
    2128:	0007c783          	lbu	a5,0(a5)
    212c:	0ff7f793          	andi	a5,a5,255
    2130:	07e2                	slli	a5,a5,0x18
    2132:	87e1                	srai	a5,a5,0x18
    2134:	f807f793          	andi	a5,a5,-128
    2138:	01879713          	slli	a4,a5,0x18
    213c:	8761                	srai	a4,a4,0x18
    213e:	83e1d783          	lhu	a5,-1986(gp) # 2000004e <SetupReqLen>
    2142:	07e2                	slli	a5,a5,0x18
    2144:	87e1                	srai	a5,a5,0x18
    2146:	8fd9                	or	a5,a5,a4
    2148:	01879713          	slli	a4,a5,0x18
    214c:	8761                	srai	a4,a4,0x18
    214e:	400237b7          	lui	a5,0x40023
    2152:	40378793          	addi	a5,a5,1027 # 40023403 <_eusrstack+0x2001e403>
    2156:	0ff77713          	andi	a4,a4,255
    215a:	00e78023          	sb	a4,0(a5)
E:/proj/riscv/Seekfree_CH32V103R8T6_Opensource_Library/Libraries/seekfree_libraries/zf_usb_cdc.c:491
                        R8_UEP0_CTRL = UEP_R_RES_ACK | UEP_T_RES_NAK;
    215e:	400237b7          	lui	a5,0x40023
    2162:	43278793          	addi	a5,a5,1074 # 40023432 <_eusrstack+0x2001e432>
    2166:	4709                	li	a4,2
    2168:	00e78023          	sb	a4,0(a5)
E:/proj/riscv/Seekfree_CH32V103R8T6_Opensource_Library/Libraries/seekfree_libraries/zf_usb_cdc.c:492
                        break;
    216c:	a839                	j	218a <USB_DevTransProcess+0x8f4>
E:/proj/riscv/Seekfree_CH32V103R8T6_Opensource_Library/Libraries/seekfree_libraries/zf_usb_cdc.c:495

                    default:
                        R8_UEP0_T_LEN = 0;
    216e:	400237b7          	lui	a5,0x40023
    2172:	43078793          	addi	a5,a5,1072 # 40023430 <_eusrstack+0x2001e430>
    2176:	00078023          	sb	zero,0(a5)
E:/proj/riscv/Seekfree_CH32V103R8T6_Opensource_Library/Libraries/seekfree_libraries/zf_usb_cdc.c:496
                        R8_UEP0_CTRL = UEP_R_RES_ACK | UEP_T_RES_NAK;
    217a:	400237b7          	lui	a5,0x40023
    217e:	43278793          	addi	a5,a5,1074 # 40023432 <_eusrstack+0x2001e432>
    2182:	4709                	li	a4,2
    2184:	00e78023          	sb	a4,0(a5)
E:/proj/riscv/Seekfree_CH32V103R8T6_Opensource_Library/Libraries/seekfree_libraries/zf_usb_cdc.c:497
                        break;
    2188:	0001                	nop
E:/proj/riscv/Seekfree_CH32V103R8T6_Opensource_Library/Libraries/seekfree_libraries/zf_usb_cdc.c:500

                }
                break;
    218a:	a0f1                	j	2256 <USB_DevTransProcess+0x9c0>
E:/proj/riscv/Seekfree_CH32V103R8T6_Opensource_Library/Libraries/seekfree_libraries/zf_usb_cdc.c:503

            case UIS_TOKEN_OUT:
                if(SetupReqCode ==SET_LINE_CODING)                      //设置串口属性
    218c:	83d1c703          	lbu	a4,-1987(gp) # 2000004d <SetupReqCode>
    2190:	02000793          	li	a5,32
    2194:	04f71263          	bne	a4,a5,21d8 <USB_DevTransProcess+0x942>
E:/proj/riscv/Seekfree_CH32V103R8T6_Opensource_Library/Libraries/seekfree_libraries/zf_usb_cdc.c:505
                {
                    if (R8_USB_INT_FG & RB_U_TOG_OK)
    2198:	400237b7          	lui	a5,0x40023
    219c:	40678793          	addi	a5,a5,1030 # 40023406 <_eusrstack+0x2001e406>
    21a0:	0007c783          	lbu	a5,0(a5)
    21a4:	0ff7f793          	andi	a5,a5,255
    21a8:	0407f793          	andi	a5,a5,64
    21ac:	c7c5                	beqz	a5,2254 <USB_DevTransProcess+0x9be>
E:/proj/riscv/Seekfree_CH32V103R8T6_Opensource_Library/Libraries/seekfree_libraries/zf_usb_cdc.c:507
                    {
                        R8_UEP0_T_LEN = 0;
    21ae:	400237b7          	lui	a5,0x40023
    21b2:	43078793          	addi	a5,a5,1072 # 40023430 <_eusrstack+0x2001e430>
    21b6:	00078023          	sb	zero,0(a5)
E:/proj/riscv/Seekfree_CH32V103R8T6_Opensource_Library/Libraries/seekfree_libraries/zf_usb_cdc.c:508
                        R8_UEP0_CTRL |= UEP_R_RES_ACK | UEP_T_RES_ACK;  // 准备上传0包
    21ba:	400237b7          	lui	a5,0x40023
    21be:	43278713          	addi	a4,a5,1074 # 40023432 <_eusrstack+0x2001e432>
    21c2:	400237b7          	lui	a5,0x40023
    21c6:	43278793          	addi	a5,a5,1074 # 40023432 <_eusrstack+0x2001e432>
    21ca:	00074703          	lbu	a4,0(a4)
    21ce:	0ff77713          	andi	a4,a4,255
    21d2:	00e78023          	sb	a4,0(a5)
E:/proj/riscv/Seekfree_CH32V103R8T6_Opensource_Library/Libraries/seekfree_libraries/zf_usb_cdc.c:516
                else
                {
                        R8_UEP0_T_LEN = 0;
                        R8_UEP0_CTRL |= UEP_R_RES_ACK | UEP_T_RES_NAK;  //状态阶段，对IN响应NAK
                }
                break;
    21d6:	a8bd                	j	2254 <USB_DevTransProcess+0x9be>
E:/proj/riscv/Seekfree_CH32V103R8T6_Opensource_Library/Libraries/seekfree_libraries/zf_usb_cdc.c:513
                        R8_UEP0_T_LEN = 0;
    21d8:	400237b7          	lui	a5,0x40023
    21dc:	43078793          	addi	a5,a5,1072 # 40023430 <_eusrstack+0x2001e430>
    21e0:	00078023          	sb	zero,0(a5)
E:/proj/riscv/Seekfree_CH32V103R8T6_Opensource_Library/Libraries/seekfree_libraries/zf_usb_cdc.c:514
                        R8_UEP0_CTRL |= UEP_R_RES_ACK | UEP_T_RES_NAK;  //状态阶段，对IN响应NAK
    21e4:	400237b7          	lui	a5,0x40023
    21e8:	43278793          	addi	a5,a5,1074 # 40023432 <_eusrstack+0x2001e432>
    21ec:	0007c783          	lbu	a5,0(a5)
    21f0:	0ff7f713          	andi	a4,a5,255
    21f4:	400237b7          	lui	a5,0x40023
    21f8:	43278793          	addi	a5,a5,1074 # 40023432 <_eusrstack+0x2001e432>
    21fc:	00276713          	ori	a4,a4,2
    2200:	0ff77713          	andi	a4,a4,255
    2204:	00e78023          	sb	a4,0(a5)
E:/proj/riscv/Seekfree_CH32V103R8T6_Opensource_Library/Libraries/seekfree_libraries/zf_usb_cdc.c:516
                break;
    2208:	a0b1                	j	2254 <USB_DevTransProcess+0x9be>
E:/proj/riscv/Seekfree_CH32V103R8T6_Opensource_Library/Libraries/seekfree_libraries/zf_usb_cdc.c:522

            case UIS_TOKEN_OUT | 1:
                break;

            case UIS_TOKEN_IN | 1:
                R8_UEP1_T_LEN = 0;
    220a:	400237b7          	lui	a5,0x40023
    220e:	43478793          	addi	a5,a5,1076 # 40023434 <_eusrstack+0x2001e434>
    2212:	00078023          	sb	zero,0(a5)
E:/proj/riscv/Seekfree_CH32V103R8T6_Opensource_Library/Libraries/seekfree_libraries/zf_usb_cdc.c:523
                R8_UEP1_CTRL = (R8_UEP1_CTRL & ~MASK_UEP_T_RES) | UEP_T_RES_NAK;
    2216:	400237b7          	lui	a5,0x40023
    221a:	43678793          	addi	a5,a5,1078 # 40023436 <_eusrstack+0x2001e436>
    221e:	0007c783          	lbu	a5,0(a5)
    2222:	0ff7f793          	andi	a5,a5,255
    2226:	07e2                	slli	a5,a5,0x18
    2228:	87e1                	srai	a5,a5,0x18
    222a:	9bf1                	andi	a5,a5,-4
    222c:	07e2                	slli	a5,a5,0x18
    222e:	87e1                	srai	a5,a5,0x18
    2230:	0027e793          	ori	a5,a5,2
    2234:	01879713          	slli	a4,a5,0x18
    2238:	8761                	srai	a4,a4,0x18
    223a:	400237b7          	lui	a5,0x40023
    223e:	43678793          	addi	a5,a5,1078 # 40023436 <_eusrstack+0x2001e436>
    2242:	0ff77713          	andi	a4,a4,255
    2246:	00e78023          	sb	a4,0(a5)
E:/proj/riscv/Seekfree_CH32V103R8T6_Opensource_Library/Libraries/seekfree_libraries/zf_usb_cdc.c:524
                break;
    224a:	a031                	j	2256 <USB_DevTransProcess+0x9c0>
E:/proj/riscv/Seekfree_CH32V103R8T6_Opensource_Library/Libraries/seekfree_libraries/zf_usb_cdc.c:527

            default :
                break;
    224c:	0001                	nop
    224e:	a021                	j	2256 <USB_DevTransProcess+0x9c0>
E:/proj/riscv/Seekfree_CH32V103R8T6_Opensource_Library/Libraries/seekfree_libraries/zf_usb_cdc.c:227
                break;
    2250:	0001                	nop
    2252:	a011                	j	2256 <USB_DevTransProcess+0x9c0>
E:/proj/riscv/Seekfree_CH32V103R8T6_Opensource_Library/Libraries/seekfree_libraries/zf_usb_cdc.c:516
                break;
    2254:	0001                	nop
E:/proj/riscv/Seekfree_CH32V103R8T6_Opensource_Library/Libraries/seekfree_libraries/zf_usb_cdc.c:529
        }
        R8_USB_INT_FG = RB_UIF_TRANSFER;
    2256:	400237b7          	lui	a5,0x40023
    225a:	40678793          	addi	a5,a5,1030 # 40023406 <_eusrstack+0x2001e406>
    225e:	4709                	li	a4,2
    2260:	00e78023          	sb	a4,0(a5)
E:/proj/riscv/Seekfree_CH32V103R8T6_Opensource_Library/Libraries/seekfree_libraries/zf_usb_cdc.c:549
    }
    else
    {
        R8_USB_INT_FG = intflag;
    }
}
    2264:	a869                	j	22fe <USB_DevTransProcess+0xa68>
E:/proj/riscv/Seekfree_CH32V103R8T6_Opensource_Library/Libraries/seekfree_libraries/zf_usb_cdc.c:531
    else if( intflag & RB_UIF_BUS_RST )
    2266:	feb44783          	lbu	a5,-21(s0)
    226a:	8b85                	andi	a5,a5,1
    226c:	cfb9                	beqz	a5,22ca <USB_DevTransProcess+0xa34>
E:/proj/riscv/Seekfree_CH32V103R8T6_Opensource_Library/Libraries/seekfree_libraries/zf_usb_cdc.c:533
        R8_USB_DEV_AD = 0;
    226e:	400237b7          	lui	a5,0x40023
    2272:	40378793          	addi	a5,a5,1027 # 40023403 <_eusrstack+0x2001e403>
    2276:	00078023          	sb	zero,0(a5)
E:/proj/riscv/Seekfree_CH32V103R8T6_Opensource_Library/Libraries/seekfree_libraries/zf_usb_cdc.c:534
        R8_UEP0_CTRL = UEP_R_RES_ACK | UEP_T_RES_NAK;
    227a:	400237b7          	lui	a5,0x40023
    227e:	43278793          	addi	a5,a5,1074 # 40023432 <_eusrstack+0x2001e432>
    2282:	4709                	li	a4,2
    2284:	00e78023          	sb	a4,0(a5)
E:/proj/riscv/Seekfree_CH32V103R8T6_Opensource_Library/Libraries/seekfree_libraries/zf_usb_cdc.c:535
        R8_UEP1_CTRL = UEP_R_RES_ACK | UEP_T_RES_NAK | RB_UEP_AUTO_TOG;
    2288:	400237b7          	lui	a5,0x40023
    228c:	43678793          	addi	a5,a5,1078 # 40023436 <_eusrstack+0x2001e436>
    2290:	4749                	li	a4,18
    2292:	00e78023          	sb	a4,0(a5)
E:/proj/riscv/Seekfree_CH32V103R8T6_Opensource_Library/Libraries/seekfree_libraries/zf_usb_cdc.c:536
        R8_UEP2_CTRL = UEP_R_RES_ACK | UEP_T_RES_NAK | RB_UEP_AUTO_TOG;
    2296:	400237b7          	lui	a5,0x40023
    229a:	43a78793          	addi	a5,a5,1082 # 4002343a <_eusrstack+0x2001e43a>
    229e:	4749                	li	a4,18
    22a0:	00e78023          	sb	a4,0(a5)
E:/proj/riscv/Seekfree_CH32V103R8T6_Opensource_Library/Libraries/seekfree_libraries/zf_usb_cdc.c:537
        R8_USB_INT_FG |= RB_UIF_BUS_RST;
    22a4:	400237b7          	lui	a5,0x40023
    22a8:	40678793          	addi	a5,a5,1030 # 40023406 <_eusrstack+0x2001e406>
    22ac:	0007c783          	lbu	a5,0(a5)
    22b0:	0ff7f713          	andi	a4,a5,255
    22b4:	400237b7          	lui	a5,0x40023
    22b8:	40678793          	addi	a5,a5,1030 # 40023406 <_eusrstack+0x2001e406>
    22bc:	00176713          	ori	a4,a4,1
    22c0:	0ff77713          	andi	a4,a4,255
    22c4:	00e78023          	sb	a4,0(a5)
E:/proj/riscv/Seekfree_CH32V103R8T6_Opensource_Library/Libraries/seekfree_libraries/zf_usb_cdc.c:549
}
    22c8:	a81d                	j	22fe <USB_DevTransProcess+0xa68>
E:/proj/riscv/Seekfree_CH32V103R8T6_Opensource_Library/Libraries/seekfree_libraries/zf_usb_cdc.c:539
    else if( intflag & RB_UIF_SUSPEND )
    22ca:	feb44783          	lbu	a5,-21(s0)
    22ce:	8b91                	andi	a5,a5,4
    22d0:	cf99                	beqz	a5,22ee <USB_DevTransProcess+0xa58>
E:/proj/riscv/Seekfree_CH32V103R8T6_Opensource_Library/Libraries/seekfree_libraries/zf_usb_cdc.c:541
        if ( R8_USB_MIS_ST & RB_UMS_SUSPEND ) {;}
    22d2:	400237b7          	lui	a5,0x40023
    22d6:	40578793          	addi	a5,a5,1029 # 40023405 <_eusrstack+0x2001e405>
    22da:	0007c783          	lbu	a5,0(a5)
E:/proj/riscv/Seekfree_CH32V103R8T6_Opensource_Library/Libraries/seekfree_libraries/zf_usb_cdc.c:543
        R8_USB_INT_FG = RB_UIF_SUSPEND;
    22de:	400237b7          	lui	a5,0x40023
    22e2:	40678793          	addi	a5,a5,1030 # 40023406 <_eusrstack+0x2001e406>
    22e6:	4711                	li	a4,4
    22e8:	00e78023          	sb	a4,0(a5)
E:/proj/riscv/Seekfree_CH32V103R8T6_Opensource_Library/Libraries/seekfree_libraries/zf_usb_cdc.c:549
}
    22ec:	a809                	j	22fe <USB_DevTransProcess+0xa68>
E:/proj/riscv/Seekfree_CH32V103R8T6_Opensource_Library/Libraries/seekfree_libraries/zf_usb_cdc.c:547
        R8_USB_INT_FG = intflag;
    22ee:	400237b7          	lui	a5,0x40023
    22f2:	40678793          	addi	a5,a5,1030 # 40023406 <_eusrstack+0x2001e406>
    22f6:	feb44703          	lbu	a4,-21(s0)
    22fa:	00e78023          	sb	a4,0(a5)
E:/proj/riscv/Seekfree_CH32V103R8T6_Opensource_Library/Libraries/seekfree_libraries/zf_usb_cdc.c:549
}
    22fe:	0001                	nop
    2300:	40f2                	lw	ra,28(sp)
    2302:	4462                	lw	s0,24(sp)
    2304:	6105                	addi	sp,sp,32
    2306:	8082                	ret

00002308 <USBHD_IRQHandler>:
USBHD_IRQHandler():
E:/proj/riscv/Seekfree_CH32V103R8T6_Opensource_Library/Libraries/seekfree_libraries/zf_usb_cdc.c:581
* Description    : This function handles USB exception.
* Input          : None
* Return         : None
*******************************************************************************/
void USBHD_IRQHandler (void)
{
    2308:	1141                	addi	sp,sp,-16
    230a:	c622                	sw	s0,12(sp)
    230c:	0800                	addi	s0,sp,16
E:/proj/riscv/Seekfree_CH32V103R8T6_Opensource_Library/Libraries/seekfree_libraries/zf_usb_cdc.c:582
    USB_DevTransProcess();
    230e:	d88ff0ef          	jal	ra,1896 <USB_DevTransProcess>
E:/proj/riscv/Seekfree_CH32V103R8T6_Opensource_Library/Libraries/seekfree_libraries/zf_usb_cdc.c:583
}
    2312:	0001                	nop
    2314:	4432                	lw	s0,12(sp)
    2316:	0141                	addi	sp,sp,16
    2318:	30200073          	mret

0000231c <EXTI0_IRQHandler>:
EXTI0_IRQHandler():
E:/proj/riscv/Seekfree_CH32V103R8T6_Opensource_Library/Project/USER/isr.c:63
//void RTCAlarm_IRQHandler(void) __attribute__((interrupt("WCH-Interrupt-fast")));
//void USBWakeUp_IRQHandler(void) __attribute__((interrupt("WCH-Interrupt-fast")));
//void USBHD_IRQHandler(void) __attribute__((interrupt("WCH-Interrupt-fast")));

void EXTI0_IRQHandler(void)
{
    231c:	1141                	addi	sp,sp,-16
    231e:	c622                	sw	s0,12(sp)
    2320:	0800                	addi	s0,sp,16
E:/proj/riscv/Seekfree_CH32V103R8T6_Opensource_Library/Project/USER/isr.c:64
    if(SET == EXTI_GetITStatus(EXTI_Line0))
    2322:	4505                	li	a0,1
    2324:	f3bfd0ef          	jal	ra,25e <EXTI_GetITStatus>
    2328:	872a                	mv	a4,a0
    232a:	4785                	li	a5,1
    232c:	00f71563          	bne	a4,a5,2336 <EXTI0_IRQHandler+0x1a>
E:/proj/riscv/Seekfree_CH32V103R8T6_Opensource_Library/Project/USER/isr.c:66
    {
        EXTI_ClearITPendingBit(EXTI_Line0);
    2330:	4505                	li	a0,1
    2332:	f83fd0ef          	jal	ra,2b4 <EXTI_ClearITPendingBit>
E:/proj/riscv/Seekfree_CH32V103R8T6_Opensource_Library/Project/USER/isr.c:68
    }
}
    2336:	0001                	nop
    2338:	4432                	lw	s0,12(sp)
    233a:	0141                	addi	sp,sp,16
    233c:	30200073          	mret

00002340 <EXTI1_IRQHandler>:
EXTI1_IRQHandler():
E:/proj/riscv/Seekfree_CH32V103R8T6_Opensource_Library/Project/USER/isr.c:71

void EXTI1_IRQHandler(void)
{
    2340:	1141                	addi	sp,sp,-16
    2342:	c622                	sw	s0,12(sp)
    2344:	0800                	addi	s0,sp,16
E:/proj/riscv/Seekfree_CH32V103R8T6_Opensource_Library/Project/USER/isr.c:72
    if(SET == EXTI_GetITStatus(EXTI_Line1))
    2346:	4509                	li	a0,2
    2348:	f17fd0ef          	jal	ra,25e <EXTI_GetITStatus>
    234c:	872a                	mv	a4,a0
    234e:	4785                	li	a5,1
    2350:	02f71463          	bne	a4,a5,2378 <EXTI1_IRQHandler+0x38>
E:/proj/riscv/Seekfree_CH32V103R8T6_Opensource_Library/Project/USER/isr.c:74
    {
        if(camera_type == CAMERA_BIN_UART)
    2354:	8301a703          	lw	a4,-2000(gp) # 20000040 <camera_type>
    2358:	478d                	li	a5,3
    235a:	00f71563          	bne	a4,a5,2364 <EXTI1_IRQHandler+0x24>
E:/proj/riscv/Seekfree_CH32V103R8T6_Opensource_Library/Project/USER/isr.c:76
        {
            ov7725_uart_vsync();
    235e:	de1fe0ef          	jal	ra,113e <ov7725_uart_vsync>
    2362:	a801                	j	2372 <EXTI1_IRQHandler+0x32>
E:/proj/riscv/Seekfree_CH32V103R8T6_Opensource_Library/Project/USER/isr.c:78
        }
        else if(camera_type == CAMERA_GRAYSCALE)
    2364:	8301a703          	lw	a4,-2000(gp) # 20000040 <camera_type>
    2368:	4789                	li	a5,2
    236a:	00f71463          	bne	a4,a5,2372 <EXTI1_IRQHandler+0x32>
E:/proj/riscv/Seekfree_CH32V103R8T6_Opensource_Library/Project/USER/isr.c:80
        {
            mt9v03x_vsync();
    236e:	caffe0ef          	jal	ra,101c <mt9v03x_vsync>
E:/proj/riscv/Seekfree_CH32V103R8T6_Opensource_Library/Project/USER/isr.c:82
        }
        EXTI_ClearITPendingBit(EXTI_Line1);
    2372:	4509                	li	a0,2
    2374:	f41fd0ef          	jal	ra,2b4 <EXTI_ClearITPendingBit>
E:/proj/riscv/Seekfree_CH32V103R8T6_Opensource_Library/Project/USER/isr.c:84
    }
}
    2378:	0001                	nop
    237a:	4432                	lw	s0,12(sp)
    237c:	0141                	addi	sp,sp,16
    237e:	30200073          	mret

00002382 <EXTI2_IRQHandler>:
EXTI2_IRQHandler():
E:/proj/riscv/Seekfree_CH32V103R8T6_Opensource_Library/Project/USER/isr.c:87

void EXTI2_IRQHandler(void)
{
    2382:	1141                	addi	sp,sp,-16
    2384:	c622                	sw	s0,12(sp)
    2386:	0800                	addi	s0,sp,16
E:/proj/riscv/Seekfree_CH32V103R8T6_Opensource_Library/Project/USER/isr.c:88
    if(SET == EXTI_GetITStatus(EXTI_Line2))
    2388:	4511                	li	a0,4
    238a:	ed5fd0ef          	jal	ra,25e <EXTI_GetITStatus>
    238e:	872a                	mv	a4,a0
    2390:	4785                	li	a5,1
    2392:	00f71563          	bne	a4,a5,239c <EXTI2_IRQHandler+0x1a>
E:/proj/riscv/Seekfree_CH32V103R8T6_Opensource_Library/Project/USER/isr.c:90
    {
        EXTI_ClearITPendingBit(EXTI_Line2);
    2396:	4511                	li	a0,4
    2398:	f1dfd0ef          	jal	ra,2b4 <EXTI_ClearITPendingBit>
E:/proj/riscv/Seekfree_CH32V103R8T6_Opensource_Library/Project/USER/isr.c:92
    }
}
    239c:	0001                	nop
    239e:	4432                	lw	s0,12(sp)
    23a0:	0141                	addi	sp,sp,16
    23a2:	30200073          	mret

000023a6 <EXTI3_IRQHandler>:
EXTI3_IRQHandler():
E:/proj/riscv/Seekfree_CH32V103R8T6_Opensource_Library/Project/USER/isr.c:95

void EXTI3_IRQHandler(void)
{
    23a6:	1141                	addi	sp,sp,-16
    23a8:	c622                	sw	s0,12(sp)
    23aa:	0800                	addi	s0,sp,16
E:/proj/riscv/Seekfree_CH32V103R8T6_Opensource_Library/Project/USER/isr.c:96
    if(SET == EXTI_GetITStatus(EXTI_Line3))
    23ac:	4521                	li	a0,8
    23ae:	eb1fd0ef          	jal	ra,25e <EXTI_GetITStatus>
    23b2:	872a                	mv	a4,a0
    23b4:	4785                	li	a5,1
    23b6:	00f71563          	bne	a4,a5,23c0 <EXTI3_IRQHandler+0x1a>
E:/proj/riscv/Seekfree_CH32V103R8T6_Opensource_Library/Project/USER/isr.c:98
    {
        EXTI_ClearITPendingBit(EXTI_Line3);
    23ba:	4521                	li	a0,8
    23bc:	ef9fd0ef          	jal	ra,2b4 <EXTI_ClearITPendingBit>
E:/proj/riscv/Seekfree_CH32V103R8T6_Opensource_Library/Project/USER/isr.c:101
    }

}
    23c0:	0001                	nop
    23c2:	4432                	lw	s0,12(sp)
    23c4:	0141                	addi	sp,sp,16
    23c6:	30200073          	mret

000023ca <EXTI4_IRQHandler>:
EXTI4_IRQHandler():
E:/proj/riscv/Seekfree_CH32V103R8T6_Opensource_Library/Project/USER/isr.c:104

void EXTI4_IRQHandler(void)
{
    23ca:	1141                	addi	sp,sp,-16
    23cc:	c622                	sw	s0,12(sp)
    23ce:	0800                	addi	s0,sp,16
E:/proj/riscv/Seekfree_CH32V103R8T6_Opensource_Library/Project/USER/isr.c:105
    if(SET == EXTI_GetITStatus(EXTI_Line4))
    23d0:	4541                	li	a0,16
    23d2:	e8dfd0ef          	jal	ra,25e <EXTI_GetITStatus>
    23d6:	872a                	mv	a4,a0
    23d8:	4785                	li	a5,1
    23da:	00f71563          	bne	a4,a5,23e4 <EXTI4_IRQHandler+0x1a>
E:/proj/riscv/Seekfree_CH32V103R8T6_Opensource_Library/Project/USER/isr.c:107
    {
        EXTI_ClearITPendingBit(EXTI_Line4);
    23de:	4541                	li	a0,16
    23e0:	ed5fd0ef          	jal	ra,2b4 <EXTI_ClearITPendingBit>
E:/proj/riscv/Seekfree_CH32V103R8T6_Opensource_Library/Project/USER/isr.c:110
    }

}
    23e4:	0001                	nop
    23e6:	4432                	lw	s0,12(sp)
    23e8:	0141                	addi	sp,sp,16
    23ea:	30200073          	mret

000023ee <EXTI9_5_IRQHandler>:
EXTI9_5_IRQHandler():
E:/proj/riscv/Seekfree_CH32V103R8T6_Opensource_Library/Project/USER/isr.c:113

void EXTI9_5_IRQHandler(void)
{
    23ee:	1141                	addi	sp,sp,-16
    23f0:	c622                	sw	s0,12(sp)
    23f2:	0800                	addi	s0,sp,16
E:/proj/riscv/Seekfree_CH32V103R8T6_Opensource_Library/Project/USER/isr.c:114
    if(SET == EXTI_GetITStatus(EXTI_Line5))
    23f4:	02000513          	li	a0,32
    23f8:	e67fd0ef          	jal	ra,25e <EXTI_GetITStatus>
    23fc:	872a                	mv	a4,a0
    23fe:	4785                	li	a5,1
    2400:	00f71763          	bne	a4,a5,240e <EXTI9_5_IRQHandler+0x20>
E:/proj/riscv/Seekfree_CH32V103R8T6_Opensource_Library/Project/USER/isr.c:116
    {
        EXTI_ClearITPendingBit(EXTI_Line5);
    2404:	02000513          	li	a0,32
    2408:	eadfd0ef          	jal	ra,2b4 <EXTI_ClearITPendingBit>
E:/proj/riscv/Seekfree_CH32V103R8T6_Opensource_Library/Project/USER/isr.c:134
    }
    else if(SET == EXTI_GetITStatus(EXTI_Line9))
    {
        EXTI_ClearITPendingBit(EXTI_Line9);
    }
}
    240c:	a0a5                	j	2474 <EXTI9_5_IRQHandler+0x86>
E:/proj/riscv/Seekfree_CH32V103R8T6_Opensource_Library/Project/USER/isr.c:118
    else if(SET == EXTI_GetITStatus(EXTI_Line6))
    240e:	04000513          	li	a0,64
    2412:	e4dfd0ef          	jal	ra,25e <EXTI_GetITStatus>
    2416:	872a                	mv	a4,a0
    2418:	4785                	li	a5,1
    241a:	00f71763          	bne	a4,a5,2428 <EXTI9_5_IRQHandler+0x3a>
E:/proj/riscv/Seekfree_CH32V103R8T6_Opensource_Library/Project/USER/isr.c:120
        EXTI_ClearITPendingBit(EXTI_Line6);
    241e:	04000513          	li	a0,64
    2422:	e93fd0ef          	jal	ra,2b4 <EXTI_ClearITPendingBit>
E:/proj/riscv/Seekfree_CH32V103R8T6_Opensource_Library/Project/USER/isr.c:134
}
    2426:	a0b9                	j	2474 <EXTI9_5_IRQHandler+0x86>
E:/proj/riscv/Seekfree_CH32V103R8T6_Opensource_Library/Project/USER/isr.c:122
    else if(SET == EXTI_GetITStatus(EXTI_Line7))
    2428:	08000513          	li	a0,128
    242c:	e33fd0ef          	jal	ra,25e <EXTI_GetITStatus>
    2430:	872a                	mv	a4,a0
    2432:	4785                	li	a5,1
    2434:	00f71763          	bne	a4,a5,2442 <EXTI9_5_IRQHandler+0x54>
E:/proj/riscv/Seekfree_CH32V103R8T6_Opensource_Library/Project/USER/isr.c:124
        EXTI_ClearITPendingBit(EXTI_Line7);
    2438:	08000513          	li	a0,128
    243c:	e79fd0ef          	jal	ra,2b4 <EXTI_ClearITPendingBit>
E:/proj/riscv/Seekfree_CH32V103R8T6_Opensource_Library/Project/USER/isr.c:134
}
    2440:	a815                	j	2474 <EXTI9_5_IRQHandler+0x86>
E:/proj/riscv/Seekfree_CH32V103R8T6_Opensource_Library/Project/USER/isr.c:126
    else if(SET == EXTI_GetITStatus(EXTI_Line8))
    2442:	10000513          	li	a0,256
    2446:	e19fd0ef          	jal	ra,25e <EXTI_GetITStatus>
    244a:	872a                	mv	a4,a0
    244c:	4785                	li	a5,1
    244e:	00f71763          	bne	a4,a5,245c <EXTI9_5_IRQHandler+0x6e>
E:/proj/riscv/Seekfree_CH32V103R8T6_Opensource_Library/Project/USER/isr.c:128
        EXTI_ClearITPendingBit(EXTI_Line8);
    2452:	10000513          	li	a0,256
    2456:	e5ffd0ef          	jal	ra,2b4 <EXTI_ClearITPendingBit>
E:/proj/riscv/Seekfree_CH32V103R8T6_Opensource_Library/Project/USER/isr.c:134
}
    245a:	a829                	j	2474 <EXTI9_5_IRQHandler+0x86>
E:/proj/riscv/Seekfree_CH32V103R8T6_Opensource_Library/Project/USER/isr.c:130
    else if(SET == EXTI_GetITStatus(EXTI_Line9))
    245c:	20000513          	li	a0,512
    2460:	dfffd0ef          	jal	ra,25e <EXTI_GetITStatus>
    2464:	872a                	mv	a4,a0
    2466:	4785                	li	a5,1
    2468:	00f71663          	bne	a4,a5,2474 <EXTI9_5_IRQHandler+0x86>
E:/proj/riscv/Seekfree_CH32V103R8T6_Opensource_Library/Project/USER/isr.c:132
        EXTI_ClearITPendingBit(EXTI_Line9);
    246c:	20000513          	li	a0,512
    2470:	e45fd0ef          	jal	ra,2b4 <EXTI_ClearITPendingBit>
E:/proj/riscv/Seekfree_CH32V103R8T6_Opensource_Library/Project/USER/isr.c:134
}
    2474:	0001                	nop
    2476:	4432                	lw	s0,12(sp)
    2478:	0141                	addi	sp,sp,16
    247a:	30200073          	mret

0000247e <EXTI15_10_IRQHandler>:
EXTI15_10_IRQHandler():
E:/proj/riscv/Seekfree_CH32V103R8T6_Opensource_Library/Project/USER/isr.c:137

void EXTI15_10_IRQHandler(void)
{
    247e:	1141                	addi	sp,sp,-16
    2480:	c622                	sw	s0,12(sp)
    2482:	0800                	addi	s0,sp,16
E:/proj/riscv/Seekfree_CH32V103R8T6_Opensource_Library/Project/USER/isr.c:138
    if(SET == EXTI_GetITStatus(EXTI_Line10))
    2484:	40000513          	li	a0,1024
    2488:	dd7fd0ef          	jal	ra,25e <EXTI_GetITStatus>
    248c:	872a                	mv	a4,a0
    248e:	4785                	li	a5,1
    2490:	00f71763          	bne	a4,a5,249e <EXTI15_10_IRQHandler+0x20>
E:/proj/riscv/Seekfree_CH32V103R8T6_Opensource_Library/Project/USER/isr.c:140
    {
        EXTI_ClearITPendingBit(EXTI_Line10);
    2494:	40000513          	li	a0,1024
    2498:	e1dfd0ef          	jal	ra,2b4 <EXTI_ClearITPendingBit>
E:/proj/riscv/Seekfree_CH32V103R8T6_Opensource_Library/Project/USER/isr.c:162
    }
    else if(SET == EXTI_GetITStatus(EXTI_Line15))
    {
        EXTI_ClearITPendingBit(EXTI_Line15);
    }
}
    249c:	a89d                	j	2512 <EXTI15_10_IRQHandler+0x94>
E:/proj/riscv/Seekfree_CH32V103R8T6_Opensource_Library/Project/USER/isr.c:142
    else if(SET == EXTI_GetITStatus(EXTI_Line11))
    249e:	6785                	lui	a5,0x1
    24a0:	80078513          	addi	a0,a5,-2048 # 800 <__stack_size>
    24a4:	dbbfd0ef          	jal	ra,25e <EXTI_GetITStatus>
    24a8:	872a                	mv	a4,a0
    24aa:	4785                	li	a5,1
    24ac:	00f71863          	bne	a4,a5,24bc <EXTI15_10_IRQHandler+0x3e>
E:/proj/riscv/Seekfree_CH32V103R8T6_Opensource_Library/Project/USER/isr.c:144
        EXTI_ClearITPendingBit(EXTI_Line11);
    24b0:	6785                	lui	a5,0x1
    24b2:	80078513          	addi	a0,a5,-2048 # 800 <__stack_size>
    24b6:	dfffd0ef          	jal	ra,2b4 <EXTI_ClearITPendingBit>
E:/proj/riscv/Seekfree_CH32V103R8T6_Opensource_Library/Project/USER/isr.c:162
}
    24ba:	a8a1                	j	2512 <EXTI15_10_IRQHandler+0x94>
E:/proj/riscv/Seekfree_CH32V103R8T6_Opensource_Library/Project/USER/isr.c:146
    else if(SET == EXTI_GetITStatus(EXTI_Line12))
    24bc:	6505                	lui	a0,0x1
    24be:	da1fd0ef          	jal	ra,25e <EXTI_GetITStatus>
    24c2:	872a                	mv	a4,a0
    24c4:	4785                	li	a5,1
    24c6:	00f71663          	bne	a4,a5,24d2 <EXTI15_10_IRQHandler+0x54>
E:/proj/riscv/Seekfree_CH32V103R8T6_Opensource_Library/Project/USER/isr.c:148
        EXTI_ClearITPendingBit(EXTI_Line12);
    24ca:	6505                	lui	a0,0x1
    24cc:	de9fd0ef          	jal	ra,2b4 <EXTI_ClearITPendingBit>
E:/proj/riscv/Seekfree_CH32V103R8T6_Opensource_Library/Project/USER/isr.c:162
}
    24d0:	a089                	j	2512 <EXTI15_10_IRQHandler+0x94>
E:/proj/riscv/Seekfree_CH32V103R8T6_Opensource_Library/Project/USER/isr.c:150
    else if(SET == EXTI_GetITStatus(EXTI_Line13))
    24d2:	6509                	lui	a0,0x2
    24d4:	d8bfd0ef          	jal	ra,25e <EXTI_GetITStatus>
    24d8:	872a                	mv	a4,a0
    24da:	4785                	li	a5,1
    24dc:	00f71663          	bne	a4,a5,24e8 <EXTI15_10_IRQHandler+0x6a>
E:/proj/riscv/Seekfree_CH32V103R8T6_Opensource_Library/Project/USER/isr.c:152
        EXTI_ClearITPendingBit(EXTI_Line13);
    24e0:	6509                	lui	a0,0x2
    24e2:	dd3fd0ef          	jal	ra,2b4 <EXTI_ClearITPendingBit>
E:/proj/riscv/Seekfree_CH32V103R8T6_Opensource_Library/Project/USER/isr.c:162
}
    24e6:	a035                	j	2512 <EXTI15_10_IRQHandler+0x94>
E:/proj/riscv/Seekfree_CH32V103R8T6_Opensource_Library/Project/USER/isr.c:154
    else if(SET == EXTI_GetITStatus(EXTI_Line14))
    24e8:	6511                	lui	a0,0x4
    24ea:	d75fd0ef          	jal	ra,25e <EXTI_GetITStatus>
    24ee:	872a                	mv	a4,a0
    24f0:	4785                	li	a5,1
    24f2:	00f71663          	bne	a4,a5,24fe <EXTI15_10_IRQHandler+0x80>
E:/proj/riscv/Seekfree_CH32V103R8T6_Opensource_Library/Project/USER/isr.c:156
        EXTI_ClearITPendingBit(EXTI_Line14);
    24f6:	6511                	lui	a0,0x4
    24f8:	dbdfd0ef          	jal	ra,2b4 <EXTI_ClearITPendingBit>
E:/proj/riscv/Seekfree_CH32V103R8T6_Opensource_Library/Project/USER/isr.c:162
}
    24fc:	a819                	j	2512 <EXTI15_10_IRQHandler+0x94>
E:/proj/riscv/Seekfree_CH32V103R8T6_Opensource_Library/Project/USER/isr.c:158
    else if(SET == EXTI_GetITStatus(EXTI_Line15))
    24fe:	6521                	lui	a0,0x8
    2500:	d5ffd0ef          	jal	ra,25e <EXTI_GetITStatus>
    2504:	872a                	mv	a4,a0
    2506:	4785                	li	a5,1
    2508:	00f71563          	bne	a4,a5,2512 <EXTI15_10_IRQHandler+0x94>
E:/proj/riscv/Seekfree_CH32V103R8T6_Opensource_Library/Project/USER/isr.c:160
        EXTI_ClearITPendingBit(EXTI_Line15);
    250c:	6521                	lui	a0,0x8
    250e:	da7fd0ef          	jal	ra,2b4 <EXTI_ClearITPendingBit>
E:/proj/riscv/Seekfree_CH32V103R8T6_Opensource_Library/Project/USER/isr.c:162
}
    2512:	0001                	nop
    2514:	4432                	lw	s0,12(sp)
    2516:	0141                	addi	sp,sp,16
    2518:	30200073          	mret

0000251c <ADC1_2_IRQHandler>:
ADC1_2_IRQHandler():
E:/proj/riscv/Seekfree_CH32V103R8T6_Opensource_Library/Project/USER/isr.c:165

void ADC1_2_IRQHandler(void)
{
    251c:	1141                	addi	sp,sp,-16
    251e:	c622                	sw	s0,12(sp)
    2520:	0800                	addi	s0,sp,16
E:/proj/riscv/Seekfree_CH32V103R8T6_Opensource_Library/Project/USER/isr.c:168


}
    2522:	0001                	nop
    2524:	4432                	lw	s0,12(sp)
    2526:	0141                	addi	sp,sp,16
    2528:	30200073          	mret

0000252c <TIM1_BRK_IRQHandler>:
TIM1_BRK_IRQHandler():
E:/proj/riscv/Seekfree_CH32V103R8T6_Opensource_Library/Project/USER/isr.c:171

void TIM1_BRK_IRQHandler(void)
{
    252c:	1141                	addi	sp,sp,-16
    252e:	c622                	sw	s0,12(sp)
    2530:	0800                	addi	s0,sp,16
E:/proj/riscv/Seekfree_CH32V103R8T6_Opensource_Library/Project/USER/isr.c:172
    if(TIM_GetITStatus(TIM1, TIM_IT_Break) != RESET)
    2532:	08000593          	li	a1,128
    2536:	400137b7          	lui	a5,0x40013
    253a:	c0078513          	addi	a0,a5,-1024 # 40012c00 <_eusrstack+0x2000dc00>
    253e:	d0efe0ef          	jal	ra,a4c <TIM_GetITStatus>
    2542:	87aa                	mv	a5,a0
    2544:	cb89                	beqz	a5,2556 <TIM1_BRK_IRQHandler+0x2a>
E:/proj/riscv/Seekfree_CH32V103R8T6_Opensource_Library/Project/USER/isr.c:174
    {
        TIM_ClearITPendingBit(TIM1, TIM_IT_Break);
    2546:	08000593          	li	a1,128
    254a:	400137b7          	lui	a5,0x40013
    254e:	c0078513          	addi	a0,a5,-1024 # 40012c00 <_eusrstack+0x2000dc00>
    2552:	d6afe0ef          	jal	ra,abc <TIM_ClearITPendingBit>
E:/proj/riscv/Seekfree_CH32V103R8T6_Opensource_Library/Project/USER/isr.c:177

    }
}
    2556:	0001                	nop
    2558:	4432                	lw	s0,12(sp)
    255a:	0141                	addi	sp,sp,16
    255c:	30200073          	mret

00002560 <TIM1_UP_IRQHandler>:
TIM1_UP_IRQHandler():
E:/proj/riscv/Seekfree_CH32V103R8T6_Opensource_Library/Project/USER/isr.c:181


void TIM1_UP_IRQHandler(void)
{
    2560:	1141                	addi	sp,sp,-16
    2562:	c622                	sw	s0,12(sp)
    2564:	0800                	addi	s0,sp,16
E:/proj/riscv/Seekfree_CH32V103R8T6_Opensource_Library/Project/USER/isr.c:183
    //定时器1的周期中断函数
    if(TIM_GetITStatus(TIM1, TIM_IT_Update) != RESET)
    2566:	4585                	li	a1,1
    2568:	400137b7          	lui	a5,0x40013
    256c:	c0078513          	addi	a0,a5,-1024 # 40012c00 <_eusrstack+0x2000dc00>
    2570:	cdcfe0ef          	jal	ra,a4c <TIM_GetITStatus>
    2574:	87aa                	mv	a5,a0
    2576:	cb81                	beqz	a5,2586 <TIM1_UP_IRQHandler+0x26>
E:/proj/riscv/Seekfree_CH32V103R8T6_Opensource_Library/Project/USER/isr.c:185
    {
        TIM_ClearITPendingBit(TIM1, TIM_IT_Update);
    2578:	4585                	li	a1,1
    257a:	400137b7          	lui	a5,0x40013
    257e:	c0078513          	addi	a0,a5,-1024 # 40012c00 <_eusrstack+0x2000dc00>
    2582:	d3afe0ef          	jal	ra,abc <TIM_ClearITPendingBit>
E:/proj/riscv/Seekfree_CH32V103R8T6_Opensource_Library/Project/USER/isr.c:188

    }
}
    2586:	0001                	nop
    2588:	4432                	lw	s0,12(sp)
    258a:	0141                	addi	sp,sp,16
    258c:	30200073          	mret

00002590 <TIM1_TRG_COM_IRQHandler>:
TIM1_TRG_COM_IRQHandler():
E:/proj/riscv/Seekfree_CH32V103R8T6_Opensource_Library/Project/USER/isr.c:191

void TIM1_TRG_COM_IRQHandler(void)
{
    2590:	1141                	addi	sp,sp,-16
    2592:	c622                	sw	s0,12(sp)
    2594:	0800                	addi	s0,sp,16
E:/proj/riscv/Seekfree_CH32V103R8T6_Opensource_Library/Project/USER/isr.c:192
    if(TIM_GetITStatus(TIM1, TIM_IT_Trigger) != RESET)
    2596:	04000593          	li	a1,64
    259a:	400137b7          	lui	a5,0x40013
    259e:	c0078513          	addi	a0,a5,-1024 # 40012c00 <_eusrstack+0x2000dc00>
    25a2:	caafe0ef          	jal	ra,a4c <TIM_GetITStatus>
    25a6:	87aa                	mv	a5,a0
    25a8:	cb89                	beqz	a5,25ba <TIM1_TRG_COM_IRQHandler+0x2a>
E:/proj/riscv/Seekfree_CH32V103R8T6_Opensource_Library/Project/USER/isr.c:194
    {
        TIM_ClearITPendingBit(TIM1, TIM_IT_Trigger);
    25aa:	04000593          	li	a1,64
    25ae:	400137b7          	lui	a5,0x40013
    25b2:	c0078513          	addi	a0,a5,-1024 # 40012c00 <_eusrstack+0x2000dc00>
    25b6:	d06fe0ef          	jal	ra,abc <TIM_ClearITPendingBit>
E:/proj/riscv/Seekfree_CH32V103R8T6_Opensource_Library/Project/USER/isr.c:197

    }
    if(TIM_GetITStatus(TIM1, TIM_IT_COM) != RESET)
    25ba:	02000593          	li	a1,32
    25be:	400137b7          	lui	a5,0x40013
    25c2:	c0078513          	addi	a0,a5,-1024 # 40012c00 <_eusrstack+0x2000dc00>
    25c6:	c86fe0ef          	jal	ra,a4c <TIM_GetITStatus>
    25ca:	87aa                	mv	a5,a0
    25cc:	cb89                	beqz	a5,25de <TIM1_TRG_COM_IRQHandler+0x4e>
E:/proj/riscv/Seekfree_CH32V103R8T6_Opensource_Library/Project/USER/isr.c:199
    {
        TIM_ClearITPendingBit(TIM1, TIM_IT_COM);
    25ce:	02000593          	li	a1,32
    25d2:	400137b7          	lui	a5,0x40013
    25d6:	c0078513          	addi	a0,a5,-1024 # 40012c00 <_eusrstack+0x2000dc00>
    25da:	ce2fe0ef          	jal	ra,abc <TIM_ClearITPendingBit>
E:/proj/riscv/Seekfree_CH32V103R8T6_Opensource_Library/Project/USER/isr.c:202

    }
}
    25de:	0001                	nop
    25e0:	4432                	lw	s0,12(sp)
    25e2:	0141                	addi	sp,sp,16
    25e4:	30200073          	mret

000025e8 <TIM1_CC_IRQHandler>:
TIM1_CC_IRQHandler():
E:/proj/riscv/Seekfree_CH32V103R8T6_Opensource_Library/Project/USER/isr.c:205

void TIM1_CC_IRQHandler(void)
{
    25e8:	1141                	addi	sp,sp,-16
    25ea:	c622                	sw	s0,12(sp)
    25ec:	0800                	addi	s0,sp,16
E:/proj/riscv/Seekfree_CH32V103R8T6_Opensource_Library/Project/USER/isr.c:206
    if(TIM_GetITStatus(TIM1, TIM_IT_CC1) != RESET)
    25ee:	4589                	li	a1,2
    25f0:	400137b7          	lui	a5,0x40013
    25f4:	c0078513          	addi	a0,a5,-1024 # 40012c00 <_eusrstack+0x2000dc00>
    25f8:	c54fe0ef          	jal	ra,a4c <TIM_GetITStatus>
    25fc:	87aa                	mv	a5,a0
    25fe:	cb81                	beqz	a5,260e <TIM1_CC_IRQHandler+0x26>
E:/proj/riscv/Seekfree_CH32V103R8T6_Opensource_Library/Project/USER/isr.c:208
    {
        TIM_ClearITPendingBit(TIM1, TIM_IT_CC1);
    2600:	4589                	li	a1,2
    2602:	400137b7          	lui	a5,0x40013
    2606:	c0078513          	addi	a0,a5,-1024 # 40012c00 <_eusrstack+0x2000dc00>
    260a:	cb2fe0ef          	jal	ra,abc <TIM_ClearITPendingBit>
E:/proj/riscv/Seekfree_CH32V103R8T6_Opensource_Library/Project/USER/isr.c:211

    }
    if(TIM_GetITStatus(TIM1, TIM_IT_CC2) != RESET)
    260e:	4591                	li	a1,4
    2610:	400137b7          	lui	a5,0x40013
    2614:	c0078513          	addi	a0,a5,-1024 # 40012c00 <_eusrstack+0x2000dc00>
    2618:	c34fe0ef          	jal	ra,a4c <TIM_GetITStatus>
    261c:	87aa                	mv	a5,a0
    261e:	cb81                	beqz	a5,262e <TIM1_CC_IRQHandler+0x46>
E:/proj/riscv/Seekfree_CH32V103R8T6_Opensource_Library/Project/USER/isr.c:213
    {
        TIM_ClearITPendingBit(TIM1, TIM_IT_CC2);
    2620:	4591                	li	a1,4
    2622:	400137b7          	lui	a5,0x40013
    2626:	c0078513          	addi	a0,a5,-1024 # 40012c00 <_eusrstack+0x2000dc00>
    262a:	c92fe0ef          	jal	ra,abc <TIM_ClearITPendingBit>
E:/proj/riscv/Seekfree_CH32V103R8T6_Opensource_Library/Project/USER/isr.c:216

    }
    if(TIM_GetITStatus(TIM1, TIM_IT_CC3) != RESET)
    262e:	45a1                	li	a1,8
    2630:	400137b7          	lui	a5,0x40013
    2634:	c0078513          	addi	a0,a5,-1024 # 40012c00 <_eusrstack+0x2000dc00>
    2638:	c14fe0ef          	jal	ra,a4c <TIM_GetITStatus>
    263c:	87aa                	mv	a5,a0
    263e:	cb81                	beqz	a5,264e <TIM1_CC_IRQHandler+0x66>
E:/proj/riscv/Seekfree_CH32V103R8T6_Opensource_Library/Project/USER/isr.c:218
    {
        TIM_ClearITPendingBit(TIM1, TIM_IT_CC3);
    2640:	45a1                	li	a1,8
    2642:	400137b7          	lui	a5,0x40013
    2646:	c0078513          	addi	a0,a5,-1024 # 40012c00 <_eusrstack+0x2000dc00>
    264a:	c72fe0ef          	jal	ra,abc <TIM_ClearITPendingBit>
E:/proj/riscv/Seekfree_CH32V103R8T6_Opensource_Library/Project/USER/isr.c:221

    }
    if(TIM_GetITStatus(TIM1, TIM_IT_CC4) != RESET)
    264e:	45c1                	li	a1,16
    2650:	400137b7          	lui	a5,0x40013
    2654:	c0078513          	addi	a0,a5,-1024 # 40012c00 <_eusrstack+0x2000dc00>
    2658:	bf4fe0ef          	jal	ra,a4c <TIM_GetITStatus>
    265c:	87aa                	mv	a5,a0
    265e:	cb81                	beqz	a5,266e <TIM1_CC_IRQHandler+0x86>
E:/proj/riscv/Seekfree_CH32V103R8T6_Opensource_Library/Project/USER/isr.c:223
    {
        TIM_ClearITPendingBit(TIM1, TIM_IT_CC4);
    2660:	45c1                	li	a1,16
    2662:	400137b7          	lui	a5,0x40013
    2666:	c0078513          	addi	a0,a5,-1024 # 40012c00 <_eusrstack+0x2000dc00>
    266a:	c52fe0ef          	jal	ra,abc <TIM_ClearITPendingBit>
E:/proj/riscv/Seekfree_CH32V103R8T6_Opensource_Library/Project/USER/isr.c:226

    }
}
    266e:	0001                	nop
    2670:	4432                	lw	s0,12(sp)
    2672:	0141                	addi	sp,sp,16
    2674:	30200073          	mret

00002678 <TIM2_IRQHandler>:
TIM2_IRQHandler():
E:/proj/riscv/Seekfree_CH32V103R8T6_Opensource_Library/Project/USER/isr.c:229

void TIM2_IRQHandler(void)
{
    2678:	1141                	addi	sp,sp,-16
    267a:	c622                	sw	s0,12(sp)
    267c:	0800                	addi	s0,sp,16
E:/proj/riscv/Seekfree_CH32V103R8T6_Opensource_Library/Project/USER/isr.c:231

    if(TIM_GetITStatus(TIM2, TIM_IT_Update) != RESET)
    267e:	4585                	li	a1,1
    2680:	40000537          	lui	a0,0x40000
    2684:	bc8fe0ef          	jal	ra,a4c <TIM_GetITStatus>
    2688:	87aa                	mv	a5,a0
    268a:	c791                	beqz	a5,2696 <TIM2_IRQHandler+0x1e>
E:/proj/riscv/Seekfree_CH32V103R8T6_Opensource_Library/Project/USER/isr.c:233
    {
        TIM_ClearITPendingBit(TIM2, TIM_IT_Update );
    268c:	4585                	li	a1,1
    268e:	40000537          	lui	a0,0x40000
    2692:	c2afe0ef          	jal	ra,abc <TIM_ClearITPendingBit>
E:/proj/riscv/Seekfree_CH32V103R8T6_Opensource_Library/Project/USER/isr.c:236
        //ccd_collect();//CCD数据采集
    }
}
    2696:	0001                	nop
    2698:	4432                	lw	s0,12(sp)
    269a:	0141                	addi	sp,sp,16
    269c:	30200073          	mret

000026a0 <TIM3_IRQHandler>:
TIM3_IRQHandler():
E:/proj/riscv/Seekfree_CH32V103R8T6_Opensource_Library/Project/USER/isr.c:239

void TIM3_IRQHandler(void)
{
    26a0:	1141                	addi	sp,sp,-16
    26a2:	c622                	sw	s0,12(sp)
    26a4:	0800                	addi	s0,sp,16
E:/proj/riscv/Seekfree_CH32V103R8T6_Opensource_Library/Project/USER/isr.c:240
    if(TIM_GetITStatus(TIM3, TIM_IT_Update) != RESET)
    26a6:	4585                	li	a1,1
    26a8:	400007b7          	lui	a5,0x40000
    26ac:	40078513          	addi	a0,a5,1024 # 40000400 <_eusrstack+0x1fffb400>
    26b0:	b9cfe0ef          	jal	ra,a4c <TIM_GetITStatus>
    26b4:	87aa                	mv	a5,a0
    26b6:	cb81                	beqz	a5,26c6 <TIM3_IRQHandler+0x26>
E:/proj/riscv/Seekfree_CH32V103R8T6_Opensource_Library/Project/USER/isr.c:242
    {
        TIM_ClearITPendingBit(TIM3, TIM_IT_Update );
    26b8:	4585                	li	a1,1
    26ba:	400007b7          	lui	a5,0x40000
    26be:	40078513          	addi	a0,a5,1024 # 40000400 <_eusrstack+0x1fffb400>
    26c2:	bfafe0ef          	jal	ra,abc <TIM_ClearITPendingBit>
E:/proj/riscv/Seekfree_CH32V103R8T6_Opensource_Library/Project/USER/isr.c:245

    }
}
    26c6:	0001                	nop
    26c8:	4432                	lw	s0,12(sp)
    26ca:	0141                	addi	sp,sp,16
    26cc:	30200073          	mret

000026d0 <TIM4_IRQHandler>:
TIM4_IRQHandler():
E:/proj/riscv/Seekfree_CH32V103R8T6_Opensource_Library/Project/USER/isr.c:248

void TIM4_IRQHandler(void)
{
    26d0:	1141                	addi	sp,sp,-16
    26d2:	c622                	sw	s0,12(sp)
    26d4:	0800                	addi	s0,sp,16
E:/proj/riscv/Seekfree_CH32V103R8T6_Opensource_Library/Project/USER/isr.c:249
    if(TIM_GetITStatus(TIM4, TIM_IT_Update) != RESET)
    26d6:	4585                	li	a1,1
    26d8:	400017b7          	lui	a5,0x40001
    26dc:	80078513          	addi	a0,a5,-2048 # 40000800 <_eusrstack+0x1fffb800>
    26e0:	b6cfe0ef          	jal	ra,a4c <TIM_GetITStatus>
    26e4:	87aa                	mv	a5,a0
    26e6:	cb81                	beqz	a5,26f6 <TIM4_IRQHandler+0x26>
E:/proj/riscv/Seekfree_CH32V103R8T6_Opensource_Library/Project/USER/isr.c:251
    {
        TIM_ClearITPendingBit(TIM4, TIM_IT_Update );
    26e8:	4585                	li	a1,1
    26ea:	400017b7          	lui	a5,0x40001
    26ee:	80078513          	addi	a0,a5,-2048 # 40000800 <_eusrstack+0x1fffb800>
    26f2:	bcafe0ef          	jal	ra,abc <TIM_ClearITPendingBit>
E:/proj/riscv/Seekfree_CH32V103R8T6_Opensource_Library/Project/USER/isr.c:254

    }
}
    26f6:	0001                	nop
    26f8:	4432                	lw	s0,12(sp)
    26fa:	0141                	addi	sp,sp,16
    26fc:	30200073          	mret

00002700 <USART1_IRQHandler>:
USART1_IRQHandler():
E:/proj/riscv/Seekfree_CH32V103R8T6_Opensource_Library/Project/USER/isr.c:257

void USART1_IRQHandler(void)
{
    2700:	1141                	addi	sp,sp,-16
    2702:	c622                	sw	s0,12(sp)
    2704:	0800                	addi	s0,sp,16
E:/proj/riscv/Seekfree_CH32V103R8T6_Opensource_Library/Project/USER/isr.c:258
    if(USART_GetITStatus(USART1, USART_IT_RXNE) != RESET)
    2706:	52500593          	li	a1,1317
    270a:	400147b7          	lui	a5,0x40014
    270e:	80078513          	addi	a0,a5,-2048 # 40013800 <_eusrstack+0x2000e800>
    2712:	e6afe0ef          	jal	ra,d7c <USART_GetITStatus>
    2716:	87aa                	mv	a5,a0
    2718:	cb85                	beqz	a5,2748 <USART1_IRQHandler+0x48>
E:/proj/riscv/Seekfree_CH32V103R8T6_Opensource_Library/Project/USER/isr.c:260
    {
        USART_ClearITPendingBit(USART1, USART_IT_RXNE);
    271a:	52500593          	li	a1,1317
    271e:	400147b7          	lui	a5,0x40014
    2722:	80078513          	addi	a0,a5,-2048 # 40013800 <_eusrstack+0x2000e800>
    2726:	f58fe0ef          	jal	ra,e7e <USART_ClearITPendingBit>
E:/proj/riscv/Seekfree_CH32V103R8T6_Opensource_Library/Project/USER/isr.c:261
        if(wireless_type == WIRELESS_SI24R1)
    272a:	8341a703          	lw	a4,-1996(gp) # 20000044 <wireless_type>
    272e:	4785                	li	a5,1
    2730:	00f71563          	bne	a4,a5,273a <USART1_IRQHandler+0x3a>
E:/proj/riscv/Seekfree_CH32V103R8T6_Opensource_Library/Project/USER/isr.c:263
        {
            wireless_uart_callback();
    2734:	abdfe0ef          	jal	ra,11f0 <wireless_uart_callback>
E:/proj/riscv/Seekfree_CH32V103R8T6_Opensource_Library/Project/USER/isr.c:270
        else if(wireless_type == WIRELESS_CH9141)
        {
            bluetooth_ch9141_uart_callback();
        }
    }
}
    2738:	a801                	j	2748 <USART1_IRQHandler+0x48>
E:/proj/riscv/Seekfree_CH32V103R8T6_Opensource_Library/Project/USER/isr.c:265
        else if(wireless_type == WIRELESS_CH9141)
    273a:	8341a703          	lw	a4,-1996(gp) # 20000044 <wireless_type>
    273e:	4789                	li	a5,2
    2740:	00f71463          	bne	a4,a5,2748 <USART1_IRQHandler+0x48>
E:/proj/riscv/Seekfree_CH32V103R8T6_Opensource_Library/Project/USER/isr.c:267
            bluetooth_ch9141_uart_callback();
    2744:	f88fe0ef          	jal	ra,ecc <bluetooth_ch9141_uart_callback>
E:/proj/riscv/Seekfree_CH32V103R8T6_Opensource_Library/Project/USER/isr.c:270
}
    2748:	0001                	nop
    274a:	4432                	lw	s0,12(sp)
    274c:	0141                	addi	sp,sp,16
    274e:	30200073          	mret

00002752 <USART2_IRQHandler>:
USART2_IRQHandler():
E:/proj/riscv/Seekfree_CH32V103R8T6_Opensource_Library/Project/USER/isr.c:273

void USART2_IRQHandler(void)
{
    2752:	1141                	addi	sp,sp,-16
    2754:	c622                	sw	s0,12(sp)
    2756:	0800                	addi	s0,sp,16
E:/proj/riscv/Seekfree_CH32V103R8T6_Opensource_Library/Project/USER/isr.c:274
    if(USART_GetITStatus(USART2, USART_IT_RXNE) != RESET)
    2758:	52500593          	li	a1,1317
    275c:	400047b7          	lui	a5,0x40004
    2760:	40078513          	addi	a0,a5,1024 # 40004400 <_eusrstack+0x1ffff400>
    2764:	e18fe0ef          	jal	ra,d7c <USART_GetITStatus>
    2768:	87aa                	mv	a5,a0
    276a:	cb85                	beqz	a5,279a <USART2_IRQHandler+0x48>
E:/proj/riscv/Seekfree_CH32V103R8T6_Opensource_Library/Project/USER/isr.c:276
    {
        USART_ClearITPendingBit(USART2, USART_IT_RXNE);
    276c:	52500593          	li	a1,1317
    2770:	400047b7          	lui	a5,0x40004
    2774:	40078513          	addi	a0,a5,1024 # 40004400 <_eusrstack+0x1ffff400>
    2778:	f06fe0ef          	jal	ra,e7e <USART_ClearITPendingBit>
E:/proj/riscv/Seekfree_CH32V103R8T6_Opensource_Library/Project/USER/isr.c:277
        if(camera_type == CAMERA_BIN_UART)
    277c:	8301a703          	lw	a4,-2000(gp) # 20000040 <camera_type>
    2780:	478d                	li	a5,3
    2782:	00f71563          	bne	a4,a5,278c <USART2_IRQHandler+0x3a>
E:/proj/riscv/Seekfree_CH32V103R8T6_Opensource_Library/Project/USER/isr.c:279
        {
            ov7725_cof_uart_interrupt();
    2786:	949fe0ef          	jal	ra,10ce <ov7725_cof_uart_interrupt>
E:/proj/riscv/Seekfree_CH32V103R8T6_Opensource_Library/Project/USER/isr.c:286
        else if(camera_type == CAMERA_GRAYSCALE)
        {
            mt9v03x_uart_callback();
        }
    }
}
    278a:	a801                	j	279a <USART2_IRQHandler+0x48>
E:/proj/riscv/Seekfree_CH32V103R8T6_Opensource_Library/Project/USER/isr.c:281
        else if(camera_type == CAMERA_GRAYSCALE)
    278c:	8301a703          	lw	a4,-2000(gp) # 20000040 <camera_type>
    2790:	4789                	li	a5,2
    2792:	00f71463          	bne	a4,a5,279a <USART2_IRQHandler+0x48>
E:/proj/riscv/Seekfree_CH32V103R8T6_Opensource_Library/Project/USER/isr.c:283
            mt9v03x_uart_callback();
    2796:	817fe0ef          	jal	ra,fac <mt9v03x_uart_callback>
E:/proj/riscv/Seekfree_CH32V103R8T6_Opensource_Library/Project/USER/isr.c:286
}
    279a:	0001                	nop
    279c:	4432                	lw	s0,12(sp)
    279e:	0141                	addi	sp,sp,16
    27a0:	30200073          	mret

000027a4 <USART3_IRQHandler>:
USART3_IRQHandler():
E:/proj/riscv/Seekfree_CH32V103R8T6_Opensource_Library/Project/USER/isr.c:289

void USART3_IRQHandler(void)
{
    27a4:	1141                	addi	sp,sp,-16
    27a6:	c622                	sw	s0,12(sp)
    27a8:	0800                	addi	s0,sp,16
E:/proj/riscv/Seekfree_CH32V103R8T6_Opensource_Library/Project/USER/isr.c:290
    if(USART_GetITStatus(USART3, USART_IT_RXNE) != RESET)
    27aa:	52500593          	li	a1,1317
    27ae:	400057b7          	lui	a5,0x40005
    27b2:	80078513          	addi	a0,a5,-2048 # 40004800 <_eusrstack+0x1ffff800>
    27b6:	dc6fe0ef          	jal	ra,d7c <USART_GetITStatus>
    27ba:	87aa                	mv	a5,a0
    27bc:	cb89                	beqz	a5,27ce <USART3_IRQHandler+0x2a>
E:/proj/riscv/Seekfree_CH32V103R8T6_Opensource_Library/Project/USER/isr.c:292
    {
        USART_ClearITPendingBit(USART3, USART_IT_RXNE);
    27be:	52500593          	li	a1,1317
    27c2:	400057b7          	lui	a5,0x40005
    27c6:	80078513          	addi	a0,a5,-2048 # 40004800 <_eusrstack+0x1ffff800>
    27ca:	eb4fe0ef          	jal	ra,e7e <USART_ClearITPendingBit>
E:/proj/riscv/Seekfree_CH32V103R8T6_Opensource_Library/Project/USER/isr.c:294
    }
}
    27ce:	0001                	nop
    27d0:	4432                	lw	s0,12(sp)
    27d2:	0141                	addi	sp,sp,16
    27d4:	30200073          	mret

000027d8 <DMA1_Channel4_IRQHandler>:
DMA1_Channel4_IRQHandler():
E:/proj/riscv/Seekfree_CH32V103R8T6_Opensource_Library/Project/USER/isr.c:297

void DMA1_Channel4_IRQHandler(void)
{
    27d8:	1141                	addi	sp,sp,-16
    27da:	c622                	sw	s0,12(sp)
    27dc:	0800                	addi	s0,sp,16
E:/proj/riscv/Seekfree_CH32V103R8T6_Opensource_Library/Project/USER/isr.c:298
    if(SET == DMA_GetFlagStatus(DMA1_FLAG_TC4))
    27de:	6509                	lui	a0,0x2
    27e0:	9ebfd0ef          	jal	ra,1ca <DMA_GetFlagStatus>
    27e4:	872a                	mv	a4,a0
    27e6:	4785                	li	a5,1
    27e8:	02f71463          	bne	a4,a5,2810 <DMA1_Channel4_IRQHandler+0x38>
E:/proj/riscv/Seekfree_CH32V103R8T6_Opensource_Library/Project/USER/isr.c:300
    {
        DMA_ClearFlag(DMA1_FLAG_TC4);
    27ec:	6509                	lui	a0,0x2
    27ee:	a39fd0ef          	jal	ra,226 <DMA_ClearFlag>
E:/proj/riscv/Seekfree_CH32V103R8T6_Opensource_Library/Project/USER/isr.c:301
        if(camera_type == CAMERA_BIN_UART)
    27f2:	8301a703          	lw	a4,-2000(gp) # 20000040 <camera_type>
    27f6:	478d                	li	a5,3
    27f8:	00f71563          	bne	a4,a5,2802 <DMA1_Channel4_IRQHandler+0x2a>
E:/proj/riscv/Seekfree_CH32V103R8T6_Opensource_Library/Project/USER/isr.c:303
        {
            ov7725_uart_dma();
    27fc:	99ffe0ef          	jal	ra,119a <ov7725_uart_dma>
E:/proj/riscv/Seekfree_CH32V103R8T6_Opensource_Library/Project/USER/isr.c:310
        else if(camera_type == CAMERA_GRAYSCALE)
        {
            mt9v03x_dma();
        }
    }
}
    2800:	a801                	j	2810 <DMA1_Channel4_IRQHandler+0x38>
E:/proj/riscv/Seekfree_CH32V103R8T6_Opensource_Library/Project/USER/isr.c:305
        else if(camera_type == CAMERA_GRAYSCALE)
    2802:	8301a703          	lw	a4,-2000(gp) # 20000040 <camera_type>
    2806:	4789                	li	a5,2
    2808:	00f71463          	bne	a4,a5,2810 <DMA1_Channel4_IRQHandler+0x38>
E:/proj/riscv/Seekfree_CH32V103R8T6_Opensource_Library/Project/USER/isr.c:307
            mt9v03x_dma();
    280c:	86dfe0ef          	jal	ra,1078 <mt9v03x_dma>
E:/proj/riscv/Seekfree_CH32V103R8T6_Opensource_Library/Project/USER/isr.c:310
}
    2810:	0001                	nop
    2812:	4432                	lw	s0,12(sp)
    2814:	0141                	addi	sp,sp,16
    2816:	30200073          	mret

0000281a <NMI_Handler>:
NMI_Handler():
E:/proj/riscv/Seekfree_CH32V103R8T6_Opensource_Library/Project/USER/isr.c:319
* Description    : This function handles NMI exception.
* Input          : None
* Return         : None
*******************************************************************************/
void NMI_Handler(void)
{
    281a:	1141                	addi	sp,sp,-16
    281c:	c622                	sw	s0,12(sp)
    281e:	0800                	addi	s0,sp,16
E:/proj/riscv/Seekfree_CH32V103R8T6_Opensource_Library/Project/USER/isr.c:321

}
    2820:	0001                	nop
    2822:	4432                	lw	s0,12(sp)
    2824:	0141                	addi	sp,sp,16
    2826:	30200073          	mret

0000282a <HardFault_Handler>:
HardFault_Handler():
E:/proj/riscv/Seekfree_CH32V103R8T6_Opensource_Library/Project/USER/isr.c:330
* Description    : This function handles Hard Fault exception.
* Input          : None
* Return         : None
*******************************************************************************/
void HardFault_Handler(void)
{
    282a:	1141                	addi	sp,sp,-16
    282c:	c622                	sw	s0,12(sp)
    282e:	0800                	addi	s0,sp,16
E:/proj/riscv/Seekfree_CH32V103R8T6_Opensource_Library/Project/USER/isr.c:332 (discriminator 1)

  while (1)
    2830:	a001                	j	2830 <HardFault_Handler+0x6>

00002832 <main>:
main():
E:/proj/riscv/Seekfree_CH32V103R8T6_Opensource_Library/Project/USER/main.c:31

#include "headfile.h"
#include "include_control.h"

int main(void)
{
    2832:	1141                	addi	sp,sp,-16
    2834:	c606                	sw	ra,12(sp)
    2836:	c422                	sw	s0,8(sp)
    2838:	c24a                	sw	s2,4(sp)
    283a:	c04e                	sw	s3,0(sp)
    283c:	0800                	addi	s0,sp,16
E:/proj/riscv/Seekfree_CH32V103R8T6_Opensource_Library/Project/USER/main.c:32
    DisableGlobalIRQ();    // 关闭全局中断
    283e:	dabfe0ef          	jal	ra,15e8 <DisableGlobalIRQ>
E:/proj/riscv/Seekfree_CH32V103R8T6_Opensource_Library/Project/USER/main.c:33
    board_init();           // 这个函数用于初始化MPU、时钟和调试串口等
    2842:	9d5fe0ef          	jal	ra,1216 <board_init>
E:/proj/riscv/Seekfree_CH32V103R8T6_Opensource_Library/Project/USER/main.c:34
    EnableGlobalIRQ(0);    // 开启全局中断
    2846:	4501                	li	a0,0
    2848:	db9fe0ef          	jal	ra,1600 <EnableGlobalIRQ>
E:/proj/riscv/Seekfree_CH32V103R8T6_Opensource_Library/Project/USER/main.c:38 (discriminator 1)

    while (1)
    {
        systick_delay_ms(500);  // 延时函数，等待500毫秒
    284c:	8381a703          	lw	a4,-1992(gp) # 20000048 <sys_clk>
    2850:	6789                	lui	a5,0x2
    2852:	f4078793          	addi	a5,a5,-192 # 1f40 <USB_DevTransProcess+0x6aa>
    2856:	02f75733          	divu	a4,a4,a5
    285a:	1f400793          	li	a5,500
    285e:	02f707b3          	mul	a5,a4,a5
    2862:	893e                	mv	s2,a5
    2864:	4981                	li	s3,0
    2866:	854a                	mv	a0,s2
    2868:	85ce                	mv	a1,s3
    286a:	dbdfe0ef          	jal	ra,1626 <systick_delay>
    286e:	bff9                	j	284c <main+0x1a>

00002870 <memcpy>:
memcpy():
    2870:	00a5c7b3          	xor	a5,a1,a0
    2874:	8b8d                	andi	a5,a5,3
    2876:	00c50733          	add	a4,a0,a2
    287a:	e781                	bnez	a5,2882 <memcpy+0x12>
    287c:	478d                	li	a5,3
    287e:	00c7ee63          	bltu	a5,a2,289a <memcpy+0x2a>
    2882:	87aa                	mv	a5,a0
    2884:	0ae57063          	bgeu	a0,a4,2924 <memcpy+0xb4>
    2888:	0005c683          	lbu	a3,0(a1)
    288c:	0785                	addi	a5,a5,1
    288e:	0585                	addi	a1,a1,1
    2890:	fed78fa3          	sb	a3,-1(a5)
    2894:	fee7eae3          	bltu	a5,a4,2888 <memcpy+0x18>
    2898:	8082                	ret
    289a:	00357693          	andi	a3,a0,3
    289e:	87aa                	mv	a5,a0
    28a0:	ca91                	beqz	a3,28b4 <memcpy+0x44>
    28a2:	0005c683          	lbu	a3,0(a1)
    28a6:	0785                	addi	a5,a5,1
    28a8:	0585                	addi	a1,a1,1
    28aa:	fed78fa3          	sb	a3,-1(a5)
    28ae:	0037f693          	andi	a3,a5,3
    28b2:	b7fd                	j	28a0 <memcpy+0x30>
    28b4:	ffc77693          	andi	a3,a4,-4
    28b8:	fe068613          	addi	a2,a3,-32
    28bc:	06c7f063          	bgeu	a5,a2,291c <memcpy+0xac>
    28c0:	0005a383          	lw	t2,0(a1)
    28c4:	0045a283          	lw	t0,4(a1)
    28c8:	0085af83          	lw	t6,8(a1)
    28cc:	00c5af03          	lw	t5,12(a1)
    28d0:	0105ae83          	lw	t4,16(a1)
    28d4:	0145ae03          	lw	t3,20(a1)
    28d8:	0185a303          	lw	t1,24(a1)
    28dc:	01c5a883          	lw	a7,28(a1)
    28e0:	02458593          	addi	a1,a1,36
    28e4:	0077a023          	sw	t2,0(a5)
    28e8:	ffc5a803          	lw	a6,-4(a1)
    28ec:	0057a223          	sw	t0,4(a5)
    28f0:	01f7a423          	sw	t6,8(a5)
    28f4:	01e7a623          	sw	t5,12(a5)
    28f8:	01d7a823          	sw	t4,16(a5)
    28fc:	01c7aa23          	sw	t3,20(a5)
    2900:	0067ac23          	sw	t1,24(a5)
    2904:	0117ae23          	sw	a7,28(a5)
    2908:	02478793          	addi	a5,a5,36
    290c:	ff07ae23          	sw	a6,-4(a5)
    2910:	b775                	j	28bc <memcpy+0x4c>
    2912:	4190                	lw	a2,0(a1)
    2914:	0791                	addi	a5,a5,4
    2916:	0591                	addi	a1,a1,4
    2918:	fec7ae23          	sw	a2,-4(a5)
    291c:	fed7ebe3          	bltu	a5,a3,2912 <memcpy+0xa2>
    2920:	f6e7e4e3          	bltu	a5,a4,2888 <memcpy+0x18>
    2924:	8082                	ret

00002926 <strncmp>:
strncmp():
    2926:	c605                	beqz	a2,294e <strncmp+0x28>
    2928:	167d                	addi	a2,a2,-1
    292a:	4701                	li	a4,0
    292c:	00e507b3          	add	a5,a0,a4
    2930:	00e586b3          	add	a3,a1,a4
    2934:	0007c783          	lbu	a5,0(a5)
    2938:	0006c683          	lbu	a3,0(a3)
    293c:	00d79663          	bne	a5,a3,2948 <strncmp+0x22>
    2940:	00c70463          	beq	a4,a2,2948 <strncmp+0x22>
    2944:	0705                	addi	a4,a4,1
    2946:	f3fd                	bnez	a5,292c <strncmp+0x6>
    2948:	40d78533          	sub	a0,a5,a3
    294c:	8082                	ret
    294e:	4501                	li	a0,0
    2950:	8082                	ret
    2952:	0000                	unimp
    2954:	0a0d4b4f          	fnmadd.d	fs6,fs10,ft0,ft1,rmm
    2958:	0000                	unimp
    295a:	0000                	unimp
    295c:	0a0d                	addi	s4,s4,3
    295e:	0000                	unimp
    2960:	5441                	li	s0,-16
    2962:	003d002b          	0x3d002b
    2966:	0000                	unimp
    2968:	5441                	li	s0,-16
    296a:	2e2e                	fld	ft8,200(sp)
    296c:	002e                	c.slli	zero,0xb
    296e:	0000                	unimp
    2970:	5441                	li	s0,-16
    2972:	4958452b          	0x4958452b
    2976:	0054                	addi	a3,sp,4
    2978:	5441                	li	s0,-16
    297a:	5345522b          	0x5345522b
    297e:	5445                	li	s0,-15
    2980:	0000                	unimp
    2982:	0000                	unimp
    2984:	5441                	li	s0,-16
    2986:	43414d2b          	0x43414d2b
    298a:	5054003f 4c42004c 	0x4c42004c5054003f
    2992:	4d45                	li	s10,17
    2994:	0045444f          	fnmadd.s	fs0,fa0,ft4,ft0,rmm
    2998:	5441                	li	s0,-16
    299a:	454c422b          	0x454c422b
    299e:	3f415453          	0x3f415453
    29a2:	0000                	unimp
    29a4:	414e                	lw	sp,208(sp)
    29a6:	454d                	li	a0,19
    29a8:	0000                	unimp
    29aa:	0000                	unimp
    29ac:	4e50                	lw	a2,28(a2)
    29ae:	4d41                	li	s10,16
    29b0:	0045                	c.nop	17
    29b2:	0000                	unimp
    29b4:	0046464f          	fnmadd.s	fa2,fa2,ft4,ft0,rmm
    29b8:	4150                	lw	a2,4(a0)
    29ba:	004e4553          	fadd.s	fa0,ft8,ft4,rmm
    29be:	0000                	unimp
    29c0:	00004e4f          	fnmadd.s	ft8,ft0,ft0,ft0,rmm
    29c4:	4150                	lw	a2,4(a0)
    29c6:	00005353          	fadd.s	ft6,ft0,ft0,unknown
    29ca:	0000                	unimp
    29cc:	4e4e4f43          	fmadd.q	ft10,ft8,ft4,fs1,rmm
    29d0:	0000                	unimp
    29d2:	0000                	unimp
    29d4:	414e4f43          	fmadd.s	ft10,ft8,fs4,fs0,rmm
    29d8:	4444                	lw	s1,12(s0)
    29da:	0000                	unimp
    29dc:	302c4e4f          	fnmadd.s	ft8,fs8,ft2,ft6,rmm
    29e0:	0000                	unimp
    29e2:	0000                	unimp
    29e4:	5352                	lw	t1,52(sp)
    29e6:	00004953          	fadd.s	fs2,ft0,ft0,rmm
    29ea:	0000                	unimp
    29ec:	0030                	addi	a2,sp,8
    29ee:	0000                	unimp
    29f0:	3a45                	jal	23a0 <EXTI2_IRQHandler+0x1e>
    29f2:	6f72702f          	0x6f72702f
    29f6:	2f6a                	fld	ft10,152(sp)
    29f8:	6972                	flw	fs2,28(sp)
    29fa:	2f766373          	csrrsi	t1,0x2f7,12
    29fe:	6b656553          	0x6b656553
    2a02:	7266                	flw	ft4,120(sp)
    2a04:	6565                	lui	a0,0x19
    2a06:	435f 3348 5632      	0x56323348435f
    2a0c:	3031                	jal	2218 <USB_DevTransProcess+0x982>
    2a0e:	54385233          	0x54385233
    2a12:	5f36                	lw	t5,108(sp)
    2a14:	6e65704f          	fnmadd.q	ft0,fa0,ft6,fa3
    2a18:	72756f73          	csrrsi	t5,0x727,10
    2a1c:	4c5f6563          	bltu	t5,t0,2ee6 <_data_lma+0x2de>
    2a20:	6269                	lui	tp,0x1a
    2a22:	6172                	flw	ft2,28(sp)
    2a24:	7972                	flw	fs2,60(sp)
    2a26:	62694c2f          	0x62694c2f
    2a2a:	6172                	flw	ft2,28(sp)
    2a2c:	6972                	flw	fs2,28(sp)
    2a2e:	7365                	lui	t1,0xffff9
    2a30:	6565732f          	0x6565732f
    2a34:	6572666b          	0x6572666b
    2a38:	5f65                	li	t5,-7
    2a3a:	6570                	flw	fa2,76(a0)
    2a3c:	6972                	flw	fs2,28(sp)
    2a3e:	6870                	flw	fa2,84(s0)
    2a40:	7265                	lui	tp,0xffff9
    2a42:	6c61                	lui	s8,0x18
    2a44:	4545532f          	0x4545532f
    2a48:	4552464b          	0x4552464b
    2a4c:	5f45                	li	t5,-15
    2a4e:	4c42                	lw	s8,16(sp)
    2a50:	4555                	li	a0,21
    2a52:	4f54                	lw	a3,28(a4)
    2a54:	5f48544f          	fnmadd.q	fs0,fa6,fs4,fa1,unknown
    2a58:	31394843          	fmadd.s	fa6,fs2,fs3,ft6,rmm
    2a5c:	3134                	fld	fa3,96(a0)
    2a5e:	632e                	flw	ft6,200(sp)
    2a60:	0000                	unimp
    2a62:	0000                	unimp
    2a64:	6c62                	flw	fs8,24(sp)
    2a66:	0065                	c.nop	25
    2a68:	3030                	fld	fa2,96(s0)
    2a6a:	3030                	fld	fa2,96(s0)
    2a6c:	3030                	fld	fa2,96(s0)
	...

00002a70 <GPION>:
    2a70:	0800 4001 0c00 4001 1000 4001 1400 4001     ...@...@...@...@

00002a80 <UARTN>:
    2a80:	3800 4001 4400 4000 4800 4000 4c00 4000     .8.@.D.@.H.@.L.@

00002a90 <MyDevDescr>:
    2a90:	0112 0110 0002 4000 1a86 5722 0100 0201     .......@.."W....
    2aa0:	0103 0000                                   ....

00002aa4 <MyCfgDescr>:
    2aa4:	0209 0043 0102 a000 0932 0004 0100 0202     ..C.....2.......
    2ab4:	0001 2405 1000 0501 0124 0000 2404 0202     ...$....$....$..
    2ac4:	2405 0006 0701 8105 4003 ff00 0409 0001     .$.......@......
    2ad4:	0a02 0000 0700 0205 4002 0000 0507 0282     .........@......
    2ae4:	0040 0000                                   @...

00002ae8 <MyProductIDInfo>:
    2ae8:	0314 0032 0030 0031 0037 002d 0032 002d     ..2.0.1.7.-.2.-.
    2af8:	0032 0035                                   2.5.

00002afc <MyManuInfo>:
    2afc:	030e 0077 0063 0068 002e 0063 006e 0000     ..w.c.h...c.n...

00002b0c <MyProdInfo>:
    2b0c:	030c 0043 0048 0031 0030 0078 218c 0000     ..C.H.1.0.x..!..
    2b1c:	224c 0000 18e8 0000 224c 0000 224c 0000     L"......L"..L"..
    2b2c:	224c 0000 224c 0000 224c 0000 224c 0000     L"..L"..L"..L"..
    2b3c:	224c 0000 224c 0000 224c 0000 224c 0000     L"..L"..L"..L"..
    2b4c:	224c 0000 224c 0000 224c 0000 224c 0000     L"..L"..L"..L"..
    2b5c:	224c 0000 224c 0000 224c 0000 224c 0000     L"..L"..L"..L"..
    2b6c:	224c 0000 224c 0000 224c 0000 224c 0000     L"..L"..L"..L"..
    2b7c:	224c 0000 224c 0000 224c 0000 224c 0000     L"..L"..L"..L"..
    2b8c:	224c 0000 224c 0000 224c 0000 207e 0000     L"..L"..L"..~ ..
    2b9c:	220a 0000 199c 0000 224c 0000 224c 0000     ."......L"..L"..
    2bac:	224c 0000 224c 0000 224c 0000 224c 0000     L"..L"..L"..L"..
    2bbc:	224c 0000 224c 0000 224c 0000 224c 0000     L"..L"..L"..L"..
    2bcc:	224c 0000 224c 0000 224c 0000 19e2 0000     L"..L"..L"......
    2bdc:	1fa8 0000 1c8a 0000 1fcc 0000 1dec 0000     ................
    2bec:	1fcc 0000 1c2a 0000 1ae6 0000 1fcc 0000     ....*...........
    2bfc:	1c4e 0000 1c6c 0000 1f8e 0000               N...l.......
