
Seekfree_CH32V103R8T6_Opensource_Library.elf:     file format elf32-littleriscv
Seekfree_CH32V103R8T6_Opensource_Library.elf
architecture: riscv:rv32, flags 0x00000112:
EXEC_P, HAS_SYMS, D_PAGED
start address 0x00000000

Program Header:
    LOAD off    0x00001000 vaddr 0x00000000 paddr 0x00000000 align 2**12
         filesz 0x00007d00 memsz 0x00007d00 flags r-x
    LOAD off    0x00009000 vaddr 0x20000000 paddr 0x00007d00 align 2**12
         filesz 0x00000090 memsz 0x0000010c flags rw-
    LOAD off    0x00009800 vaddr 0x20004800 paddr 0x20004800 align 2**12
         filesz 0x00000000 memsz 0x00000800 flags rw-

Sections:
Idx Name           Size      VMA       LMA       File off  Algn  Flags
  0 .init          00000038  00000000  00000000  00001000  2**1  CONTENTS, ALLOC, LOAD, READONLY, CODE
  1 .vector        00000108  00000038  00000038  00001038  2**1  CONTENTS, ALLOC, LOAD, READONLY, CODE
  2 .text          00007bc0  00000140  00000140  00001140  2**2  CONTENTS, ALLOC, LOAD, READONLY, CODE
  3 .fini          00000000  00007d00  00007d00  00009090  2**0  CONTENTS, ALLOC, LOAD, CODE
  4 .dalign        00000000  20000000  20000000  00009090  2**0  CONTENTS
  5 .dlalign       00000000  00007d00  00007d00  00009090  2**0  CONTENTS
  6 .data          00000090  20000000  00007d00  00009000  2**2  CONTENTS, ALLOC, LOAD, DATA
  7 .bss           0000007c  20000090  00007d90  00009090  2**2  ALLOC
  8 .stack         00000800  20004800  20004800  00009800  2**0  ALLOC
  9 .debug_line    00013a87  00000000  00000000  00009090  2**0  CONTENTS, READONLY, DEBUGGING
 10 .debug_info    0002167e  00000000  00000000  0001cb17  2**0  CONTENTS, READONLY, DEBUGGING
 11 .debug_abbrev  000051b2  00000000  00000000  0003e195  2**0  CONTENTS, READONLY, DEBUGGING
 12 .debug_aranges 00001090  00000000  00000000  00043348  2**3  CONTENTS, READONLY, DEBUGGING
 13 .debug_str     00005e37  00000000  00000000  000443d8  2**0  CONTENTS, READONLY, DEBUGGING
 14 .debug_ranges  00000e28  00000000  00000000  0004a210  2**3  CONTENTS, READONLY, DEBUGGING
 15 .comment       00000033  00000000  00000000  0004b038  2**0  CONTENTS, READONLY
 16 .debug_frame   000045e8  00000000  00000000  0004b06c  2**2  CONTENTS, READONLY, DEBUGGING
 17 .stab          000000b4  00000000  00000000  0004f654  2**2  CONTENTS, READONLY, DEBUGGING
 18 .stabstr       00000183  00000000  00000000  0004f708  2**0  CONTENTS, READONLY, DEBUGGING
SYMBOL TABLE:
00000000 l    d  .init	00000000 .init
00000038 l    d  .vector	00000000 .vector
00000140 l    d  .text	00000000 .text
00007d00 l    d  .fini	00000000 .fini
20000000 l    d  .dalign	00000000 .dalign
00007d00 l    d  .dlalign	00000000 .dlalign
20000000 l    d  .data	00000000 .data
20000090 l    d  .bss	00000000 .bss
20004800 l    d  .stack	00000000 .stack
00000000 l    d  .debug_line	00000000 .debug_line
00000000 l    d  .debug_info	00000000 .debug_info
00000000 l    d  .debug_abbrev	00000000 .debug_abbrev
00000000 l    d  .debug_aranges	00000000 .debug_aranges
00000000 l    d  .debug_str	00000000 .debug_str
00000000 l    d  .debug_ranges	00000000 .debug_ranges
00000000 l    d  .comment	00000000 .comment
00000000 l    d  .debug_frame	00000000 .debug_frame
00000000 l    d  .stab	00000000 .stab
00000000 l    d  .stabstr	00000000 .stabstr
00000000 l    df *ABS*	00000000 ./wch_Libraries/Startup/startup_ch32v10x.o
00000038 l       .vector	00000000 _vector_base
00000000 l    df *ABS*	00000000 ch32v10x_adc.c
00000000 l    df *ABS*	00000000 ch32v10x_dma.c
00000000 l    df *ABS*	00000000 ch32v10x_exti.c
00000000 l    df *ABS*	00000000 ch32v10x_gpio.c
00000000 l    df *ABS*	00000000 ch32v10x_rcc.c
20000000 l     O .data	00000010 APBAHBPrescTable
20000070 l     O .data	00000004 ADCPrescTable
00000000 l    df *ABS*	00000000 ch32v10x_spi.c
00000000 l    df *ABS*	00000000 ch32v10x_tim.c
00000000 l    df *ABS*	00000000 ch32v10x_usart.c
00000000 l    df *ABS*	00000000 SEEKFREE_BLUETOOTH_CH9141.c
00000000 l    df *ABS*	00000000 SEEKFREE_IPS114_SPI.c
00000000 l    df *ABS*	00000000 SEEKFREE_MT9V03X.c
00000000 l    df *ABS*	00000000 SEEKFREE_UART_7725.c
00000000 l    df *ABS*	00000000 SEEKFREE_WIRELESS.c
00000000 l    df *ABS*	00000000 board.c
00000000 l    df *ABS*	00000000 clock_config.c
00002cb0 l     F .text	00000140 SetSysClock
00000000 l    df *ABS*	00000000 zf_adc.c
00000000 l    df *ABS*	00000000 zf_gpio.c
00000000 l    df *ABS*	00000000 zf_nvic.c
00000000 l    df *ABS*	00000000 zf_pwm.c
00000000 l    df *ABS*	00000000 zf_spi.c
00007a7c l     O .text	0000000e __func__.3350
00000000 l    df *ABS*	00000000 zf_systick.c
00000000 l    df *ABS*	00000000 zf_timer.c
00000000 l    df *ABS*	00000000 zf_uart.c
00000000 l    df *ABS*	00000000 zf_usb_cdc.c
00000000 l    df *ABS*	00000000 isr.c
00000000 l    df *ABS*	00000000 main.c
00000000 l    df *ABS*	00000000 ADC_measure.c
00000000 l    df *ABS*	00000000 ips_show.c
00000000 l    df *ABS*	00000000 key_make.c
00000000 l    df *ABS*	00000000 motor_PWM.c
00000000 l    df *ABS*	00000000 timer_encoder.c
00000000 l    df *ABS*	00000000 uart_showdate.c
00000000 l    df *ABS*	00000000 assert.c
00000000 l    df *ABS*	00000000 fprintf.c
00000000 l    df *ABS*	00000000 memcpy.c
00000000 l    df *ABS*	00000000 nano-vfprintf.c
00005ba0 l     F .text	00000028 __sfputc_r
00000000 l    df *ABS*	00000000 nano-vfprintf_i.c
00000000 l    df *ABS*	00000000 snprintf.c
00000000 l    df *ABS*	00000000 strncmp.c
00000000 l    df *ABS*	00000000 wbuf.c
00000000 l    df *ABS*	00000000 wsetup.c
00000000 l    df *ABS*	00000000 abort.c
00000000 l    df *ABS*	00000000 fflush.c
00000000 l    df *ABS*	00000000 findfp.c
0000667e l     F .text	0000006a std
00000000 l    df *ABS*	00000000 fwalk.c
00000000 l    df *ABS*	00000000 makebuf.c
00000000 l    df *ABS*	00000000 memchr.c
00000000 l    df *ABS*	00000000 memmove.c
00000000 l    df *ABS*	00000000 nano-mallocr.c
00000000 l    df *ABS*	00000000 nano-mallocr.c
00000000 l    df *ABS*	00000000 nano-mallocr.c
00000000 l    df *ABS*	00000000 nano-vfprintf.c
00000000 l    df *ABS*	00000000 sbrkr.c
00000000 l    df *ABS*	00000000 signal.c
00000000 l    df *ABS*	00000000 signalr.c
00000000 l    df *ABS*	00000000 stdio.c
00000000 l    df *ABS*	00000000 writer.c
00000000 l    df *ABS*	00000000 closer.c
00000000 l    df *ABS*	00000000 fstatr.c
00000000 l    df *ABS*	00000000 isattyr.c
00000000 l    df *ABS*	00000000 lseekr.c
00000000 l    df *ABS*	00000000 mlock.c
00000000 l    df *ABS*	00000000 nano-mallocr.c
00000000 l    df *ABS*	00000000 readr.c
00000000 l    df *ABS*	00000000 close.c
00000000 l    df *ABS*	00000000 fstat.c
00000000 l    df *ABS*	00000000 getpid.c
00000000 l    df *ABS*	00000000 isatty.c
00000000 l    df *ABS*	00000000 kill.c
00000000 l    df *ABS*	00000000 lseek.c
00000000 l    df *ABS*	00000000 read.c
00000000 l    df *ABS*	00000000 sbrk.c
200000e4 l     O .bss	00000004 heap_end.1518
00000000 l    df *ABS*	00000000 _exit.c
00000000 l    df *ABS*	00000000 SEEKFREE_FONT.c
00000000 l    df *ABS*	00000000 impure.c
20000010 l     O .data	00000060 impure_data
00000000 l    df *ABS*	00000000 ch32v10x_usb.c
00000000 l    df *ABS*	00000000 common.c
00000000 l    df *ABS*	00000000 reent.c
000017fc g     F .text	0000003c TIM_TimeBaseStructInit
000071a0 g     F .text	00000014 _malloc_usable_size_r
00005068 g     F .text	00000024 EXTI2_IRQHandler
200000b4 g     O .bss	00000004 wireless_type
000021e4 g     F .text	0000004a bluetooth_ch9141_check_response
00007148 g     F .text	00000028 _isatty_r
000025a2 g     F .text	0000007e ips114_set_region
000071f8 g     F .text	0000000c _getpid
00007170 g     F .text	0000002c _lseek_r
0000457c g     F .text	00000a72 USB_DevTransProcess
00006fe2 g     F .text	0000002a _kill_r
000027e4 g     F .text	00000176 ips114_showint16
20000870 g       .data	00000000 __global_pointer$
000052ce g     F .text	00000090 TIM1_CC_IRQHandler
000056ba g     F .text	00000016 ips_init
0000708c g     F .text	00000036 __sseek
00006738 g     F .text	0000006c __sinit
00006300 g     F .text	000000c0 __swbuf_r
00005510 g     F .text	00000008 HardFault_Handler
200000ae g     O .bss	00000001 wireless_rx_buffer
000057b8 g     F .text	000000b6 key_start
000066f2 g     F .text	00000046 __sfmoreglue
0000719e g     F .text	00000002 __malloc_unlock
00005768 g     F .text	00000026 key_init
000019c8 g     F .text	0000004c TIM_OC1PreloadConfig
0000042e g     F .text	00000022 ADC_StartCalibration
200000b8 g     O .bss	00000004 sys_clk
000069c4 g     F .text	0000004a memmove
00006264 g     F .text	00000070 snprintf
00005500 g     F .text	00000010 NMI_Handler
0000508c g     F .text	00000024 EXTI3_IRQHandler
200000b0 g     O .bss	00000004 camera_type
200000d0 g     O .bss	00000004 ADC_date
00001fb8 g     F .text	00000046 USART_GetFlagStatus
0000711e g     F .text	0000002a _fstat_r
00007a8c g     O .text	00000010 TIMERN
20000108 g     O .bss	00000004 errno
20000090 g       .bss	00000000 _sbss
00000800 g       *ABS*	00000000 __stack_size
0000586e g     F .text	00000076 motor_enable_init
00005926 g     F .text	00000058 set_PWM_motor
00003744 g     F .text	000003c4 timer_pwm_init
20000098 g     O .bss	00000001 uart_flag
00000140 g       .text	00000000 interrupt_disable
200000ad g     O .bss	00000001 ov7725_uart_finish_flag
00007aac g     O .text	00000012 MyDevDescr
00001890 g     F .text	00000060 TIM_CtrlPWMOutputs
00005aea g     F .text	000000b6 memcpy
00005746 g     F .text	00000022 ips_show_clear
0000039e g     F .text	0000003e ADC_Cmd
000066e8 g     F .text	0000000a _cleanup_r
00000b22 g     F .text	0000013c GPIO_PinRemapConfig
00006cca g     F .text	00000282 _svfprintf_r
00005002 g     F .text	00000024 EXTI0_IRQHandler
200000be g     O .bss	00000002 SetupReqLen
00001838 g     F .text	00000058 TIM_Cmd
00001aba g     F .text	0000005a TIM_OC4PreloadConfig
00006f74 g     F .text	00000062 _raise_r
000071ec g     F .text	0000000c _fstat
00003d88 g     F .text	00000138 spi_init
00005a8a g     F .text	0000003a __assert_func
0000570e g     F .text	00000038 ips_show_string
00000038 g       .init	00000000 _einit
00001cc8 g     F .text	0000002e TIM_ClearITPendingBit
00000ebe g     F .text	00000046 RCC_APB2PeriphClockCmd
000029ca g     F .text	0000005c mt9v03x_vsync
0000747c g     O .text	000005f0 tft_ascii
00005202 g     F .text	00000010 ADC1_2_IRQHandler
0000700c g     F .text	00000002 _getpid_r
000008c0 g     F .text	0000022a GPIO_Init
200000c0 g     O .bss	00000001 USBByteCount
00000c5e g     F .text	00000046 RCC_ADCCLKConfig
200000bd g     O .bss	00000001 SetupReqCode
000003dc g     F .text	00000022 ADC_ResetCalibration
00001f2a g     F .text	00000060 USART_Cmd
00006f4c g     F .text	00000028 _sbrk_r
00002e6c g     F .text	00000180 adc_gpio_init
20000088 g     O .data	00000004 MyLangDescr
00001502 g     F .text	000001b0 TIM_OC3Init
000071b4 g     F .text	0000002c _read_r
000058e4 g     F .text	00000042 PWM_init
00002100 g     F .text	0000004e USART_ClearITPendingBit
20000080 g     O .data	00000008 SPIN
00000f04 g     F .text	00000046 RCC_APB1PeriphClockCmd
00007ac0 g     O .text	00000043 MyCfgDescr
00007204 g     F .text	0000000c _isatty
00004016 g     F .text	00000170 timer_gpio_quad_init
2000008c g     O .data	00000004 _global_impure_ptr
200000c8 g     O .bss	00000004 enc
00006b84 g     F .text	00000058 _realloc_r
000054be g     F .text	00000042 DMA1_Channel4_IRQHandler
00000480 g     F .text	00000248 ADC_RegularChannelConfig
00001bb6 g     F .text	0000004c TIM_OC3FastConfig
000064cc g     F .text	00000010 abort
00007234 g     F .text	00000020 _sbrk
00007b18 g     O .text	0000000e MyManuInfo
000006c8 g     F .text	0000005c DMA_GetFlagStatus
2000009a g     O .bss	00000001 at_mode
0000548a g     F .text	00000034 USART3_IRQHandler
000007b2 g     F .text	00000020 EXTI_ClearITPendingBit
00000450 g     F .text	00000030 ADC_GetCalibrationStatus
2000010c g       .bss	00000000 _ebss
00001ffe g     F .text	00000102 USART_GetITStatus
000011dc g     F .text	00000170 TIM_OC1Init
00001a6e g     F .text	0000004c TIM_OC3PreloadConfig
000003fe g     F .text	00000030 ADC_GetResetCalibrationStatus
00002342 g     F .text	00000260 ips114_init
00002620 g     F .text	00000066 ips114_clear
200000c4 g     O .bss	00000004 pDescr
000033e0 g     F .text	00000364 timer_pwm_gpio_init
000022d2 g     F .text	00000070 ips114_writedata_16bit
00003f82 g     F .text	00000094 systick_delay
20000099 g     O .bss	00000001 uart_data
00002a7c g     F .text	00000070 ov7725_cof_uart_interrupt
00007a9c g     O .text	00000010 UARTN
00005ac4 g     F .text	00000026 fprintf
000053b6 g     F .text	00000030 TIM4_IRQHandler
2000009c g     O .bss	00000001 at_mode_cmd_flag
00000aea g     F .text	00000038 GPIO_WriteBit
200000ab g     O .bss	00000001 ov7725_uart_receive_num
00007ca0 g     O .text	00000020 __sf_fake_stderr
00006264 g     F .text	00000070 sniprintf
2000010c g       .bss	00000000 end
20000074 g     O .data	00000007 LineCoding
00004186 g     F .text	0000015c timer_quad_init
200000d4 g     O .bss	00000001 key_01
00006bdc g     F .text	000000ee __ssputs_r
00001c58 g     F .text	00000070 TIM_GetITStatus
00004fee g     F .text	00000014 USBHD_IRQHandler
00000ca4 g     F .text	0000021a RCC_GetClocksFreq
0000566a g     F .text	0000001e ADC_init
00005bc8 g     F .text	00000044 __sfputs_r
00004422 g     F .text	00000104 uart_init
000069aa g     F .text	0000001a memchr
00001cf6 g     F .text	00000234 USART_Init
00006a0e g     F .text	000000a8 _free_r
0000334c g     F .text	00000056 gpio_get
00005386 g     F .text	00000030 TIM3_IRQHandler
000033ba g     F .text	00000026 EnableGlobalIRQ
00004336 g     F .text	000000ec uart_gpio_init
00005276 g     F .text	00000058 TIM1_TRG_COM_IRQHandler
00001b14 g     F .text	0000004c TIM_OC1FastConfig
00002b48 g     F .text	00000056 ov7725_uart_dma
00000000 g       .init	00000000 _start
0000721c g     F .text	0000000c _lseek
200000ac g     O .bss	00000001 ov7725_uart_receive_flag
00001a14 g     F .text	0000005a TIM_OC2PreloadConfig
00005164 g     F .text	0000009e EXTI15_10_IRQHandler
00007a6c g     O .text	00000010 GPION
0000134c g     F .text	000001b6 TIM_OC2Init
000062d4 g     F .text	0000002c strncmp
0000597e g     F .text	0000002e encoder_init
20000094 g     O .bss	00000004 pEP2_RAM_Addr
00005688 g     F .text	00000032 ADC_get
200000cc g     O .bss	00000004 adc
00003b08 g     F .text	000000f2 timer_pwm_duty
200000d8 g     O .bss	00000004 enc_date
200000e8 g     O .bss	0000001e at_mode_data
000070f6 g     F .text	00000028 _close_r
20000000 g       .dalign	00000000 _data_vma
000016b2 g     F .text	0000014a TIM_OC4Init
0000222e g     F .text	00000052 ips114_writeIndex
000063c0 g     F .text	0000010c __swsetup_r
000050d4 g     F .text	00000090 EXTI9_5_IRQHandler
000067a4 g     F .text	000000a0 __sfp
00002bc4 g     F .text	00000074 board_init
0000700e g     F .text	00000030 __sread
0000719c g     F .text	00000002 __malloc_lock
200000d5 g     O .bss	00000001 key_able
00006618 g     F .text	00000066 _fflush_r
0000075c g     F .text	00000056 EXTI_GetITStatus
20000090 g     O .bss	00000004 pEP0_RAM_Addr
00002768 g     F .text	0000007c ips114_showstr
00007cc0 g     O .text	00000020 __sf_fake_stdin
00002a26 g     F .text	00000056 mt9v03x_dma
0000014c g     F .text	000000a8 memset
00005518 g     F .text	00000152 main
000070c2 g     F .text	00000006 __sclose
00006ab6 g     F .text	000000ce _malloc_r
00001b60 g     F .text	00000056 TIM_OC2FastConfig
000030b6 g     F .text	00000074 adc_convert
000050b0 g     F .text	00000024 EXTI4_IRQHandler
00007b28 g     O .text	0000000c MyProdInfo
00001088 g     F .text	0000005a SPI_Cmd
000033a2 g     F .text	00000018 DisableGlobalIRQ
00002df0 g     F .text	0000007c SystemInit
000007d2 g     F .text	000000ee GPIO_DeInit
00000000 g       .init	00000000 _sinit
000070c8 g     F .text	0000002e _write_r
200000a3 g     O .bss	00000001 receive_num
00005eac g     F .text	0000010c _printf_common
2000007c g     O .data	00000004 _impure_ptr
0000578e g     F .text	0000002a key_get
00005246 g     F .text	00000030 TIM1_UP_IRQHandler
00002fec g     F .text	000000ca adc_init
200000a0 g     O .bss	00000003 receive
000064dc g     F .text	0000013c __sflush_r
00002aec g     F .text	0000005c ov7725_uart_vsync
00006cca g     F .text	00000282 _svfiprintf_r
00005a4a g     F .text	00000040 uart_show_string
0000535e g     F .text	00000028 TIM2_IRQHandler
20005000 g       .stack	00000000 _eusrstack
200000a4 g     O .bss	00000001 uart_receive_flag
0000295a g     F .text	00000070 mt9v03x_uart_callback
0000214e g     F .text	00000096 bluetooth_ch9141_uart_callback
00000272 g     F .text	0000003a ADC_DeInit
000059de g     F .text	0000006c uart_show_date
200000a5 g     O .bss	00000001 mt9v03x_finish_flag
00005212 g     F .text	00000034 TIM1_BRK_IRQHandler
000068b0 g     F .text	0000005a __swhatbuf_r
000002ac g     F .text	000000f2 ADC_Init
00001f8a g     F .text	0000002e USART_SendData
00005026 g     F .text	00000042 EXTI1_IRQHandler
000059ac g     F .text	00000032 encoder_get
00002c38 g     F .text	00000078 _write
20000090 g       .data	00000000 _edata
00002b9e g     F .text	00000026 wireless_uart_callback
00002280 g     F .text	00000052 ips114_writeData
000010e2 g     F .text	000000fa TIM_TimeBaseInit
00007d00 g       .dlalign	00000000 _data_lma
2000009b g     O .bss	00000001 at_mode_num
00005438 g     F .text	00000052 USART2_IRQHandler
0000703e g     F .text	0000004e __swrite
00005ac4 g     F .text	00000026 fiprintf
00005c0c g     F .text	000002a0 _vfiprintf_r
00003ec0 g     F .text	000000c2 spi_mosi
00006844 g     F .text	0000006c _fwalk_reent
00007210 g     F .text	0000000c _kill
00007b04 g     O .text	00000014 MyProductIDInfo
00007ce0 g     O .text	00000020 __sf_fake_stdout
00000724 g     F .text	00000038 DMA_ClearFlag
00007228 g     F .text	0000000c _read
000001f4  w      .text	00000000 handle_reset
00007254 g     F .text	00000002 _exit
000042e2 g     F .text	0000002e timer_quad_get
000053e6 g     F .text	00000052 USART1_IRQHandler
0000690a g     F .text	000000a0 __smakebuf_r
00000146 g       .text	00000000 interrupt_enable
00005fb8 g     F .text	000002ac _printf_i
200000bc g     O .bss	00000001 UsbConfig
200000e0 g     O .bss	00000004 __malloc_sbrk_start
00000f4a g     F .text	00000046 RCC_APB2PeriphResetCmd
000032ce g     F .text	0000007e gpio_set
00000f90 g     F .text	000000f8 SPI_Init
00004310 g     F .text	00000026 timer_quad_clear
00003bfa g     F .text	0000018e spi_gpio_init
0000312a g     F .text	000001a4 gpio_init
200000dc g     O .bss	00000004 __malloc_free_list
000018f0 g     F .text	000000d8 TIM_EncoderInterfaceConfig
00005c0c g     F .text	000002a0 _vfprintf_r
00001c02 g     F .text	00000056 TIM_OC4FastConfig
00004526 g     F .text	00000056 uart_putchar
200000a8 g     O .bss	00000003 ov7725_uart_receive
000071e0 g     F .text	0000000c _close
00006fd6 g     F .text	0000000c raise
00002686 g     F .text	000000e2 ips114_showchar
000056d0 g     F .text	0000003e ips_show_date



Disassembly of section .init:

00000000 <_sinit>:
_start():
E:/桌面/19th智能车/单片机培训、考核/CH32V103_Library-master/Seekfree_CH32V103R8T6_Opensource_Library/Libraries/wch_Libraries/Startup/startup_ch32v10x.S:13

	.section	.init,"ax",@progbits
	.global	_start
	.align	1
_start:
	j	handle_reset
   0:	1f40006f          	j	1f4 <handle_reset>
   4:	00000013          	nop
   8:	00000013          	nop
   c:	00000013          	nop
  10:	00000013          	nop
  14:	00000013          	nop
  18:	00000013          	nop
  1c:	00000013          	nop
  20:	00000013          	nop
  24:	00000013          	nop
  28:	00000013          	nop
  2c:	00000013          	nop
  30:	00000013          	nop
  34:	00100073          	ebreak

Disassembly of section .vector:

00000038 <_vector_base>:
_vector_base():
E:/桌面/19th智能车/单片机培训、考核/CH32V103_Library-master/Seekfree_CH32V103R8T6_Opensource_Library/Libraries/wch_Libraries/Startup/startup_ch32v10x.S:31
	.word 0x00100073
    .section    .vector,"ax",@progbits
    .align  1
_vector_base:
    .option norvc;
        j   _start
  38:	fc9ff06f          	j	0 <_sinit>
  3c:	0000                	unimp
  3e:	0000                	unimp
E:/桌面/19th智能车/单片机培训、考核/CH32V103_Library-master/Seekfree_CH32V103R8T6_Opensource_Library/Libraries/wch_Libraries/Startup/startup_ch32v10x.S:33
    .word   0
        j   NMI_Handler                 /* NMI Handler */
  40:	4c00506f          	j	5500 <NMI_Handler>
E:/桌面/19th智能车/单片机培训、考核/CH32V103_Library-master/Seekfree_CH32V103R8T6_Opensource_Library/Libraries/wch_Libraries/Startup/startup_ch32v10x.S:34
        j   HardFault_Handler           /* Hard Fault Handler */
  44:	4cc0506f          	j	5510 <HardFault_Handler>
	...
E:/桌面/19th智能车/单片机培训、考核/CH32V103_Library-master/Seekfree_CH32V103R8T6_Opensource_Library/Libraries/wch_Libraries/Startup/startup_ch32v10x.S:43
    .word   0
    .word   0
    .word   0
    .word   0
    .word   0
        j   SysTick_Handler            /* SysTick Handler */
  68:	f99ff06f          	j	0 <_sinit>
  6c:	0000                	unimp
  6e:	0000                	unimp
E:/桌面/19th智能车/单片机培训、考核/CH32V103_Library-master/Seekfree_CH32V103R8T6_Opensource_Library/Libraries/wch_Libraries/Startup/startup_ch32v10x.S:45
    .word   0
        j   SW_handler                 /* SW Handler */
  70:	f91ff06f          	j	0 <_sinit>
  74:	0000                	unimp
  76:	0000                	unimp
E:/桌面/19th智能车/单片机培训、考核/CH32V103_Library-master/Seekfree_CH32V103R8T6_Opensource_Library/Libraries/wch_Libraries/Startup/startup_ch32v10x.S:48
    .word   0
    /* External Interrupts */
        j   WWDG_IRQHandler            /* Window Watchdog */
  78:	f89ff06f          	j	0 <_sinit>
E:/桌面/19th智能车/单片机培训、考核/CH32V103_Library-master/Seekfree_CH32V103R8T6_Opensource_Library/Libraries/wch_Libraries/Startup/startup_ch32v10x.S:49
        j   PVD_IRQHandler             /* PVD through EXTI Line detect */
  7c:	f85ff06f          	j	0 <_sinit>
E:/桌面/19th智能车/单片机培训、考核/CH32V103_Library-master/Seekfree_CH32V103R8T6_Opensource_Library/Libraries/wch_Libraries/Startup/startup_ch32v10x.S:50
        j   TAMPER_IRQHandler          /* TAMPER */
  80:	f81ff06f          	j	0 <_sinit>
E:/桌面/19th智能车/单片机培训、考核/CH32V103_Library-master/Seekfree_CH32V103R8T6_Opensource_Library/Libraries/wch_Libraries/Startup/startup_ch32v10x.S:51
        j   RTC_IRQHandler             /* RTC */
  84:	f7dff06f          	j	0 <_sinit>
E:/桌面/19th智能车/单片机培训、考核/CH32V103_Library-master/Seekfree_CH32V103R8T6_Opensource_Library/Libraries/wch_Libraries/Startup/startup_ch32v10x.S:52
        j   FLASH_IRQHandler           /* Flash */
  88:	f79ff06f          	j	0 <_sinit>
E:/桌面/19th智能车/单片机培训、考核/CH32V103_Library-master/Seekfree_CH32V103R8T6_Opensource_Library/Libraries/wch_Libraries/Startup/startup_ch32v10x.S:53
        j   RCC_IRQHandler             /* RCC */
  8c:	f75ff06f          	j	0 <_sinit>
E:/桌面/19th智能车/单片机培训、考核/CH32V103_Library-master/Seekfree_CH32V103R8T6_Opensource_Library/Libraries/wch_Libraries/Startup/startup_ch32v10x.S:54
        j   EXTI0_IRQHandler           /* EXTI Line 0 */
  90:	7730406f          	j	5002 <EXTI0_IRQHandler>
E:/桌面/19th智能车/单片机培训、考核/CH32V103_Library-master/Seekfree_CH32V103R8T6_Opensource_Library/Libraries/wch_Libraries/Startup/startup_ch32v10x.S:55
        j   EXTI1_IRQHandler           /* EXTI Line 1 */
  94:	7930406f          	j	5026 <EXTI1_IRQHandler>
E:/桌面/19th智能车/单片机培训、考核/CH32V103_Library-master/Seekfree_CH32V103R8T6_Opensource_Library/Libraries/wch_Libraries/Startup/startup_ch32v10x.S:56
        j   EXTI2_IRQHandler           /* EXTI Line 2 */
  98:	7d10406f          	j	5068 <EXTI2_IRQHandler>
E:/桌面/19th智能车/单片机培训、考核/CH32V103_Library-master/Seekfree_CH32V103R8T6_Opensource_Library/Libraries/wch_Libraries/Startup/startup_ch32v10x.S:57
        j   EXTI3_IRQHandler           /* EXTI Line 3 */
  9c:	7f10406f          	j	508c <EXTI3_IRQHandler>
E:/桌面/19th智能车/单片机培训、考核/CH32V103_Library-master/Seekfree_CH32V103R8T6_Opensource_Library/Libraries/wch_Libraries/Startup/startup_ch32v10x.S:58
        j   EXTI4_IRQHandler           /* EXTI Line 4 */
  a0:	0100506f          	j	50b0 <EXTI4_IRQHandler>
E:/桌面/19th智能车/单片机培训、考核/CH32V103_Library-master/Seekfree_CH32V103R8T6_Opensource_Library/Libraries/wch_Libraries/Startup/startup_ch32v10x.S:59
        j   DMA1_Channel1_IRQHandler   /* DMA1 Channel 1 */
  a4:	f5dff06f          	j	0 <_sinit>
E:/桌面/19th智能车/单片机培训、考核/CH32V103_Library-master/Seekfree_CH32V103R8T6_Opensource_Library/Libraries/wch_Libraries/Startup/startup_ch32v10x.S:60
        j   DMA1_Channel2_IRQHandler   /* DMA1 Channel 2 */
  a8:	f59ff06f          	j	0 <_sinit>
E:/桌面/19th智能车/单片机培训、考核/CH32V103_Library-master/Seekfree_CH32V103R8T6_Opensource_Library/Libraries/wch_Libraries/Startup/startup_ch32v10x.S:61
        j   DMA1_Channel3_IRQHandler   /* DMA1 Channel 3 */
  ac:	f55ff06f          	j	0 <_sinit>
E:/桌面/19th智能车/单片机培训、考核/CH32V103_Library-master/Seekfree_CH32V103R8T6_Opensource_Library/Libraries/wch_Libraries/Startup/startup_ch32v10x.S:62
        j   DMA1_Channel4_IRQHandler   /* DMA1 Channel 4 */
  b0:	40e0506f          	j	54be <DMA1_Channel4_IRQHandler>
E:/桌面/19th智能车/单片机培训、考核/CH32V103_Library-master/Seekfree_CH32V103R8T6_Opensource_Library/Libraries/wch_Libraries/Startup/startup_ch32v10x.S:63
        j   DMA1_Channel5_IRQHandler   /* DMA1 Channel 5 */
  b4:	f4dff06f          	j	0 <_sinit>
E:/桌面/19th智能车/单片机培训、考核/CH32V103_Library-master/Seekfree_CH32V103R8T6_Opensource_Library/Libraries/wch_Libraries/Startup/startup_ch32v10x.S:64
        j   DMA1_Channel6_IRQHandler   /* DMA1 Channel 6 */
  b8:	f49ff06f          	j	0 <_sinit>
E:/桌面/19th智能车/单片机培训、考核/CH32V103_Library-master/Seekfree_CH32V103R8T6_Opensource_Library/Libraries/wch_Libraries/Startup/startup_ch32v10x.S:65
        j   DMA1_Channel7_IRQHandler   /* DMA1 Channel 7 */
  bc:	f45ff06f          	j	0 <_sinit>
E:/桌面/19th智能车/单片机培训、考核/CH32V103_Library-master/Seekfree_CH32V103R8T6_Opensource_Library/Libraries/wch_Libraries/Startup/startup_ch32v10x.S:66
        j   ADC1_2_IRQHandler          /* ADC1_2 */
  c0:	1420506f          	j	5202 <ADC1_2_IRQHandler>
	...
E:/桌面/19th智能车/单片机培训、考核/CH32V103_Library-master/Seekfree_CH32V103R8T6_Opensource_Library/Libraries/wch_Libraries/Startup/startup_ch32v10x.S:71
        .word   0
        .word   0
        .word   0
        .word   0
        j   EXTI9_5_IRQHandler         /* EXTI Line 9..5 */
  d4:	0000506f          	j	50d4 <EXTI9_5_IRQHandler>
E:/桌面/19th智能车/单片机培训、考核/CH32V103_Library-master/Seekfree_CH32V103R8T6_Opensource_Library/Libraries/wch_Libraries/Startup/startup_ch32v10x.S:72
        j   TIM1_BRK_IRQHandler        /* TIM1 Break */
  d8:	13a0506f          	j	5212 <TIM1_BRK_IRQHandler>
E:/桌面/19th智能车/单片机培训、考核/CH32V103_Library-master/Seekfree_CH32V103R8T6_Opensource_Library/Libraries/wch_Libraries/Startup/startup_ch32v10x.S:73
        j   TIM1_UP_IRQHandler         /* TIM1 Update */
  dc:	16a0506f          	j	5246 <TIM1_UP_IRQHandler>
E:/桌面/19th智能车/单片机培训、考核/CH32V103_Library-master/Seekfree_CH32V103R8T6_Opensource_Library/Libraries/wch_Libraries/Startup/startup_ch32v10x.S:74
        j   TIM1_TRG_COM_IRQHandler    /* TIM1 Trigger and Commutation */
  e0:	1960506f          	j	5276 <TIM1_TRG_COM_IRQHandler>
E:/桌面/19th智能车/单片机培训、考核/CH32V103_Library-master/Seekfree_CH32V103R8T6_Opensource_Library/Libraries/wch_Libraries/Startup/startup_ch32v10x.S:75
        j   TIM1_CC_IRQHandler         /* TIM1 Capture Compare */
  e4:	1ea0506f          	j	52ce <TIM1_CC_IRQHandler>
E:/桌面/19th智能车/单片机培训、考核/CH32V103_Library-master/Seekfree_CH32V103R8T6_Opensource_Library/Libraries/wch_Libraries/Startup/startup_ch32v10x.S:76
        j   TIM2_IRQHandler            /* TIM2 */
  e8:	2760506f          	j	535e <TIM2_IRQHandler>
E:/桌面/19th智能车/单片机培训、考核/CH32V103_Library-master/Seekfree_CH32V103R8T6_Opensource_Library/Libraries/wch_Libraries/Startup/startup_ch32v10x.S:77
        j   TIM3_IRQHandler            /* TIM3 */
  ec:	29a0506f          	j	5386 <TIM3_IRQHandler>
E:/桌面/19th智能车/单片机培训、考核/CH32V103_Library-master/Seekfree_CH32V103R8T6_Opensource_Library/Libraries/wch_Libraries/Startup/startup_ch32v10x.S:78
        j   TIM4_IRQHandler            /* TIM4 */
  f0:	2c60506f          	j	53b6 <TIM4_IRQHandler>
E:/桌面/19th智能车/单片机培训、考核/CH32V103_Library-master/Seekfree_CH32V103R8T6_Opensource_Library/Libraries/wch_Libraries/Startup/startup_ch32v10x.S:79
        j   I2C1_EV_IRQHandler         /* I2C1 Event */
  f4:	f0dff06f          	j	0 <_sinit>
E:/桌面/19th智能车/单片机培训、考核/CH32V103_Library-master/Seekfree_CH32V103R8T6_Opensource_Library/Libraries/wch_Libraries/Startup/startup_ch32v10x.S:80
        j   I2C1_ER_IRQHandler         /* I2C1 Error */
  f8:	f09ff06f          	j	0 <_sinit>
E:/桌面/19th智能车/单片机培训、考核/CH32V103_Library-master/Seekfree_CH32V103R8T6_Opensource_Library/Libraries/wch_Libraries/Startup/startup_ch32v10x.S:81
        j   I2C2_EV_IRQHandler         /* I2C2 Event */
  fc:	f05ff06f          	j	0 <_sinit>
E:/桌面/19th智能车/单片机培训、考核/CH32V103_Library-master/Seekfree_CH32V103R8T6_Opensource_Library/Libraries/wch_Libraries/Startup/startup_ch32v10x.S:82
        j   I2C2_ER_IRQHandler         /* I2C2 Error */
 100:	f01ff06f          	j	0 <_sinit>
E:/桌面/19th智能车/单片机培训、考核/CH32V103_Library-master/Seekfree_CH32V103R8T6_Opensource_Library/Libraries/wch_Libraries/Startup/startup_ch32v10x.S:83
        j   SPI1_IRQHandler            /* SPI1 */
 104:	efdff06f          	j	0 <_sinit>
E:/桌面/19th智能车/单片机培训、考核/CH32V103_Library-master/Seekfree_CH32V103R8T6_Opensource_Library/Libraries/wch_Libraries/Startup/startup_ch32v10x.S:84
        j   SPI2_IRQHandler            /* SPI2 */
 108:	ef9ff06f          	j	0 <_sinit>
E:/桌面/19th智能车/单片机培训、考核/CH32V103_Library-master/Seekfree_CH32V103R8T6_Opensource_Library/Libraries/wch_Libraries/Startup/startup_ch32v10x.S:85
        j   USART1_IRQHandler          /* USART1 */
 10c:	2da0506f          	j	53e6 <USART1_IRQHandler>
E:/桌面/19th智能车/单片机培训、考核/CH32V103_Library-master/Seekfree_CH32V103R8T6_Opensource_Library/Libraries/wch_Libraries/Startup/startup_ch32v10x.S:86
        j   USART2_IRQHandler          /* USART2 */
 110:	3280506f          	j	5438 <USART2_IRQHandler>
E:/桌面/19th智能车/单片机培训、考核/CH32V103_Library-master/Seekfree_CH32V103R8T6_Opensource_Library/Libraries/wch_Libraries/Startup/startup_ch32v10x.S:87
        j   USART3_IRQHandler          /* USART3 */
 114:	3760506f          	j	548a <USART3_IRQHandler>
E:/桌面/19th智能车/单片机培训、考核/CH32V103_Library-master/Seekfree_CH32V103R8T6_Opensource_Library/Libraries/wch_Libraries/Startup/startup_ch32v10x.S:88
        j   EXTI15_10_IRQHandler       /* EXTI Line 15..10 */
 118:	04c0506f          	j	5164 <EXTI15_10_IRQHandler>
E:/桌面/19th智能车/单片机培训、考核/CH32V103_Library-master/Seekfree_CH32V103R8T6_Opensource_Library/Libraries/wch_Libraries/Startup/startup_ch32v10x.S:89
        j   RTCAlarm_IRQHandler        /* RTC Alarm through EXTI Line */
 11c:	ee5ff06f          	j	0 <_sinit>
E:/桌面/19th智能车/单片机培训、考核/CH32V103_Library-master/Seekfree_CH32V103R8T6_Opensource_Library/Libraries/wch_Libraries/Startup/startup_ch32v10x.S:90
        j   USBWakeUp_IRQHandler       /* USB Wakeup from suspend */
 120:	ee1ff06f          	j	0 <_sinit>
E:/桌面/19th智能车/单片机培训、考核/CH32V103_Library-master/Seekfree_CH32V103R8T6_Opensource_Library/Libraries/wch_Libraries/Startup/startup_ch32v10x.S:91
        j   USBHD_IRQHandler           /* USBHD */
 124:	6cb0406f          	j	4fee <USBHD_IRQHandler>
	...

Disassembly of section .text:

00000140 <interrupt_disable>:
interrupt_disable():
E:/桌面/19th智能车/单片机培训、考核/CH32V103_Library-master/Seekfree_CH32V103R8T6_Opensource_Library/Libraries/seekfree_libraries/zf_irq.S:38
#a0 = 0x80
#mstatus中的第11 12位MPP
#00 用户模式  (U)
#01 监管者模式(S)
#11 机器模式  (M) 只有该模式允许使用SCR指令
    csrrci a0, mstatus, 0x8
     140:	30047573          	csrrci	a0,mstatus,8
E:/桌面/19th智能车/单片机培训、考核/CH32V103_Library-master/Seekfree_CH32V103R8T6_Opensource_Library/Libraries/seekfree_libraries/zf_irq.S:39
    ret
     144:	8082                	ret

00000146 <interrupt_enable>:
interrupt_enable():
E:/桌面/19th智能车/单片机培训、考核/CH32V103_Library-master/Seekfree_CH32V103R8T6_Opensource_Library/Libraries/seekfree_libraries/zf_irq.S:52
#							   mstatus寄存器中的MIE位置1，切换为用户模式
#-------------------------------------------------------------------------------------------------------------------
.globl interrupt_enable
interrupt_enable:
#a0为函数的第一个参数。
    csrw mstatus, a0
     146:	30051073          	csrw	mstatus,a0
E:/桌面/19th智能车/单片机培训、考核/CH32V103_Library-master/Seekfree_CH32V103R8T6_Opensource_Library/Libraries/seekfree_libraries/zf_irq.S:53
    ret
     14a:	8082                	ret

0000014c <memset>:
memset():
     14c:	433d                	li	t1,15
     14e:	872a                	mv	a4,a0
     150:	02c37363          	bgeu	t1,a2,176 <memset+0x2a>
     154:	00f77793          	andi	a5,a4,15
     158:	efbd                	bnez	a5,1d6 <memset+0x8a>
     15a:	e5ad                	bnez	a1,1c4 <memset+0x78>
     15c:	ff067693          	andi	a3,a2,-16
     160:	8a3d                	andi	a2,a2,15
     162:	96ba                	add	a3,a3,a4
     164:	c30c                	sw	a1,0(a4)
     166:	c34c                	sw	a1,4(a4)
     168:	c70c                	sw	a1,8(a4)
     16a:	c74c                	sw	a1,12(a4)
     16c:	0741                	addi	a4,a4,16
     16e:	fed76be3          	bltu	a4,a3,164 <memset+0x18>
     172:	e211                	bnez	a2,176 <memset+0x2a>
     174:	8082                	ret
     176:	40c306b3          	sub	a3,t1,a2
     17a:	068a                	slli	a3,a3,0x2
     17c:	00000297          	auipc	t0,0x0
     180:	9696                	add	a3,a3,t0
     182:	00a68067          	jr	10(a3)
     186:	00b70723          	sb	a1,14(a4)
     18a:	00b706a3          	sb	a1,13(a4)
     18e:	00b70623          	sb	a1,12(a4)
     192:	00b705a3          	sb	a1,11(a4)
     196:	00b70523          	sb	a1,10(a4)
     19a:	00b704a3          	sb	a1,9(a4)
     19e:	00b70423          	sb	a1,8(a4)
     1a2:	00b703a3          	sb	a1,7(a4)
     1a6:	00b70323          	sb	a1,6(a4)
     1aa:	00b702a3          	sb	a1,5(a4)
     1ae:	00b70223          	sb	a1,4(a4)
     1b2:	00b701a3          	sb	a1,3(a4)
     1b6:	00b70123          	sb	a1,2(a4)
     1ba:	00b700a3          	sb	a1,1(a4)
     1be:	00b70023          	sb	a1,0(a4)
     1c2:	8082                	ret
     1c4:	0ff5f593          	andi	a1,a1,255
     1c8:	00859693          	slli	a3,a1,0x8
     1cc:	8dd5                	or	a1,a1,a3
     1ce:	01059693          	slli	a3,a1,0x10
     1d2:	8dd5                	or	a1,a1,a3
     1d4:	b761                	j	15c <memset+0x10>
     1d6:	00279693          	slli	a3,a5,0x2
     1da:	00000297          	auipc	t0,0x0
     1de:	9696                	add	a3,a3,t0
     1e0:	8286                	mv	t0,ra
     1e2:	fa8680e7          	jalr	-88(a3)
     1e6:	8096                	mv	ra,t0
     1e8:	17c1                	addi	a5,a5,-16
     1ea:	8f1d                	sub	a4,a4,a5
     1ec:	963e                	add	a2,a2,a5
     1ee:	f8c374e3          	bgeu	t1,a2,176 <memset+0x2a>
     1f2:	b7a5                	j	15a <memset+0xe>

000001f4 <handle_reset>:
handle_reset():
E:/桌面/19th智能车/单片机培训、考核/CH32V103_Library-master/Seekfree_CH32V103R8T6_Opensource_Library/Libraries/wch_Libraries/Startup/startup_ch32v10x.S:147
	.weak	handle_reset
	.align	1
handle_reset:
.option push 
.option	norelax 
	la gp, __global_pointer$
     1f4:	20000197          	auipc	gp,0x20000
     1f8:	67c18193          	addi	gp,gp,1660 # 20000870 <__global_pointer$>
E:/桌面/19th智能车/单片机培训、考核/CH32V103_Library-master/Seekfree_CH32V103R8T6_Opensource_Library/Libraries/wch_Libraries/Startup/startup_ch32v10x.S:150
.option	pop 
1:
	la sp, _eusrstack 
     1fc:	20005117          	auipc	sp,0x20005
     200:	e0410113          	addi	sp,sp,-508 # 20005000 <_eusrstack>
E:/桌面/19th智能车/单片机培训、考核/CH32V103_Library-master/Seekfree_CH32V103R8T6_Opensource_Library/Libraries/wch_Libraries/Startup/startup_ch32v10x.S:153
2:
	/* Load data section from flash to RAM */
	la a0, _data_lma
     204:	00008517          	auipc	a0,0x8
     208:	afc50513          	addi	a0,a0,-1284 # 7d00 <_data_lma>
E:/桌面/19th智能车/单片机培训、考核/CH32V103_Library-master/Seekfree_CH32V103R8T6_Opensource_Library/Libraries/wch_Libraries/Startup/startup_ch32v10x.S:154
	la a1, _data_vma
     20c:	20000597          	auipc	a1,0x20000
     210:	df458593          	addi	a1,a1,-524 # 20000000 <_data_vma>
E:/桌面/19th智能车/单片机培训、考核/CH32V103_Library-master/Seekfree_CH32V103R8T6_Opensource_Library/Libraries/wch_Libraries/Startup/startup_ch32v10x.S:155
	la a2, _edata
     214:	82018613          	addi	a2,gp,-2016 # 20000090 <_edata>
E:/桌面/19th智能车/单片机培训、考核/CH32V103_Library-master/Seekfree_CH32V103R8T6_Opensource_Library/Libraries/wch_Libraries/Startup/startup_ch32v10x.S:156
	bgeu a1, a2, 2f
     218:	00c5fa63          	bgeu	a1,a2,22c <handle_reset+0x38>
E:/桌面/19th智能车/单片机培训、考核/CH32V103_Library-master/Seekfree_CH32V103R8T6_Opensource_Library/Libraries/wch_Libraries/Startup/startup_ch32v10x.S:158
1:
	lw t0, (a0)
     21c:	00052283          	lw	t0,0(a0)
E:/桌面/19th智能车/单片机培训、考核/CH32V103_Library-master/Seekfree_CH32V103R8T6_Opensource_Library/Libraries/wch_Libraries/Startup/startup_ch32v10x.S:159
	sw t0, (a1)
     220:	0055a023          	sw	t0,0(a1)
E:/桌面/19th智能车/单片机培训、考核/CH32V103_Library-master/Seekfree_CH32V103R8T6_Opensource_Library/Libraries/wch_Libraries/Startup/startup_ch32v10x.S:160
	addi a0, a0, 4
     224:	0511                	addi	a0,a0,4
E:/桌面/19th智能车/单片机培训、考核/CH32V103_Library-master/Seekfree_CH32V103R8T6_Opensource_Library/Libraries/wch_Libraries/Startup/startup_ch32v10x.S:161
	addi a1, a1, 4
     226:	0591                	addi	a1,a1,4
E:/桌面/19th智能车/单片机培训、考核/CH32V103_Library-master/Seekfree_CH32V103R8T6_Opensource_Library/Libraries/wch_Libraries/Startup/startup_ch32v10x.S:162
	bltu a1, a2, 1b
     228:	fec5eae3          	bltu	a1,a2,21c <handle_reset+0x28>
E:/桌面/19th智能车/单片机培训、考核/CH32V103_Library-master/Seekfree_CH32V103R8T6_Opensource_Library/Libraries/wch_Libraries/Startup/startup_ch32v10x.S:165
2:
	/* clear bss section */
	la a0, _sbss
     22c:	82018513          	addi	a0,gp,-2016 # 20000090 <_edata>
E:/桌面/19th智能车/单片机培训、考核/CH32V103_Library-master/Seekfree_CH32V103R8T6_Opensource_Library/Libraries/wch_Libraries/Startup/startup_ch32v10x.S:166
	la a1, _ebss
     230:	89c18593          	addi	a1,gp,-1892 # 2000010c <_ebss>
E:/桌面/19th智能车/单片机培训、考核/CH32V103_Library-master/Seekfree_CH32V103R8T6_Opensource_Library/Libraries/wch_Libraries/Startup/startup_ch32v10x.S:167
	bgeu a0, a1, 2f
     234:	00b57763          	bgeu	a0,a1,242 <handle_reset+0x4e>
E:/桌面/19th智能车/单片机培训、考核/CH32V103_Library-master/Seekfree_CH32V103R8T6_Opensource_Library/Libraries/wch_Libraries/Startup/startup_ch32v10x.S:169
1:
	sw zero, (a0)
     238:	00052023          	sw	zero,0(a0)
E:/桌面/19th智能车/单片机培训、考核/CH32V103_Library-master/Seekfree_CH32V103R8T6_Opensource_Library/Libraries/wch_Libraries/Startup/startup_ch32v10x.S:170
	addi a0, a0, 4
     23c:	0511                	addi	a0,a0,4
E:/桌面/19th智能车/单片机培训、考核/CH32V103_Library-master/Seekfree_CH32V103R8T6_Opensource_Library/Libraries/wch_Libraries/Startup/startup_ch32v10x.S:171
	bltu a0, a1, 1b
     23e:	feb56de3          	bltu	a0,a1,238 <handle_reset+0x44>
E:/桌面/19th智能车/单片机培训、考核/CH32V103_Library-master/Seekfree_CH32V103R8T6_Opensource_Library/Libraries/wch_Libraries/Startup/startup_ch32v10x.S:176
2:
	/* enable all interrupt */
#li t0, 0x88
#MPP位这是为0x03 切换为机器模式
	li t0, 0x1888
     242:	000022b7          	lui	t0,0x2
     246:	88828293          	addi	t0,t0,-1912 # 1888 <TIM_Cmd+0x50>
E:/桌面/19th智能车/单片机培训、考核/CH32V103_Library-master/Seekfree_CH32V103R8T6_Opensource_Library/Libraries/wch_Libraries/Startup/startup_ch32v10x.S:178

  csrs mstatus, t0
     24a:	3002a073          	csrs	mstatus,t0
E:/桌面/19th智能车/单片机培训、考核/CH32V103_Library-master/Seekfree_CH32V103R8T6_Opensource_Library/Libraries/wch_Libraries/Startup/startup_ch32v10x.S:179
	la t0, _vector_base
     24e:	00000297          	auipc	t0,0x0
     252:	dea28293          	addi	t0,t0,-534 # 38 <_einit>
E:/桌面/19th智能车/单片机培训、考核/CH32V103_Library-master/Seekfree_CH32V103R8T6_Opensource_Library/Libraries/wch_Libraries/Startup/startup_ch32v10x.S:180
  ori t0, t0, 1
     256:	0012e293          	ori	t0,t0,1
E:/桌面/19th智能车/单片机培训、考核/CH32V103_Library-master/Seekfree_CH32V103R8T6_Opensource_Library/Libraries/wch_Libraries/Startup/startup_ch32v10x.S:181
	csrw mtvec, t0
     25a:	30529073          	csrw	mtvec,t0
E:/桌面/19th智能车/单片机培训、考核/CH32V103_Library-master/Seekfree_CH32V103R8T6_Opensource_Library/Libraries/wch_Libraries/Startup/startup_ch32v10x.S:183

  jal  SystemInit
     25e:	393020ef          	jal	ra,2df0 <SystemInit>
E:/桌面/19th智能车/单片机培训、考核/CH32V103_Library-master/Seekfree_CH32V103R8T6_Opensource_Library/Libraries/wch_Libraries/Startup/startup_ch32v10x.S:184
	la t0, main
     262:	00005297          	auipc	t0,0x5
     266:	2b628293          	addi	t0,t0,694 # 5518 <main>
E:/桌面/19th智能车/单片机培训、考核/CH32V103_Library-master/Seekfree_CH32V103R8T6_Opensource_Library/Libraries/wch_Libraries/Startup/startup_ch32v10x.S:185
	csrw mepc, t0
     26a:	34129073          	csrw	mepc,t0
E:/桌面/19th智能车/单片机培训、考核/CH32V103_Library-master/Seekfree_CH32V103R8T6_Opensource_Library/Libraries/wch_Libraries/Startup/startup_ch32v10x.S:186
	mret
     26e:	30200073          	mret

00000272 <ADC_DeInit>:
ADC_DeInit():
E:/桌面/19th智能车/单片机培训、考核/CH32V103_Library-master/Seekfree_CH32V103R8T6_Opensource_Library/Libraries/wch_Libraries/Peripheral/ch32v10x_adc.c:115
* Input          : ADCx:
*                    where x can be 1 to select the ADC peripheral.
* Return         : None
*******************************************************************************/
void ADC_DeInit(ADC_TypeDef* ADCx)
{
     272:	1101                	addi	sp,sp,-32
     274:	ce06                	sw	ra,28(sp)
     276:	cc22                	sw	s0,24(sp)
     278:	1000                	addi	s0,sp,32
     27a:	fea42623          	sw	a0,-20(s0)
E:/桌面/19th智能车/单片机培训、考核/CH32V103_Library-master/Seekfree_CH32V103R8T6_Opensource_Library/Libraries/wch_Libraries/Peripheral/ch32v10x_adc.c:116
  if (ADCx == ADC1)
     27e:	fec42703          	lw	a4,-20(s0)
     282:	400127b7          	lui	a5,0x40012
     286:	40078793          	addi	a5,a5,1024 # 40012400 <_eusrstack+0x2000d400>
     28a:	00f71c63          	bne	a4,a5,2a2 <ADC_DeInit+0x30>
E:/桌面/19th智能车/单片机培训、考核/CH32V103_Library-master/Seekfree_CH32V103R8T6_Opensource_Library/Libraries/wch_Libraries/Peripheral/ch32v10x_adc.c:118
  {
    RCC_APB2PeriphResetCmd(RCC_APB2Periph_ADC1, ENABLE);
     28e:	4585                	li	a1,1
     290:	20000513          	li	a0,512
     294:	4b7000ef          	jal	ra,f4a <RCC_APB2PeriphResetCmd>
E:/桌面/19th智能车/单片机培训、考核/CH32V103_Library-master/Seekfree_CH32V103R8T6_Opensource_Library/Libraries/wch_Libraries/Peripheral/ch32v10x_adc.c:119
    RCC_APB2PeriphResetCmd(RCC_APB2Periph_ADC1, DISABLE);
     298:	4581                	li	a1,0
     29a:	20000513          	li	a0,512
     29e:	4ad000ef          	jal	ra,f4a <RCC_APB2PeriphResetCmd>
E:/桌面/19th智能车/单片机培训、考核/CH32V103_Library-master/Seekfree_CH32V103R8T6_Opensource_Library/Libraries/wch_Libraries/Peripheral/ch32v10x_adc.c:121
  }
}
     2a2:	0001                	nop
     2a4:	40f2                	lw	ra,28(sp)
     2a6:	4462                	lw	s0,24(sp)
     2a8:	6105                	addi	sp,sp,32
     2aa:	8082                	ret

000002ac <ADC_Init>:
ADC_Init():
E:/桌面/19th智能车/单片机培训、考核/CH32V103_Library-master/Seekfree_CH32V103R8T6_Opensource_Library/Libraries/wch_Libraries/Peripheral/ch32v10x_adc.c:134
*                  ADC_InitStruct: pointer to an ADC_InitTypeDef structure that 
*      contains the configuration information for the specified ADC peripheral.
* Return         : None
*******************************************************************************/
void ADC_Init(ADC_TypeDef* ADCx, ADC_InitTypeDef* ADC_InitStruct)
{
     2ac:	7179                	addi	sp,sp,-48
     2ae:	d622                	sw	s0,44(sp)
     2b0:	1800                	addi	s0,sp,48
     2b2:	fca42e23          	sw	a0,-36(s0)
     2b6:	fcb42c23          	sw	a1,-40(s0)
E:/桌面/19th智能车/单片机培训、考核/CH32V103_Library-master/Seekfree_CH32V103R8T6_Opensource_Library/Libraries/wch_Libraries/Peripheral/ch32v10x_adc.c:135
  uint32_t tmpreg1 = 0;
     2ba:	fe042623          	sw	zero,-20(s0)
E:/桌面/19th智能车/单片机培训、考核/CH32V103_Library-master/Seekfree_CH32V103R8T6_Opensource_Library/Libraries/wch_Libraries/Peripheral/ch32v10x_adc.c:136
  uint8_t tmpreg2 = 0;
     2be:	fe0405a3          	sb	zero,-21(s0)
E:/桌面/19th智能车/单片机培训、考核/CH32V103_Library-master/Seekfree_CH32V103R8T6_Opensource_Library/Libraries/wch_Libraries/Peripheral/ch32v10x_adc.c:138

  tmpreg1 = ADCx->CTLR1;
     2c2:	fdc42783          	lw	a5,-36(s0)
     2c6:	43dc                	lw	a5,4(a5)
     2c8:	fef42623          	sw	a5,-20(s0)
E:/桌面/19th智能车/单片机培训、考核/CH32V103_Library-master/Seekfree_CH32V103R8T6_Opensource_Library/Libraries/wch_Libraries/Peripheral/ch32v10x_adc.c:139
  tmpreg1 &= CTLR1_CLEAR_Mask;
     2cc:	fec42703          	lw	a4,-20(s0)
     2d0:	fff107b7          	lui	a5,0xfff10
     2d4:	eff78793          	addi	a5,a5,-257 # fff0feff <_eusrstack+0xdff0aeff>
     2d8:	8ff9                	and	a5,a5,a4
     2da:	fef42623          	sw	a5,-20(s0)
E:/桌面/19th智能车/单片机培训、考核/CH32V103_Library-master/Seekfree_CH32V103R8T6_Opensource_Library/Libraries/wch_Libraries/Peripheral/ch32v10x_adc.c:140
  tmpreg1 |= (uint32_t)(ADC_InitStruct->ADC_Mode | ((uint32_t)ADC_InitStruct->ADC_ScanConvMode << 8));
     2de:	fd842783          	lw	a5,-40(s0)
     2e2:	4398                	lw	a4,0(a5)
     2e4:	fd842783          	lw	a5,-40(s0)
     2e8:	43dc                	lw	a5,4(a5)
     2ea:	07a2                	slli	a5,a5,0x8
     2ec:	8fd9                	or	a5,a5,a4
     2ee:	fec42703          	lw	a4,-20(s0)
     2f2:	8fd9                	or	a5,a5,a4
     2f4:	fef42623          	sw	a5,-20(s0)
E:/桌面/19th智能车/单片机培训、考核/CH32V103_Library-master/Seekfree_CH32V103R8T6_Opensource_Library/Libraries/wch_Libraries/Peripheral/ch32v10x_adc.c:141
  ADCx->CTLR1 = tmpreg1;
     2f8:	fdc42783          	lw	a5,-36(s0)
     2fc:	fec42703          	lw	a4,-20(s0)
     300:	c3d8                	sw	a4,4(a5)
E:/桌面/19th智能车/单片机培训、考核/CH32V103_Library-master/Seekfree_CH32V103R8T6_Opensource_Library/Libraries/wch_Libraries/Peripheral/ch32v10x_adc.c:143

  tmpreg1 = ADCx->CTLR2;
     302:	fdc42783          	lw	a5,-36(s0)
     306:	479c                	lw	a5,8(a5)
     308:	fef42623          	sw	a5,-20(s0)
E:/桌面/19th智能车/单片机培训、考核/CH32V103_Library-master/Seekfree_CH32V103R8T6_Opensource_Library/Libraries/wch_Libraries/Peripheral/ch32v10x_adc.c:144
  tmpreg1 &= CTLR2_CLEAR_Mask;
     30c:	fec42703          	lw	a4,-20(s0)
     310:	fff1f7b7          	lui	a5,0xfff1f
     314:	7fd78793          	addi	a5,a5,2045 # fff1f7fd <_eusrstack+0xdff1a7fd>
     318:	8ff9                	and	a5,a5,a4
     31a:	fef42623          	sw	a5,-20(s0)
E:/桌面/19th智能车/单片机培训、考核/CH32V103_Library-master/Seekfree_CH32V103R8T6_Opensource_Library/Libraries/wch_Libraries/Peripheral/ch32v10x_adc.c:145
  tmpreg1 |= (uint32_t)(ADC_InitStruct->ADC_DataAlign | ADC_InitStruct->ADC_ExternalTrigConv |
     31e:	fd842783          	lw	a5,-40(s0)
     322:	4b98                	lw	a4,16(a5)
     324:	fd842783          	lw	a5,-40(s0)
     328:	47dc                	lw	a5,12(a5)
     32a:	8f5d                	or	a4,a4,a5
E:/桌面/19th智能车/单片机培训、考核/CH32V103_Library-master/Seekfree_CH32V103R8T6_Opensource_Library/Libraries/wch_Libraries/Peripheral/ch32v10x_adc.c:146
            ((uint32_t)ADC_InitStruct->ADC_ContinuousConvMode << 1));
     32c:	fd842783          	lw	a5,-40(s0)
     330:	479c                	lw	a5,8(a5)
     332:	0786                	slli	a5,a5,0x1
E:/桌面/19th智能车/单片机培训、考核/CH32V103_Library-master/Seekfree_CH32V103R8T6_Opensource_Library/Libraries/wch_Libraries/Peripheral/ch32v10x_adc.c:145
  tmpreg1 |= (uint32_t)(ADC_InitStruct->ADC_DataAlign | ADC_InitStruct->ADC_ExternalTrigConv |
     334:	8fd9                	or	a5,a5,a4
     336:	fec42703          	lw	a4,-20(s0)
     33a:	8fd9                	or	a5,a5,a4
     33c:	fef42623          	sw	a5,-20(s0)
E:/桌面/19th智能车/单片机培训、考核/CH32V103_Library-master/Seekfree_CH32V103R8T6_Opensource_Library/Libraries/wch_Libraries/Peripheral/ch32v10x_adc.c:147
  ADCx->CTLR2 = tmpreg1;
     340:	fdc42783          	lw	a5,-36(s0)
     344:	fec42703          	lw	a4,-20(s0)
     348:	c798                	sw	a4,8(a5)
E:/桌面/19th智能车/单片机培训、考核/CH32V103_Library-master/Seekfree_CH32V103R8T6_Opensource_Library/Libraries/wch_Libraries/Peripheral/ch32v10x_adc.c:149

  tmpreg1 = ADCx->RSQR1;
     34a:	fdc42783          	lw	a5,-36(s0)
     34e:	57dc                	lw	a5,44(a5)
     350:	fef42623          	sw	a5,-20(s0)
E:/桌面/19th智能车/单片机培训、考核/CH32V103_Library-master/Seekfree_CH32V103R8T6_Opensource_Library/Libraries/wch_Libraries/Peripheral/ch32v10x_adc.c:150
  tmpreg1 &= RSQR1_CLEAR_Mask;
     354:	fec42703          	lw	a4,-20(s0)
     358:	ff1007b7          	lui	a5,0xff100
     35c:	17fd                	addi	a5,a5,-1
     35e:	8ff9                	and	a5,a5,a4
     360:	fef42623          	sw	a5,-20(s0)
E:/桌面/19th智能车/单片机培训、考核/CH32V103_Library-master/Seekfree_CH32V103R8T6_Opensource_Library/Libraries/wch_Libraries/Peripheral/ch32v10x_adc.c:151
  tmpreg2 |= (uint8_t) (ADC_InitStruct->ADC_NbrOfChannel - (uint8_t)1);
     364:	fd842783          	lw	a5,-40(s0)
     368:	0147c783          	lbu	a5,20(a5) # ff100014 <_eusrstack+0xdf0fb014>
     36c:	17fd                	addi	a5,a5,-1
     36e:	0ff7f713          	andi	a4,a5,255
     372:	feb44783          	lbu	a5,-21(s0)
     376:	8fd9                	or	a5,a5,a4
     378:	fef405a3          	sb	a5,-21(s0)
E:/桌面/19th智能车/单片机培训、考核/CH32V103_Library-master/Seekfree_CH32V103R8T6_Opensource_Library/Libraries/wch_Libraries/Peripheral/ch32v10x_adc.c:152
  tmpreg1 |= (uint32_t)tmpreg2 << 20;
     37c:	feb44783          	lbu	a5,-21(s0)
     380:	07d2                	slli	a5,a5,0x14
     382:	fec42703          	lw	a4,-20(s0)
     386:	8fd9                	or	a5,a5,a4
     388:	fef42623          	sw	a5,-20(s0)
E:/桌面/19th智能车/单片机培训、考核/CH32V103_Library-master/Seekfree_CH32V103R8T6_Opensource_Library/Libraries/wch_Libraries/Peripheral/ch32v10x_adc.c:153
  ADCx->RSQR1 = tmpreg1;
     38c:	fdc42783          	lw	a5,-36(s0)
     390:	fec42703          	lw	a4,-20(s0)
     394:	d7d8                	sw	a4,44(a5)
E:/桌面/19th智能车/单片机培训、考核/CH32V103_Library-master/Seekfree_CH32V103R8T6_Opensource_Library/Libraries/wch_Libraries/Peripheral/ch32v10x_adc.c:154
}
     396:	0001                	nop
     398:	5432                	lw	s0,44(sp)
     39a:	6145                	addi	sp,sp,48
     39c:	8082                	ret

0000039e <ADC_Cmd>:
ADC_Cmd():
E:/桌面/19th智能车/单片机培训、考核/CH32V103_Library-master/Seekfree_CH32V103R8T6_Opensource_Library/Libraries/wch_Libraries/Peripheral/ch32v10x_adc.c:182
*                    where x can be 1 to select the ADC peripheral.
*                  NewState: ENABLE or DISABLE.
* Return         : None
*******************************************************************************/
void ADC_Cmd(ADC_TypeDef* ADCx, FunctionalState NewState)
{
     39e:	1101                	addi	sp,sp,-32
     3a0:	ce22                	sw	s0,28(sp)
     3a2:	1000                	addi	s0,sp,32
     3a4:	fea42623          	sw	a0,-20(s0)
     3a8:	feb42423          	sw	a1,-24(s0)
E:/桌面/19th智能车/单片机培训、考核/CH32V103_Library-master/Seekfree_CH32V103R8T6_Opensource_Library/Libraries/wch_Libraries/Peripheral/ch32v10x_adc.c:183
  if (NewState != DISABLE)
     3ac:	fe842783          	lw	a5,-24(s0)
     3b0:	cb91                	beqz	a5,3c4 <ADC_Cmd+0x26>
E:/桌面/19th智能车/单片机培训、考核/CH32V103_Library-master/Seekfree_CH32V103R8T6_Opensource_Library/Libraries/wch_Libraries/Peripheral/ch32v10x_adc.c:185
  {
    ADCx->CTLR2 |= CTLR2_ADON_Set;
     3b2:	fec42783          	lw	a5,-20(s0)
     3b6:	479c                	lw	a5,8(a5)
     3b8:	0017e713          	ori	a4,a5,1
     3bc:	fec42783          	lw	a5,-20(s0)
     3c0:	c798                	sw	a4,8(a5)
E:/桌面/19th智能车/单片机培训、考核/CH32V103_Library-master/Seekfree_CH32V103R8T6_Opensource_Library/Libraries/wch_Libraries/Peripheral/ch32v10x_adc.c:191
  }
  else
  {
    ADCx->CTLR2 &= CTLR2_ADON_Reset;
  }
}
     3c2:	a809                	j	3d4 <ADC_Cmd+0x36>
E:/桌面/19th智能车/单片机培训、考核/CH32V103_Library-master/Seekfree_CH32V103R8T6_Opensource_Library/Libraries/wch_Libraries/Peripheral/ch32v10x_adc.c:189
    ADCx->CTLR2 &= CTLR2_ADON_Reset;
     3c4:	fec42783          	lw	a5,-20(s0)
     3c8:	479c                	lw	a5,8(a5)
     3ca:	ffe7f713          	andi	a4,a5,-2
     3ce:	fec42783          	lw	a5,-20(s0)
     3d2:	c798                	sw	a4,8(a5)
E:/桌面/19th智能车/单片机培训、考核/CH32V103_Library-master/Seekfree_CH32V103R8T6_Opensource_Library/Libraries/wch_Libraries/Peripheral/ch32v10x_adc.c:191
}
     3d4:	0001                	nop
     3d6:	4472                	lw	s0,28(sp)
     3d8:	6105                	addi	sp,sp,32
     3da:	8082                	ret

000003dc <ADC_ResetCalibration>:
ADC_ResetCalibration():
E:/桌面/19th智能车/单片机培训、考核/CH32V103_Library-master/Seekfree_CH32V103R8T6_Opensource_Library/Libraries/wch_Libraries/Peripheral/ch32v10x_adc.c:249
* Input          : ADCx:
*                    where x can be 1 to select the ADC peripheral.
* Return         : None
*******************************************************************************/
void ADC_ResetCalibration(ADC_TypeDef* ADCx)
{
     3dc:	1101                	addi	sp,sp,-32
     3de:	ce22                	sw	s0,28(sp)
     3e0:	1000                	addi	s0,sp,32
     3e2:	fea42623          	sw	a0,-20(s0)
E:/桌面/19th智能车/单片机培训、考核/CH32V103_Library-master/Seekfree_CH32V103R8T6_Opensource_Library/Libraries/wch_Libraries/Peripheral/ch32v10x_adc.c:250
  ADCx->CTLR2 |= CTLR2_RSTCAL_Set;
     3e6:	fec42783          	lw	a5,-20(s0)
     3ea:	479c                	lw	a5,8(a5)
     3ec:	0087e713          	ori	a4,a5,8
     3f0:	fec42783          	lw	a5,-20(s0)
     3f4:	c798                	sw	a4,8(a5)
E:/桌面/19th智能车/单片机培训、考核/CH32V103_Library-master/Seekfree_CH32V103R8T6_Opensource_Library/Libraries/wch_Libraries/Peripheral/ch32v10x_adc.c:251
}
     3f6:	0001                	nop
     3f8:	4472                	lw	s0,28(sp)
     3fa:	6105                	addi	sp,sp,32
     3fc:	8082                	ret

000003fe <ADC_GetResetCalibrationStatus>:
ADC_GetResetCalibrationStatus():
E:/桌面/19th智能车/单片机培训、考核/CH32V103_Library-master/Seekfree_CH32V103R8T6_Opensource_Library/Libraries/wch_Libraries/Peripheral/ch32v10x_adc.c:261
* Input          : ADCx:
*                    where x can be 1 to select the ADC peripheral.
* Return         : FlagStatus: SET or RESET.
*******************************************************************************/
FlagStatus ADC_GetResetCalibrationStatus(ADC_TypeDef* ADCx)
{
     3fe:	7179                	addi	sp,sp,-48
     400:	d622                	sw	s0,44(sp)
     402:	1800                	addi	s0,sp,48
     404:	fca42e23          	sw	a0,-36(s0)
E:/桌面/19th智能车/单片机培训、考核/CH32V103_Library-master/Seekfree_CH32V103R8T6_Opensource_Library/Libraries/wch_Libraries/Peripheral/ch32v10x_adc.c:262
  FlagStatus bitstatus = RESET;
     408:	fe042623          	sw	zero,-20(s0)
E:/桌面/19th智能车/单片机培训、考核/CH32V103_Library-master/Seekfree_CH32V103R8T6_Opensource_Library/Libraries/wch_Libraries/Peripheral/ch32v10x_adc.c:264

  if ((ADCx->CTLR2 & CTLR2_RSTCAL_Set) != (uint32_t)RESET)
     40c:	fdc42783          	lw	a5,-36(s0)
     410:	479c                	lw	a5,8(a5)
     412:	8ba1                	andi	a5,a5,8
     414:	c789                	beqz	a5,41e <ADC_GetResetCalibrationStatus+0x20>
E:/桌面/19th智能车/单片机培训、考核/CH32V103_Library-master/Seekfree_CH32V103R8T6_Opensource_Library/Libraries/wch_Libraries/Peripheral/ch32v10x_adc.c:266
  {
    bitstatus = SET;
     416:	4785                	li	a5,1
     418:	fef42623          	sw	a5,-20(s0)
     41c:	a019                	j	422 <ADC_GetResetCalibrationStatus+0x24>
E:/桌面/19th智能车/单片机培训、考核/CH32V103_Library-master/Seekfree_CH32V103R8T6_Opensource_Library/Libraries/wch_Libraries/Peripheral/ch32v10x_adc.c:270
  }
  else
  {
    bitstatus = RESET;
     41e:	fe042623          	sw	zero,-20(s0)
E:/桌面/19th智能车/单片机培训、考核/CH32V103_Library-master/Seekfree_CH32V103R8T6_Opensource_Library/Libraries/wch_Libraries/Peripheral/ch32v10x_adc.c:273
  }
	
  return  bitstatus;
     422:	fec42783          	lw	a5,-20(s0)
E:/桌面/19th智能车/单片机培训、考核/CH32V103_Library-master/Seekfree_CH32V103R8T6_Opensource_Library/Libraries/wch_Libraries/Peripheral/ch32v10x_adc.c:274
}
     426:	853e                	mv	a0,a5
     428:	5432                	lw	s0,44(sp)
     42a:	6145                	addi	sp,sp,48
     42c:	8082                	ret

0000042e <ADC_StartCalibration>:
ADC_StartCalibration():
E:/桌面/19th智能车/单片机培训、考核/CH32V103_Library-master/Seekfree_CH32V103R8T6_Opensource_Library/Libraries/wch_Libraries/Peripheral/ch32v10x_adc.c:284
* Input          : ADCx:
*                    where x can be 1 to select the ADC peripheral.
* Return         : None
*******************************************************************************/
void ADC_StartCalibration(ADC_TypeDef* ADCx)
{ 
     42e:	1101                	addi	sp,sp,-32
     430:	ce22                	sw	s0,28(sp)
     432:	1000                	addi	s0,sp,32
     434:	fea42623          	sw	a0,-20(s0)
E:/桌面/19th智能车/单片机培训、考核/CH32V103_Library-master/Seekfree_CH32V103R8T6_Opensource_Library/Libraries/wch_Libraries/Peripheral/ch32v10x_adc.c:285
  ADCx->CTLR2 |= CTLR2_CAL_Set;
     438:	fec42783          	lw	a5,-20(s0)
     43c:	479c                	lw	a5,8(a5)
     43e:	0047e713          	ori	a4,a5,4
     442:	fec42783          	lw	a5,-20(s0)
     446:	c798                	sw	a4,8(a5)
E:/桌面/19th智能车/单片机培训、考核/CH32V103_Library-master/Seekfree_CH32V103R8T6_Opensource_Library/Libraries/wch_Libraries/Peripheral/ch32v10x_adc.c:286
}
     448:	0001                	nop
     44a:	4472                	lw	s0,28(sp)
     44c:	6105                	addi	sp,sp,32
     44e:	8082                	ret

00000450 <ADC_GetCalibrationStatus>:
ADC_GetCalibrationStatus():
E:/桌面/19th智能车/单片机培训、考核/CH32V103_Library-master/Seekfree_CH32V103R8T6_Opensource_Library/Libraries/wch_Libraries/Peripheral/ch32v10x_adc.c:296
* Input          : ADCx:
*                    where x can be 1 to select the ADC peripheral.
* Return         : FlagStatus: SET or RESET.
*******************************************************************************/
FlagStatus ADC_GetCalibrationStatus(ADC_TypeDef* ADCx)
{
     450:	7179                	addi	sp,sp,-48
     452:	d622                	sw	s0,44(sp)
     454:	1800                	addi	s0,sp,48
     456:	fca42e23          	sw	a0,-36(s0)
E:/桌面/19th智能车/单片机培训、考核/CH32V103_Library-master/Seekfree_CH32V103R8T6_Opensource_Library/Libraries/wch_Libraries/Peripheral/ch32v10x_adc.c:297
  FlagStatus bitstatus = RESET;
     45a:	fe042623          	sw	zero,-20(s0)
E:/桌面/19th智能车/单片机培训、考核/CH32V103_Library-master/Seekfree_CH32V103R8T6_Opensource_Library/Libraries/wch_Libraries/Peripheral/ch32v10x_adc.c:299

  if ((ADCx->CTLR2 & CTLR2_CAL_Set) != (uint32_t)RESET)
     45e:	fdc42783          	lw	a5,-36(s0)
     462:	479c                	lw	a5,8(a5)
     464:	8b91                	andi	a5,a5,4
     466:	c789                	beqz	a5,470 <ADC_GetCalibrationStatus+0x20>
E:/桌面/19th智能车/单片机培训、考核/CH32V103_Library-master/Seekfree_CH32V103R8T6_Opensource_Library/Libraries/wch_Libraries/Peripheral/ch32v10x_adc.c:301
  {
    bitstatus = SET;
     468:	4785                	li	a5,1
     46a:	fef42623          	sw	a5,-20(s0)
     46e:	a019                	j	474 <ADC_GetCalibrationStatus+0x24>
E:/桌面/19th智能车/单片机培训、考核/CH32V103_Library-master/Seekfree_CH32V103R8T6_Opensource_Library/Libraries/wch_Libraries/Peripheral/ch32v10x_adc.c:305
  }
  else
  {
    bitstatus = RESET;
     470:	fe042623          	sw	zero,-20(s0)
E:/桌面/19th智能车/单片机培训、考核/CH32V103_Library-master/Seekfree_CH32V103R8T6_Opensource_Library/Libraries/wch_Libraries/Peripheral/ch32v10x_adc.c:308
  }

  return  bitstatus;
     474:	fec42783          	lw	a5,-20(s0)
E:/桌面/19th智能车/单片机培训、考核/CH32V103_Library-master/Seekfree_CH32V103R8T6_Opensource_Library/Libraries/wch_Libraries/Peripheral/ch32v10x_adc.c:309
}
     478:	853e                	mv	a0,a5
     47a:	5432                	lw	s0,44(sp)
     47c:	6145                	addi	sp,sp,48
     47e:	8082                	ret

00000480 <ADC_RegularChannelConfig>:
ADC_RegularChannelConfig():
E:/桌面/19th智能车/单片机培训、考核/CH32V103_Library-master/Seekfree_CH32V103R8T6_Opensource_Library/Libraries/wch_Libraries/Peripheral/ch32v10x_adc.c:437
*                    ADC_SampleTime_71Cycles5: Sample time equal to 71.5 cycles.	
*                    ADC_SampleTime_239Cycles5: Sample time equal to 239.5 cycles.	                   
* Return         : None
*******************************************************************************/
void ADC_RegularChannelConfig(ADC_TypeDef* ADCx, uint8_t ADC_Channel, uint8_t Rank, uint8_t ADC_SampleTime)
{
     480:	7179                	addi	sp,sp,-48
     482:	d622                	sw	s0,44(sp)
     484:	1800                	addi	s0,sp,48
     486:	fca42e23          	sw	a0,-36(s0)
     48a:	87ae                	mv	a5,a1
     48c:	8736                	mv	a4,a3
     48e:	fcf40da3          	sb	a5,-37(s0)
     492:	87b2                	mv	a5,a2
     494:	fcf40d23          	sb	a5,-38(s0)
     498:	87ba                	mv	a5,a4
     49a:	fcf40ca3          	sb	a5,-39(s0)
E:/桌面/19th智能车/单片机培训、考核/CH32V103_Library-master/Seekfree_CH32V103R8T6_Opensource_Library/Libraries/wch_Libraries/Peripheral/ch32v10x_adc.c:438
  uint32_t tmpreg1 = 0, tmpreg2 = 0;
     49e:	fe042623          	sw	zero,-20(s0)
     4a2:	fe042423          	sw	zero,-24(s0)
E:/桌面/19th智能车/单片机培训、考核/CH32V103_Library-master/Seekfree_CH32V103R8T6_Opensource_Library/Libraries/wch_Libraries/Peripheral/ch32v10x_adc.c:440

  if (ADC_Channel > ADC_Channel_9)
     4a6:	fdb44703          	lbu	a4,-37(s0)
     4aa:	47a5                	li	a5,9
     4ac:	06e7f663          	bgeu	a5,a4,518 <ADC_RegularChannelConfig+0x98>
E:/桌面/19th智能车/单片机培训、考核/CH32V103_Library-master/Seekfree_CH32V103R8T6_Opensource_Library/Libraries/wch_Libraries/Peripheral/ch32v10x_adc.c:442
  {
    tmpreg1 = ADCx->SAMPTR1;
     4b0:	fdc42783          	lw	a5,-36(s0)
     4b4:	47dc                	lw	a5,12(a5)
     4b6:	fef42623          	sw	a5,-20(s0)
E:/桌面/19th智能车/单片机培训、考核/CH32V103_Library-master/Seekfree_CH32V103R8T6_Opensource_Library/Libraries/wch_Libraries/Peripheral/ch32v10x_adc.c:443
    tmpreg2 = SAMPTR1_SMP_Set << (3 * (ADC_Channel - 10));
     4ba:	fdb44783          	lbu	a5,-37(s0)
     4be:	ff678713          	addi	a4,a5,-10
     4c2:	87ba                	mv	a5,a4
     4c4:	0786                	slli	a5,a5,0x1
     4c6:	97ba                	add	a5,a5,a4
     4c8:	471d                	li	a4,7
     4ca:	00f717b3          	sll	a5,a4,a5
     4ce:	fef42423          	sw	a5,-24(s0)
E:/桌面/19th智能车/单片机培训、考核/CH32V103_Library-master/Seekfree_CH32V103R8T6_Opensource_Library/Libraries/wch_Libraries/Peripheral/ch32v10x_adc.c:444
    tmpreg1 &= ~tmpreg2;
     4d2:	fe842783          	lw	a5,-24(s0)
     4d6:	fff7c793          	not	a5,a5
     4da:	fec42703          	lw	a4,-20(s0)
     4de:	8ff9                	and	a5,a5,a4
     4e0:	fef42623          	sw	a5,-20(s0)
E:/桌面/19th智能车/单片机培训、考核/CH32V103_Library-master/Seekfree_CH32V103R8T6_Opensource_Library/Libraries/wch_Libraries/Peripheral/ch32v10x_adc.c:445
    tmpreg2 = (uint32_t)ADC_SampleTime << (3 * (ADC_Channel - 10));
     4e4:	fd944683          	lbu	a3,-39(s0)
     4e8:	fdb44783          	lbu	a5,-37(s0)
     4ec:	ff678713          	addi	a4,a5,-10
     4f0:	87ba                	mv	a5,a4
     4f2:	0786                	slli	a5,a5,0x1
     4f4:	97ba                	add	a5,a5,a4
     4f6:	00f697b3          	sll	a5,a3,a5
     4fa:	fef42423          	sw	a5,-24(s0)
E:/桌面/19th智能车/单片机培训、考核/CH32V103_Library-master/Seekfree_CH32V103R8T6_Opensource_Library/Libraries/wch_Libraries/Peripheral/ch32v10x_adc.c:446
    tmpreg1 |= tmpreg2;
     4fe:	fec42703          	lw	a4,-20(s0)
     502:	fe842783          	lw	a5,-24(s0)
     506:	8fd9                	or	a5,a5,a4
     508:	fef42623          	sw	a5,-20(s0)
E:/桌面/19th智能车/单片机培训、考核/CH32V103_Library-master/Seekfree_CH32V103R8T6_Opensource_Library/Libraries/wch_Libraries/Peripheral/ch32v10x_adc.c:447
    ADCx->SAMPTR1 = tmpreg1;
     50c:	fdc42783          	lw	a5,-36(s0)
     510:	fec42703          	lw	a4,-20(s0)
     514:	c7d8                	sw	a4,12(a5)
     516:	a085                	j	576 <ADC_RegularChannelConfig+0xf6>
E:/桌面/19th智能车/单片机培训、考核/CH32V103_Library-master/Seekfree_CH32V103R8T6_Opensource_Library/Libraries/wch_Libraries/Peripheral/ch32v10x_adc.c:451
  }
  else 
  {
    tmpreg1 = ADCx->SAMPTR2;
     518:	fdc42783          	lw	a5,-36(s0)
     51c:	4b9c                	lw	a5,16(a5)
     51e:	fef42623          	sw	a5,-20(s0)
E:/桌面/19th智能车/单片机培训、考核/CH32V103_Library-master/Seekfree_CH32V103R8T6_Opensource_Library/Libraries/wch_Libraries/Peripheral/ch32v10x_adc.c:452
    tmpreg2 = SAMPTR2_SMP_Set << (3 * ADC_Channel);
     522:	fdb44703          	lbu	a4,-37(s0)
     526:	87ba                	mv	a5,a4
     528:	0786                	slli	a5,a5,0x1
     52a:	97ba                	add	a5,a5,a4
     52c:	471d                	li	a4,7
     52e:	00f717b3          	sll	a5,a4,a5
     532:	fef42423          	sw	a5,-24(s0)
E:/桌面/19th智能车/单片机培训、考核/CH32V103_Library-master/Seekfree_CH32V103R8T6_Opensource_Library/Libraries/wch_Libraries/Peripheral/ch32v10x_adc.c:453
    tmpreg1 &= ~tmpreg2;
     536:	fe842783          	lw	a5,-24(s0)
     53a:	fff7c793          	not	a5,a5
     53e:	fec42703          	lw	a4,-20(s0)
     542:	8ff9                	and	a5,a5,a4
     544:	fef42623          	sw	a5,-20(s0)
E:/桌面/19th智能车/单片机培训、考核/CH32V103_Library-master/Seekfree_CH32V103R8T6_Opensource_Library/Libraries/wch_Libraries/Peripheral/ch32v10x_adc.c:454
    tmpreg2 = (uint32_t)ADC_SampleTime << (3 * ADC_Channel);
     548:	fd944683          	lbu	a3,-39(s0)
     54c:	fdb44703          	lbu	a4,-37(s0)
     550:	87ba                	mv	a5,a4
     552:	0786                	slli	a5,a5,0x1
     554:	97ba                	add	a5,a5,a4
     556:	00f697b3          	sll	a5,a3,a5
     55a:	fef42423          	sw	a5,-24(s0)
E:/桌面/19th智能车/单片机培训、考核/CH32V103_Library-master/Seekfree_CH32V103R8T6_Opensource_Library/Libraries/wch_Libraries/Peripheral/ch32v10x_adc.c:455
    tmpreg1 |= tmpreg2;
     55e:	fec42703          	lw	a4,-20(s0)
     562:	fe842783          	lw	a5,-24(s0)
     566:	8fd9                	or	a5,a5,a4
     568:	fef42623          	sw	a5,-20(s0)
E:/桌面/19th智能车/单片机培训、考核/CH32V103_Library-master/Seekfree_CH32V103R8T6_Opensource_Library/Libraries/wch_Libraries/Peripheral/ch32v10x_adc.c:456
    ADCx->SAMPTR2 = tmpreg1;
     56c:	fdc42783          	lw	a5,-36(s0)
     570:	fec42703          	lw	a4,-20(s0)
     574:	cb98                	sw	a4,16(a5)
E:/桌面/19th智能车/单片机培训、考核/CH32V103_Library-master/Seekfree_CH32V103R8T6_Opensource_Library/Libraries/wch_Libraries/Peripheral/ch32v10x_adc.c:459
  }

  if (Rank < 7)
     576:	fda44703          	lbu	a4,-38(s0)
     57a:	4799                	li	a5,6
     57c:	06e7e663          	bltu	a5,a4,5e8 <ADC_RegularChannelConfig+0x168>
E:/桌面/19th智能车/单片机培训、考核/CH32V103_Library-master/Seekfree_CH32V103R8T6_Opensource_Library/Libraries/wch_Libraries/Peripheral/ch32v10x_adc.c:461
  {
    tmpreg1 = ADCx->RSQR3;
     580:	fdc42783          	lw	a5,-36(s0)
     584:	5bdc                	lw	a5,52(a5)
     586:	fef42623          	sw	a5,-20(s0)
E:/桌面/19th智能车/单片机培训、考核/CH32V103_Library-master/Seekfree_CH32V103R8T6_Opensource_Library/Libraries/wch_Libraries/Peripheral/ch32v10x_adc.c:462
    tmpreg2 = RSQR3_SQ_Set << (5 * (Rank - 1));
     58a:	fda44783          	lbu	a5,-38(s0)
     58e:	fff78713          	addi	a4,a5,-1
     592:	87ba                	mv	a5,a4
     594:	078a                	slli	a5,a5,0x2
     596:	97ba                	add	a5,a5,a4
     598:	477d                	li	a4,31
     59a:	00f717b3          	sll	a5,a4,a5
     59e:	fef42423          	sw	a5,-24(s0)
E:/桌面/19th智能车/单片机培训、考核/CH32V103_Library-master/Seekfree_CH32V103R8T6_Opensource_Library/Libraries/wch_Libraries/Peripheral/ch32v10x_adc.c:463
    tmpreg1 &= ~tmpreg2;
     5a2:	fe842783          	lw	a5,-24(s0)
     5a6:	fff7c793          	not	a5,a5
     5aa:	fec42703          	lw	a4,-20(s0)
     5ae:	8ff9                	and	a5,a5,a4
     5b0:	fef42623          	sw	a5,-20(s0)
E:/桌面/19th智能车/单片机培训、考核/CH32V103_Library-master/Seekfree_CH32V103R8T6_Opensource_Library/Libraries/wch_Libraries/Peripheral/ch32v10x_adc.c:464
    tmpreg2 = (uint32_t)ADC_Channel << (5 * (Rank - 1));
     5b4:	fdb44683          	lbu	a3,-37(s0)
     5b8:	fda44783          	lbu	a5,-38(s0)
     5bc:	fff78713          	addi	a4,a5,-1
     5c0:	87ba                	mv	a5,a4
     5c2:	078a                	slli	a5,a5,0x2
     5c4:	97ba                	add	a5,a5,a4
     5c6:	00f697b3          	sll	a5,a3,a5
     5ca:	fef42423          	sw	a5,-24(s0)
E:/桌面/19th智能车/单片机培训、考核/CH32V103_Library-master/Seekfree_CH32V103R8T6_Opensource_Library/Libraries/wch_Libraries/Peripheral/ch32v10x_adc.c:465
    tmpreg1 |= tmpreg2;
     5ce:	fec42703          	lw	a4,-20(s0)
     5d2:	fe842783          	lw	a5,-24(s0)
     5d6:	8fd9                	or	a5,a5,a4
     5d8:	fef42623          	sw	a5,-20(s0)
E:/桌面/19th智能车/单片机培训、考核/CH32V103_Library-master/Seekfree_CH32V103R8T6_Opensource_Library/Libraries/wch_Libraries/Peripheral/ch32v10x_adc.c:466
    ADCx->RSQR3 = tmpreg1;
     5dc:	fdc42783          	lw	a5,-36(s0)
     5e0:	fec42703          	lw	a4,-20(s0)
     5e4:	dbd8                	sw	a4,52(a5)
E:/桌面/19th智能车/单片机培训、考核/CH32V103_Library-master/Seekfree_CH32V103R8T6_Opensource_Library/Libraries/wch_Libraries/Peripheral/ch32v10x_adc.c:486
    tmpreg1 &= ~tmpreg2;
    tmpreg2 = (uint32_t)ADC_Channel << (5 * (Rank - 13));
    tmpreg1 |= tmpreg2;
    ADCx->RSQR1 = tmpreg1;
  }
}
     5e6:	a8e9                	j	6c0 <ADC_RegularChannelConfig+0x240>
E:/桌面/19th智能车/单片机培训、考核/CH32V103_Library-master/Seekfree_CH32V103R8T6_Opensource_Library/Libraries/wch_Libraries/Peripheral/ch32v10x_adc.c:468
  else if (Rank < 13)
     5e8:	fda44703          	lbu	a4,-38(s0)
     5ec:	47b1                	li	a5,12
     5ee:	06e7e663          	bltu	a5,a4,65a <ADC_RegularChannelConfig+0x1da>
E:/桌面/19th智能车/单片机培训、考核/CH32V103_Library-master/Seekfree_CH32V103R8T6_Opensource_Library/Libraries/wch_Libraries/Peripheral/ch32v10x_adc.c:470
    tmpreg1 = ADCx->RSQR2;
     5f2:	fdc42783          	lw	a5,-36(s0)
     5f6:	5b9c                	lw	a5,48(a5)
     5f8:	fef42623          	sw	a5,-20(s0)
E:/桌面/19th智能车/单片机培训、考核/CH32V103_Library-master/Seekfree_CH32V103R8T6_Opensource_Library/Libraries/wch_Libraries/Peripheral/ch32v10x_adc.c:471
    tmpreg2 = RSQR2_SQ_Set << (5 * (Rank - 7));
     5fc:	fda44783          	lbu	a5,-38(s0)
     600:	ff978713          	addi	a4,a5,-7
     604:	87ba                	mv	a5,a4
     606:	078a                	slli	a5,a5,0x2
     608:	97ba                	add	a5,a5,a4
     60a:	477d                	li	a4,31
     60c:	00f717b3          	sll	a5,a4,a5
     610:	fef42423          	sw	a5,-24(s0)
E:/桌面/19th智能车/单片机培训、考核/CH32V103_Library-master/Seekfree_CH32V103R8T6_Opensource_Library/Libraries/wch_Libraries/Peripheral/ch32v10x_adc.c:472
    tmpreg1 &= ~tmpreg2;
     614:	fe842783          	lw	a5,-24(s0)
     618:	fff7c793          	not	a5,a5
     61c:	fec42703          	lw	a4,-20(s0)
     620:	8ff9                	and	a5,a5,a4
     622:	fef42623          	sw	a5,-20(s0)
E:/桌面/19th智能车/单片机培训、考核/CH32V103_Library-master/Seekfree_CH32V103R8T6_Opensource_Library/Libraries/wch_Libraries/Peripheral/ch32v10x_adc.c:473
    tmpreg2 = (uint32_t)ADC_Channel << (5 * (Rank - 7));
     626:	fdb44683          	lbu	a3,-37(s0)
     62a:	fda44783          	lbu	a5,-38(s0)
     62e:	ff978713          	addi	a4,a5,-7
     632:	87ba                	mv	a5,a4
     634:	078a                	slli	a5,a5,0x2
     636:	97ba                	add	a5,a5,a4
     638:	00f697b3          	sll	a5,a3,a5
     63c:	fef42423          	sw	a5,-24(s0)
E:/桌面/19th智能车/单片机培训、考核/CH32V103_Library-master/Seekfree_CH32V103R8T6_Opensource_Library/Libraries/wch_Libraries/Peripheral/ch32v10x_adc.c:474
    tmpreg1 |= tmpreg2;
     640:	fec42703          	lw	a4,-20(s0)
     644:	fe842783          	lw	a5,-24(s0)
     648:	8fd9                	or	a5,a5,a4
     64a:	fef42623          	sw	a5,-20(s0)
E:/桌面/19th智能车/单片机培训、考核/CH32V103_Library-master/Seekfree_CH32V103R8T6_Opensource_Library/Libraries/wch_Libraries/Peripheral/ch32v10x_adc.c:475
    ADCx->RSQR2 = tmpreg1;
     64e:	fdc42783          	lw	a5,-36(s0)
     652:	fec42703          	lw	a4,-20(s0)
     656:	db98                	sw	a4,48(a5)
E:/桌面/19th智能车/单片机培训、考核/CH32V103_Library-master/Seekfree_CH32V103R8T6_Opensource_Library/Libraries/wch_Libraries/Peripheral/ch32v10x_adc.c:486
}
     658:	a0a5                	j	6c0 <ADC_RegularChannelConfig+0x240>
E:/桌面/19th智能车/单片机培训、考核/CH32V103_Library-master/Seekfree_CH32V103R8T6_Opensource_Library/Libraries/wch_Libraries/Peripheral/ch32v10x_adc.c:479
    tmpreg1 = ADCx->RSQR1;
     65a:	fdc42783          	lw	a5,-36(s0)
     65e:	57dc                	lw	a5,44(a5)
     660:	fef42623          	sw	a5,-20(s0)
E:/桌面/19th智能车/单片机培训、考核/CH32V103_Library-master/Seekfree_CH32V103R8T6_Opensource_Library/Libraries/wch_Libraries/Peripheral/ch32v10x_adc.c:480
    tmpreg2 = RSQR1_SQ_Set << (5 * (Rank - 13));
     664:	fda44783          	lbu	a5,-38(s0)
     668:	ff378713          	addi	a4,a5,-13
     66c:	87ba                	mv	a5,a4
     66e:	078a                	slli	a5,a5,0x2
     670:	97ba                	add	a5,a5,a4
     672:	477d                	li	a4,31
     674:	00f717b3          	sll	a5,a4,a5
     678:	fef42423          	sw	a5,-24(s0)
E:/桌面/19th智能车/单片机培训、考核/CH32V103_Library-master/Seekfree_CH32V103R8T6_Opensource_Library/Libraries/wch_Libraries/Peripheral/ch32v10x_adc.c:481
    tmpreg1 &= ~tmpreg2;
     67c:	fe842783          	lw	a5,-24(s0)
     680:	fff7c793          	not	a5,a5
     684:	fec42703          	lw	a4,-20(s0)
     688:	8ff9                	and	a5,a5,a4
     68a:	fef42623          	sw	a5,-20(s0)
E:/桌面/19th智能车/单片机培训、考核/CH32V103_Library-master/Seekfree_CH32V103R8T6_Opensource_Library/Libraries/wch_Libraries/Peripheral/ch32v10x_adc.c:482
    tmpreg2 = (uint32_t)ADC_Channel << (5 * (Rank - 13));
     68e:	fdb44683          	lbu	a3,-37(s0)
     692:	fda44783          	lbu	a5,-38(s0)
     696:	ff378713          	addi	a4,a5,-13
     69a:	87ba                	mv	a5,a4
     69c:	078a                	slli	a5,a5,0x2
     69e:	97ba                	add	a5,a5,a4
     6a0:	00f697b3          	sll	a5,a3,a5
     6a4:	fef42423          	sw	a5,-24(s0)
E:/桌面/19th智能车/单片机培训、考核/CH32V103_Library-master/Seekfree_CH32V103R8T6_Opensource_Library/Libraries/wch_Libraries/Peripheral/ch32v10x_adc.c:483
    tmpreg1 |= tmpreg2;
     6a8:	fec42703          	lw	a4,-20(s0)
     6ac:	fe842783          	lw	a5,-24(s0)
     6b0:	8fd9                	or	a5,a5,a4
     6b2:	fef42623          	sw	a5,-20(s0)
E:/桌面/19th智能车/单片机培训、考核/CH32V103_Library-master/Seekfree_CH32V103R8T6_Opensource_Library/Libraries/wch_Libraries/Peripheral/ch32v10x_adc.c:484
    ADCx->RSQR1 = tmpreg1;
     6b6:	fdc42783          	lw	a5,-36(s0)
     6ba:	fec42703          	lw	a4,-20(s0)
     6be:	d7d8                	sw	a4,44(a5)
E:/桌面/19th智能车/单片机培训、考核/CH32V103_Library-master/Seekfree_CH32V103R8T6_Opensource_Library/Libraries/wch_Libraries/Peripheral/ch32v10x_adc.c:486
}
     6c0:	0001                	nop
     6c2:	5432                	lw	s0,44(sp)
     6c4:	6145                	addi	sp,sp,48
     6c6:	8082                	ret

000006c8 <DMA_GetFlagStatus>:
DMA_GetFlagStatus():
E:/桌面/19th智能车/单片机培训、考核/CH32V103_Library-master/Seekfree_CH32V103R8T6_Opensource_Library/Libraries/wch_Libraries/Peripheral/ch32v10x_dma.c:290
*                      DMA2_FLAG_HT5: DMA2 Channel5 half transfer flag.
*                      DMA2_FLAG_TE5: DMA2 Channel5 transfer error flag.
* Return         : The new state of DMAy_FLAG (SET or RESET). 
*********************************************************************************/
FlagStatus DMA_GetFlagStatus(uint32_t DMAy_FLAG)
{
     6c8:	7179                	addi	sp,sp,-48
     6ca:	d622                	sw	s0,44(sp)
     6cc:	1800                	addi	s0,sp,48
     6ce:	fca42e23          	sw	a0,-36(s0)
E:/桌面/19th智能车/单片机培训、考核/CH32V103_Library-master/Seekfree_CH32V103R8T6_Opensource_Library/Libraries/wch_Libraries/Peripheral/ch32v10x_dma.c:291
  FlagStatus bitstatus = RESET;
     6d2:	fe042623          	sw	zero,-20(s0)
E:/桌面/19th智能车/单片机培训、考核/CH32V103_Library-master/Seekfree_CH32V103R8T6_Opensource_Library/Libraries/wch_Libraries/Peripheral/ch32v10x_dma.c:292
  uint32_t tmpreg = 0;
     6d6:	fe042423          	sw	zero,-24(s0)
E:/桌面/19th智能车/单片机培训、考核/CH32V103_Library-master/Seekfree_CH32V103R8T6_Opensource_Library/Libraries/wch_Libraries/Peripheral/ch32v10x_dma.c:294
  
  if ((DMAy_FLAG & FLAG_Mask) != (uint32_t)RESET)
     6da:	fdc42703          	lw	a4,-36(s0)
     6de:	100007b7          	lui	a5,0x10000
     6e2:	8ff9                	and	a5,a5,a4
     6e4:	cb89                	beqz	a5,6f6 <DMA_GetFlagStatus+0x2e>
E:/桌面/19th智能车/单片机培训、考核/CH32V103_Library-master/Seekfree_CH32V103R8T6_Opensource_Library/Libraries/wch_Libraries/Peripheral/ch32v10x_dma.c:296
  {
    tmpreg = DMA2->INTFR ;
     6e6:	400207b7          	lui	a5,0x40020
     6ea:	40078793          	addi	a5,a5,1024 # 40020400 <_eusrstack+0x2001b400>
     6ee:	439c                	lw	a5,0(a5)
     6f0:	fef42423          	sw	a5,-24(s0)
     6f4:	a031                	j	700 <DMA_GetFlagStatus+0x38>
E:/桌面/19th智能车/单片机培训、考核/CH32V103_Library-master/Seekfree_CH32V103R8T6_Opensource_Library/Libraries/wch_Libraries/Peripheral/ch32v10x_dma.c:300
  }
  else
  {
    tmpreg = DMA1->INTFR ;
     6f6:	400207b7          	lui	a5,0x40020
     6fa:	439c                	lw	a5,0(a5)
     6fc:	fef42423          	sw	a5,-24(s0)
E:/桌面/19th智能车/单片机培训、考核/CH32V103_Library-master/Seekfree_CH32V103R8T6_Opensource_Library/Libraries/wch_Libraries/Peripheral/ch32v10x_dma.c:303
  }

  if ((tmpreg & DMAy_FLAG) != (uint32_t)RESET)
     700:	fe842703          	lw	a4,-24(s0)
     704:	fdc42783          	lw	a5,-36(s0)
     708:	8ff9                	and	a5,a5,a4
     70a:	c789                	beqz	a5,714 <DMA_GetFlagStatus+0x4c>
E:/桌面/19th智能车/单片机培训、考核/CH32V103_Library-master/Seekfree_CH32V103R8T6_Opensource_Library/Libraries/wch_Libraries/Peripheral/ch32v10x_dma.c:305
  {
    bitstatus = SET;
     70c:	4785                	li	a5,1
     70e:	fef42623          	sw	a5,-20(s0)
     712:	a019                	j	718 <DMA_GetFlagStatus+0x50>
E:/桌面/19th智能车/单片机培训、考核/CH32V103_Library-master/Seekfree_CH32V103R8T6_Opensource_Library/Libraries/wch_Libraries/Peripheral/ch32v10x_dma.c:309
  }
  else
  {
    bitstatus = RESET;
     714:	fe042623          	sw	zero,-20(s0)
E:/桌面/19th智能车/单片机培训、考核/CH32V103_Library-master/Seekfree_CH32V103R8T6_Opensource_Library/Libraries/wch_Libraries/Peripheral/ch32v10x_dma.c:312
  }
  
  return  bitstatus;
     718:	fec42783          	lw	a5,-20(s0)
E:/桌面/19th智能车/单片机培训、考核/CH32V103_Library-master/Seekfree_CH32V103R8T6_Opensource_Library/Libraries/wch_Libraries/Peripheral/ch32v10x_dma.c:313
}
     71c:	853e                	mv	a0,a5
     71e:	5432                	lw	s0,44(sp)
     720:	6145                	addi	sp,sp,48
     722:	8082                	ret

00000724 <DMA_ClearFlag>:
DMA_ClearFlag():
E:/桌面/19th智能车/单片机培训、考核/CH32V103_Library-master/Seekfree_CH32V103R8T6_Opensource_Library/Libraries/wch_Libraries/Peripheral/ch32v10x_dma.c:371
*                      DMA2_FLAG_HT5: DMA2 Channel5 half transfer flag.
*                      DMA2_FLAG_TE5: DMA2 Channel5 transfer error flag.
* Return         : None 
*********************************************************************************/
void DMA_ClearFlag(uint32_t DMAy_FLAG)
{
     724:	1101                	addi	sp,sp,-32
     726:	ce22                	sw	s0,28(sp)
     728:	1000                	addi	s0,sp,32
     72a:	fea42623          	sw	a0,-20(s0)
E:/桌面/19th智能车/单片机培训、考核/CH32V103_Library-master/Seekfree_CH32V103R8T6_Opensource_Library/Libraries/wch_Libraries/Peripheral/ch32v10x_dma.c:372
  if ((DMAy_FLAG & FLAG_Mask) != (uint32_t)RESET)
     72e:	fec42703          	lw	a4,-20(s0)
     732:	100007b7          	lui	a5,0x10000
     736:	8ff9                	and	a5,a5,a4
     738:	cb89                	beqz	a5,74a <DMA_ClearFlag+0x26>
E:/桌面/19th智能车/单片机培训、考核/CH32V103_Library-master/Seekfree_CH32V103R8T6_Opensource_Library/Libraries/wch_Libraries/Peripheral/ch32v10x_dma.c:374
  {
    DMA2->INTFCR = DMAy_FLAG;
     73a:	400207b7          	lui	a5,0x40020
     73e:	40078793          	addi	a5,a5,1024 # 40020400 <_eusrstack+0x2001b400>
     742:	fec42703          	lw	a4,-20(s0)
     746:	c3d8                	sw	a4,4(a5)
E:/桌面/19th智能车/单片机培训、考核/CH32V103_Library-master/Seekfree_CH32V103R8T6_Opensource_Library/Libraries/wch_Libraries/Peripheral/ch32v10x_dma.c:380
  }
  else
  {
    DMA1->INTFCR = DMAy_FLAG;
  }
}
     748:	a031                	j	754 <DMA_ClearFlag+0x30>
E:/桌面/19th智能车/单片机培训、考核/CH32V103_Library-master/Seekfree_CH32V103R8T6_Opensource_Library/Libraries/wch_Libraries/Peripheral/ch32v10x_dma.c:378
    DMA1->INTFCR = DMAy_FLAG;
     74a:	400207b7          	lui	a5,0x40020
     74e:	fec42703          	lw	a4,-20(s0)
     752:	c3d8                	sw	a4,4(a5)
E:/桌面/19th智能车/单片机培训、考核/CH32V103_Library-master/Seekfree_CH32V103R8T6_Opensource_Library/Libraries/wch_Libraries/Peripheral/ch32v10x_dma.c:380
}
     754:	0001                	nop
     756:	4472                	lw	s0,28(sp)
     758:	6105                	addi	sp,sp,32
     75a:	8082                	ret

0000075c <EXTI_GetITStatus>:
EXTI_GetITStatus():
E:/桌面/19th智能车/单片机培训、考核/CH32V103_Library-master/Seekfree_CH32V103R8T6_Opensource_Library/Libraries/wch_Libraries/Peripheral/ch32v10x_exti.c:131
* Description    : Checks whether the specified EXTI line is asserted or not.
* Input          : EXTI_Line: specifies the EXTI lines to be enabled or disabled.
* Return         : The new state of EXTI_Line (SET or RESET).
*********************************************************************************/	
ITStatus EXTI_GetITStatus(uint32_t EXTI_Line)
{
     75c:	7179                	addi	sp,sp,-48
     75e:	d622                	sw	s0,44(sp)
     760:	1800                	addi	s0,sp,48
     762:	fca42e23          	sw	a0,-36(s0)
E:/桌面/19th智能车/单片机培训、考核/CH32V103_Library-master/Seekfree_CH32V103R8T6_Opensource_Library/Libraries/wch_Libraries/Peripheral/ch32v10x_exti.c:132
  ITStatus bitstatus = RESET;
     766:	fe042623          	sw	zero,-20(s0)
E:/桌面/19th智能车/单片机培训、考核/CH32V103_Library-master/Seekfree_CH32V103R8T6_Opensource_Library/Libraries/wch_Libraries/Peripheral/ch32v10x_exti.c:133
  uint32_t enablestatus = 0;
     76a:	fe042423          	sw	zero,-24(s0)
E:/桌面/19th智能车/单片机培训、考核/CH32V103_Library-master/Seekfree_CH32V103R8T6_Opensource_Library/Libraries/wch_Libraries/Peripheral/ch32v10x_exti.c:135
  
  enablestatus =  EXTI->INTENR & EXTI_Line;
     76e:	400107b7          	lui	a5,0x40010
     772:	40078793          	addi	a5,a5,1024 # 40010400 <_eusrstack+0x2000b400>
     776:	439c                	lw	a5,0(a5)
     778:	fdc42703          	lw	a4,-36(s0)
     77c:	8ff9                	and	a5,a5,a4
     77e:	fef42423          	sw	a5,-24(s0)
E:/桌面/19th智能车/单片机培训、考核/CH32V103_Library-master/Seekfree_CH32V103R8T6_Opensource_Library/Libraries/wch_Libraries/Peripheral/ch32v10x_exti.c:136
  if (((EXTI->INTFR & EXTI_Line) != (uint32_t)RESET) && (enablestatus != (uint32_t)RESET))
     782:	400107b7          	lui	a5,0x40010
     786:	40078793          	addi	a5,a5,1024 # 40010400 <_eusrstack+0x2000b400>
     78a:	4bd8                	lw	a4,20(a5)
     78c:	fdc42783          	lw	a5,-36(s0)
     790:	8ff9                	and	a5,a5,a4
     792:	cb81                	beqz	a5,7a2 <EXTI_GetITStatus+0x46>
E:/桌面/19th智能车/单片机培训、考核/CH32V103_Library-master/Seekfree_CH32V103R8T6_Opensource_Library/Libraries/wch_Libraries/Peripheral/ch32v10x_exti.c:136 (discriminator 1)
     794:	fe842783          	lw	a5,-24(s0)
     798:	c789                	beqz	a5,7a2 <EXTI_GetITStatus+0x46>
E:/桌面/19th智能车/单片机培训、考核/CH32V103_Library-master/Seekfree_CH32V103R8T6_Opensource_Library/Libraries/wch_Libraries/Peripheral/ch32v10x_exti.c:138
  {
    bitstatus = SET;
     79a:	4785                	li	a5,1
     79c:	fef42623          	sw	a5,-20(s0)
     7a0:	a019                	j	7a6 <EXTI_GetITStatus+0x4a>
E:/桌面/19th智能车/单片机培训、考核/CH32V103_Library-master/Seekfree_CH32V103R8T6_Opensource_Library/Libraries/wch_Libraries/Peripheral/ch32v10x_exti.c:142
  }
  else
  {
    bitstatus = RESET;
     7a2:	fe042623          	sw	zero,-20(s0)
E:/桌面/19th智能车/单片机培训、考核/CH32V103_Library-master/Seekfree_CH32V103R8T6_Opensource_Library/Libraries/wch_Libraries/Peripheral/ch32v10x_exti.c:144
  }
  return bitstatus;
     7a6:	fec42783          	lw	a5,-20(s0)
E:/桌面/19th智能车/单片机培训、考核/CH32V103_Library-master/Seekfree_CH32V103R8T6_Opensource_Library/Libraries/wch_Libraries/Peripheral/ch32v10x_exti.c:145
}
     7aa:	853e                	mv	a0,a5
     7ac:	5432                	lw	s0,44(sp)
     7ae:	6145                	addi	sp,sp,48
     7b0:	8082                	ret

000007b2 <EXTI_ClearITPendingBit>:
EXTI_ClearITPendingBit():
E:/桌面/19th智能车/单片机培训、考核/CH32V103_Library-master/Seekfree_CH32V103R8T6_Opensource_Library/Libraries/wch_Libraries/Peripheral/ch32v10x_exti.c:154
* Description    : Clears the EXTI's line pending bits.
* Input          : EXTI_Line: specifies the EXTI lines to be enabled or disabled.
* Return         : None
*********************************************************************************/
void EXTI_ClearITPendingBit(uint32_t EXTI_Line)
{  
     7b2:	1101                	addi	sp,sp,-32
     7b4:	ce22                	sw	s0,28(sp)
     7b6:	1000                	addi	s0,sp,32
     7b8:	fea42623          	sw	a0,-20(s0)
E:/桌面/19th智能车/单片机培训、考核/CH32V103_Library-master/Seekfree_CH32V103R8T6_Opensource_Library/Libraries/wch_Libraries/Peripheral/ch32v10x_exti.c:155
  EXTI->INTFR = EXTI_Line;
     7bc:	400107b7          	lui	a5,0x40010
     7c0:	40078793          	addi	a5,a5,1024 # 40010400 <_eusrstack+0x2000b400>
     7c4:	fec42703          	lw	a4,-20(s0)
     7c8:	cbd8                	sw	a4,20(a5)
E:/桌面/19th智能车/单片机培训、考核/CH32V103_Library-master/Seekfree_CH32V103R8T6_Opensource_Library/Libraries/wch_Libraries/Peripheral/ch32v10x_exti.c:156
}
     7ca:	0001                	nop
     7cc:	4472                	lw	s0,28(sp)
     7ce:	6105                	addi	sp,sp,32
     7d0:	8082                	ret

000007d2 <GPIO_DeInit>:
GPIO_DeInit():
E:/桌面/19th智能车/单片机培训、考核/CH32V103_Library-master/Seekfree_CH32V103R8T6_Opensource_Library/Libraries/wch_Libraries/Peripheral/ch32v10x_gpio.c:26
* Description    : Deinitializes the GPIOx peripheral registers to their default reset values.
* Input          : GPIOx: where x can be (A..G) to select the GPIO peripheral.
* Return         : None
*******************************************************************************/
void GPIO_DeInit(GPIO_TypeDef* GPIOx)
{
     7d2:	1101                	addi	sp,sp,-32
     7d4:	ce06                	sw	ra,28(sp)
     7d6:	cc22                	sw	s0,24(sp)
     7d8:	1000                	addi	s0,sp,32
     7da:	fea42623          	sw	a0,-20(s0)
E:/桌面/19th智能车/单片机培训、考核/CH32V103_Library-master/Seekfree_CH32V103R8T6_Opensource_Library/Libraries/wch_Libraries/Peripheral/ch32v10x_gpio.c:27
  if (GPIOx == GPIOA)
     7de:	fec42703          	lw	a4,-20(s0)
     7e2:	400117b7          	lui	a5,0x40011
     7e6:	80078793          	addi	a5,a5,-2048 # 40010800 <_eusrstack+0x2000b800>
     7ea:	00f71963          	bne	a4,a5,7fc <GPIO_DeInit+0x2a>
E:/桌面/19th智能车/单片机培训、考核/CH32V103_Library-master/Seekfree_CH32V103R8T6_Opensource_Library/Libraries/wch_Libraries/Peripheral/ch32v10x_gpio.c:29
  {
    RCC_APB2PeriphResetCmd(RCC_APB2Periph_GPIOA, ENABLE);
     7ee:	4585                	li	a1,1
     7f0:	4511                	li	a0,4
     7f2:	2fa1                	jal	f4a <RCC_APB2PeriphResetCmd>
E:/桌面/19th智能车/单片机培训、考核/CH32V103_Library-master/Seekfree_CH32V103R8T6_Opensource_Library/Libraries/wch_Libraries/Peripheral/ch32v10x_gpio.c:30
    RCC_APB2PeriphResetCmd(RCC_APB2Periph_GPIOA, DISABLE);
     7f4:	4581                	li	a1,0
     7f6:	4511                	li	a0,4
     7f8:	2f89                	jal	f4a <RCC_APB2PeriphResetCmd>
E:/桌面/19th智能车/单片机培训、考核/CH32V103_Library-master/Seekfree_CH32V103R8T6_Opensource_Library/Libraries/wch_Libraries/Peripheral/ch32v10x_gpio.c:65
    {
      RCC_APB2PeriphResetCmd(RCC_APB2Periph_GPIOG, ENABLE);
      RCC_APB2PeriphResetCmd(RCC_APB2Periph_GPIOG, DISABLE);
    }
  }
}
     7fa:	a875                	j	8b6 <__stack_size+0xb6>
E:/桌面/19th智能车/单片机培训、考核/CH32V103_Library-master/Seekfree_CH32V103R8T6_Opensource_Library/Libraries/wch_Libraries/Peripheral/ch32v10x_gpio.c:32
  else if (GPIOx == GPIOB)
     7fc:	fec42703          	lw	a4,-20(s0)
     800:	400117b7          	lui	a5,0x40011
     804:	c0078793          	addi	a5,a5,-1024 # 40010c00 <_eusrstack+0x2000bc00>
     808:	00f71963          	bne	a4,a5,81a <__stack_size+0x1a>
E:/桌面/19th智能车/单片机培训、考核/CH32V103_Library-master/Seekfree_CH32V103R8T6_Opensource_Library/Libraries/wch_Libraries/Peripheral/ch32v10x_gpio.c:34
    RCC_APB2PeriphResetCmd(RCC_APB2Periph_GPIOB, ENABLE);
     80c:	4585                	li	a1,1
     80e:	4521                	li	a0,8
     810:	2f2d                	jal	f4a <RCC_APB2PeriphResetCmd>
E:/桌面/19th智能车/单片机培训、考核/CH32V103_Library-master/Seekfree_CH32V103R8T6_Opensource_Library/Libraries/wch_Libraries/Peripheral/ch32v10x_gpio.c:35
    RCC_APB2PeriphResetCmd(RCC_APB2Periph_GPIOB, DISABLE);
     812:	4581                	li	a1,0
     814:	4521                	li	a0,8
     816:	2f15                	jal	f4a <RCC_APB2PeriphResetCmd>
E:/桌面/19th智能车/单片机培训、考核/CH32V103_Library-master/Seekfree_CH32V103R8T6_Opensource_Library/Libraries/wch_Libraries/Peripheral/ch32v10x_gpio.c:65
}
     818:	a879                	j	8b6 <__stack_size+0xb6>
E:/桌面/19th智能车/单片机培训、考核/CH32V103_Library-master/Seekfree_CH32V103R8T6_Opensource_Library/Libraries/wch_Libraries/Peripheral/ch32v10x_gpio.c:37
  else if (GPIOx == GPIOC)
     81a:	fec42703          	lw	a4,-20(s0)
     81e:	400117b7          	lui	a5,0x40011
     822:	00f71963          	bne	a4,a5,834 <__stack_size+0x34>
E:/桌面/19th智能车/单片机培训、考核/CH32V103_Library-master/Seekfree_CH32V103R8T6_Opensource_Library/Libraries/wch_Libraries/Peripheral/ch32v10x_gpio.c:39
    RCC_APB2PeriphResetCmd(RCC_APB2Periph_GPIOC, ENABLE);
     826:	4585                	li	a1,1
     828:	4541                	li	a0,16
     82a:	2705                	jal	f4a <RCC_APB2PeriphResetCmd>
E:/桌面/19th智能车/单片机培训、考核/CH32V103_Library-master/Seekfree_CH32V103R8T6_Opensource_Library/Libraries/wch_Libraries/Peripheral/ch32v10x_gpio.c:40
    RCC_APB2PeriphResetCmd(RCC_APB2Periph_GPIOC, DISABLE);
     82c:	4581                	li	a1,0
     82e:	4541                	li	a0,16
     830:	2f29                	jal	f4a <RCC_APB2PeriphResetCmd>
E:/桌面/19th智能车/单片机培训、考核/CH32V103_Library-master/Seekfree_CH32V103R8T6_Opensource_Library/Libraries/wch_Libraries/Peripheral/ch32v10x_gpio.c:65
}
     832:	a051                	j	8b6 <__stack_size+0xb6>
E:/桌面/19th智能车/单片机培训、考核/CH32V103_Library-master/Seekfree_CH32V103R8T6_Opensource_Library/Libraries/wch_Libraries/Peripheral/ch32v10x_gpio.c:42
  else if (GPIOx == GPIOD)
     834:	fec42703          	lw	a4,-20(s0)
     838:	400117b7          	lui	a5,0x40011
     83c:	40078793          	addi	a5,a5,1024 # 40011400 <_eusrstack+0x2000c400>
     840:	00f71b63          	bne	a4,a5,856 <__stack_size+0x56>
E:/桌面/19th智能车/单片机培训、考核/CH32V103_Library-master/Seekfree_CH32V103R8T6_Opensource_Library/Libraries/wch_Libraries/Peripheral/ch32v10x_gpio.c:44
    RCC_APB2PeriphResetCmd(RCC_APB2Periph_GPIOD, ENABLE);
     844:	4585                	li	a1,1
     846:	02000513          	li	a0,32
     84a:	2701                	jal	f4a <RCC_APB2PeriphResetCmd>
E:/桌面/19th智能车/单片机培训、考核/CH32V103_Library-master/Seekfree_CH32V103R8T6_Opensource_Library/Libraries/wch_Libraries/Peripheral/ch32v10x_gpio.c:45
    RCC_APB2PeriphResetCmd(RCC_APB2Periph_GPIOD, DISABLE);
     84c:	4581                	li	a1,0
     84e:	02000513          	li	a0,32
     852:	2de5                	jal	f4a <RCC_APB2PeriphResetCmd>
E:/桌面/19th智能车/单片机培训、考核/CH32V103_Library-master/Seekfree_CH32V103R8T6_Opensource_Library/Libraries/wch_Libraries/Peripheral/ch32v10x_gpio.c:65
}
     854:	a08d                	j	8b6 <__stack_size+0xb6>
E:/桌面/19th智能车/单片机培训、考核/CH32V103_Library-master/Seekfree_CH32V103R8T6_Opensource_Library/Libraries/wch_Libraries/Peripheral/ch32v10x_gpio.c:47
  else if (GPIOx == GPIOE)
     856:	fec42703          	lw	a4,-20(s0)
     85a:	400127b7          	lui	a5,0x40012
     85e:	80078793          	addi	a5,a5,-2048 # 40011800 <_eusrstack+0x2000c800>
     862:	00f71b63          	bne	a4,a5,878 <__stack_size+0x78>
E:/桌面/19th智能车/单片机培训、考核/CH32V103_Library-master/Seekfree_CH32V103R8T6_Opensource_Library/Libraries/wch_Libraries/Peripheral/ch32v10x_gpio.c:49
    RCC_APB2PeriphResetCmd(RCC_APB2Periph_GPIOE, ENABLE);
     866:	4585                	li	a1,1
     868:	04000513          	li	a0,64
     86c:	2df9                	jal	f4a <RCC_APB2PeriphResetCmd>
E:/桌面/19th智能车/单片机培训、考核/CH32V103_Library-master/Seekfree_CH32V103R8T6_Opensource_Library/Libraries/wch_Libraries/Peripheral/ch32v10x_gpio.c:50
    RCC_APB2PeriphResetCmd(RCC_APB2Periph_GPIOE, DISABLE);
     86e:	4581                	li	a1,0
     870:	04000513          	li	a0,64
     874:	2dd9                	jal	f4a <RCC_APB2PeriphResetCmd>
E:/桌面/19th智能车/单片机培训、考核/CH32V103_Library-master/Seekfree_CH32V103R8T6_Opensource_Library/Libraries/wch_Libraries/Peripheral/ch32v10x_gpio.c:65
}
     876:	a081                	j	8b6 <__stack_size+0xb6>
E:/桌面/19th智能车/单片机培训、考核/CH32V103_Library-master/Seekfree_CH32V103R8T6_Opensource_Library/Libraries/wch_Libraries/Peripheral/ch32v10x_gpio.c:52
  else if (GPIOx == GPIOF)
     878:	fec42703          	lw	a4,-20(s0)
     87c:	400127b7          	lui	a5,0x40012
     880:	c0078793          	addi	a5,a5,-1024 # 40011c00 <_eusrstack+0x2000cc00>
     884:	00f71b63          	bne	a4,a5,89a <__stack_size+0x9a>
E:/桌面/19th智能车/单片机培训、考核/CH32V103_Library-master/Seekfree_CH32V103R8T6_Opensource_Library/Libraries/wch_Libraries/Peripheral/ch32v10x_gpio.c:54
    RCC_APB2PeriphResetCmd(RCC_APB2Periph_GPIOF, ENABLE);
     888:	4585                	li	a1,1
     88a:	08000513          	li	a0,128
     88e:	2d75                	jal	f4a <RCC_APB2PeriphResetCmd>
E:/桌面/19th智能车/单片机培训、考核/CH32V103_Library-master/Seekfree_CH32V103R8T6_Opensource_Library/Libraries/wch_Libraries/Peripheral/ch32v10x_gpio.c:55
    RCC_APB2PeriphResetCmd(RCC_APB2Periph_GPIOF, DISABLE);
     890:	4581                	li	a1,0
     892:	08000513          	li	a0,128
     896:	2d55                	jal	f4a <RCC_APB2PeriphResetCmd>
E:/桌面/19th智能车/单片机培训、考核/CH32V103_Library-master/Seekfree_CH32V103R8T6_Opensource_Library/Libraries/wch_Libraries/Peripheral/ch32v10x_gpio.c:65
}
     898:	a839                	j	8b6 <__stack_size+0xb6>
E:/桌面/19th智能车/单片机培训、考核/CH32V103_Library-master/Seekfree_CH32V103R8T6_Opensource_Library/Libraries/wch_Libraries/Peripheral/ch32v10x_gpio.c:59
    if (GPIOx == GPIOG)
     89a:	fec42703          	lw	a4,-20(s0)
     89e:	400127b7          	lui	a5,0x40012
     8a2:	00f71a63          	bne	a4,a5,8b6 <__stack_size+0xb6>
E:/桌面/19th智能车/单片机培训、考核/CH32V103_Library-master/Seekfree_CH32V103R8T6_Opensource_Library/Libraries/wch_Libraries/Peripheral/ch32v10x_gpio.c:61
      RCC_APB2PeriphResetCmd(RCC_APB2Periph_GPIOG, ENABLE);
     8a6:	4585                	li	a1,1
     8a8:	10000513          	li	a0,256
     8ac:	2d79                	jal	f4a <RCC_APB2PeriphResetCmd>
E:/桌面/19th智能车/单片机培训、考核/CH32V103_Library-master/Seekfree_CH32V103R8T6_Opensource_Library/Libraries/wch_Libraries/Peripheral/ch32v10x_gpio.c:62
      RCC_APB2PeriphResetCmd(RCC_APB2Periph_GPIOG, DISABLE);
     8ae:	4581                	li	a1,0
     8b0:	10000513          	li	a0,256
     8b4:	2d59                	jal	f4a <RCC_APB2PeriphResetCmd>
E:/桌面/19th智能车/单片机培训、考核/CH32V103_Library-master/Seekfree_CH32V103R8T6_Opensource_Library/Libraries/wch_Libraries/Peripheral/ch32v10x_gpio.c:65
}
     8b6:	0001                	nop
     8b8:	40f2                	lw	ra,28(sp)
     8ba:	4462                	lw	s0,24(sp)
     8bc:	6105                	addi	sp,sp,32
     8be:	8082                	ret

000008c0 <GPIO_Init>:
GPIO_Init():
E:/桌面/19th智能车/单片机培训、考核/CH32V103_Library-master/Seekfree_CH32V103R8T6_Opensource_Library/Libraries/wch_Libraries/Peripheral/ch32v10x_gpio.c:88
* Input          : GPIO_InitStruct: pointer to a GPIO_InitTypeDef structure that
*      contains the configuration information for the specified GPIO peripheral.
* Return         : None
*******************************************************************************/
void GPIO_Init(GPIO_TypeDef* GPIOx, GPIO_InitTypeDef* GPIO_InitStruct)
{
     8c0:	7139                	addi	sp,sp,-64
     8c2:	de22                	sw	s0,60(sp)
     8c4:	0080                	addi	s0,sp,64
     8c6:	fca42623          	sw	a0,-52(s0)
     8ca:	fcb42423          	sw	a1,-56(s0)
E:/桌面/19th智能车/单片机培训、考核/CH32V103_Library-master/Seekfree_CH32V103R8T6_Opensource_Library/Libraries/wch_Libraries/Peripheral/ch32v10x_gpio.c:89
  uint32_t currentmode = 0x00, currentpin = 0x00, pinpos = 0x00, pos = 0x00;
     8ce:	fe042623          	sw	zero,-20(s0)
     8d2:	fe042023          	sw	zero,-32(s0)
     8d6:	fe042423          	sw	zero,-24(s0)
     8da:	fc042e23          	sw	zero,-36(s0)
E:/桌面/19th智能车/单片机培训、考核/CH32V103_Library-master/Seekfree_CH32V103R8T6_Opensource_Library/Libraries/wch_Libraries/Peripheral/ch32v10x_gpio.c:90
  uint32_t tmpreg = 0x00, pinmask = 0x00;
     8de:	fe042223          	sw	zero,-28(s0)
     8e2:	fc042c23          	sw	zero,-40(s0)
E:/桌面/19th智能车/单片机培训、考核/CH32V103_Library-master/Seekfree_CH32V103R8T6_Opensource_Library/Libraries/wch_Libraries/Peripheral/ch32v10x_gpio.c:92

  currentmode = ((uint32_t)GPIO_InitStruct->GPIO_Mode) & ((uint32_t)0x0F);
     8e6:	fc842783          	lw	a5,-56(s0)
     8ea:	479c                	lw	a5,8(a5)
     8ec:	8bbd                	andi	a5,a5,15
     8ee:	fef42623          	sw	a5,-20(s0)
E:/桌面/19th智能车/单片机培训、考核/CH32V103_Library-master/Seekfree_CH32V103R8T6_Opensource_Library/Libraries/wch_Libraries/Peripheral/ch32v10x_gpio.c:94
	
  if ((((uint32_t)GPIO_InitStruct->GPIO_Mode) & ((uint32_t)0x10)) != 0x00)
     8f2:	fc842783          	lw	a5,-56(s0)
     8f6:	479c                	lw	a5,8(a5)
     8f8:	8bc1                	andi	a5,a5,16
     8fa:	cb89                	beqz	a5,90c <GPIO_Init+0x4c>
E:/桌面/19th智能车/单片机培训、考核/CH32V103_Library-master/Seekfree_CH32V103R8T6_Opensource_Library/Libraries/wch_Libraries/Peripheral/ch32v10x_gpio.c:96
  { 
    currentmode |= (uint32_t)GPIO_InitStruct->GPIO_Speed;
     8fc:	fc842783          	lw	a5,-56(s0)
     900:	43dc                	lw	a5,4(a5)
     902:	fec42703          	lw	a4,-20(s0)
     906:	8fd9                	or	a5,a5,a4
     908:	fef42623          	sw	a5,-20(s0)
E:/桌面/19th智能车/单片机培训、考核/CH32V103_Library-master/Seekfree_CH32V103R8T6_Opensource_Library/Libraries/wch_Libraries/Peripheral/ch32v10x_gpio.c:99
  }

  if (((uint32_t)GPIO_InitStruct->GPIO_Pin & ((uint32_t)0x00FF)) != 0x00)
     90c:	fc842783          	lw	a5,-56(s0)
     910:	0007d783          	lhu	a5,0(a5) # 40012000 <_eusrstack+0x2000d000>
     914:	0ff7f793          	andi	a5,a5,255
     918:	cff1                	beqz	a5,9f4 <GPIO_Init+0x134>
E:/桌面/19th智能车/单片机培训、考核/CH32V103_Library-master/Seekfree_CH32V103R8T6_Opensource_Library/Libraries/wch_Libraries/Peripheral/ch32v10x_gpio.c:101
  {
    tmpreg = GPIOx->CFGLR;
     91a:	fcc42783          	lw	a5,-52(s0)
     91e:	439c                	lw	a5,0(a5)
     920:	fef42223          	sw	a5,-28(s0)
E:/桌面/19th智能车/单片机培训、考核/CH32V103_Library-master/Seekfree_CH32V103R8T6_Opensource_Library/Libraries/wch_Libraries/Peripheral/ch32v10x_gpio.c:103
		
    for (pinpos = 0x00; pinpos < 0x08; pinpos++)
     924:	fe042423          	sw	zero,-24(s0)
     928:	a865                	j	9e0 <GPIO_Init+0x120>
E:/桌面/19th智能车/单片机培训、考核/CH32V103_Library-master/Seekfree_CH32V103R8T6_Opensource_Library/Libraries/wch_Libraries/Peripheral/ch32v10x_gpio.c:105
    {
      pos = ((uint32_t)0x01) << pinpos;
     92a:	fe842783          	lw	a5,-24(s0)
     92e:	4705                	li	a4,1
     930:	00f717b3          	sll	a5,a4,a5
     934:	fcf42e23          	sw	a5,-36(s0)
E:/桌面/19th智能车/单片机培训、考核/CH32V103_Library-master/Seekfree_CH32V103R8T6_Opensource_Library/Libraries/wch_Libraries/Peripheral/ch32v10x_gpio.c:106
      currentpin = (GPIO_InitStruct->GPIO_Pin) & pos;
     938:	fc842783          	lw	a5,-56(s0)
     93c:	0007d783          	lhu	a5,0(a5)
     940:	873e                	mv	a4,a5
     942:	fdc42783          	lw	a5,-36(s0)
     946:	8ff9                	and	a5,a5,a4
     948:	fef42023          	sw	a5,-32(s0)
E:/桌面/19th智能车/单片机培训、考核/CH32V103_Library-master/Seekfree_CH32V103R8T6_Opensource_Library/Libraries/wch_Libraries/Peripheral/ch32v10x_gpio.c:108
			
      if (currentpin == pos)
     94c:	fe042703          	lw	a4,-32(s0)
     950:	fdc42783          	lw	a5,-36(s0)
     954:	08f71163          	bne	a4,a5,9d6 <GPIO_Init+0x116>
E:/桌面/19th智能车/单片机培训、考核/CH32V103_Library-master/Seekfree_CH32V103R8T6_Opensource_Library/Libraries/wch_Libraries/Peripheral/ch32v10x_gpio.c:110
      {
        pos = pinpos << 2;
     958:	fe842783          	lw	a5,-24(s0)
     95c:	078a                	slli	a5,a5,0x2
     95e:	fcf42e23          	sw	a5,-36(s0)
E:/桌面/19th智能车/单片机培训、考核/CH32V103_Library-master/Seekfree_CH32V103R8T6_Opensource_Library/Libraries/wch_Libraries/Peripheral/ch32v10x_gpio.c:111
        pinmask = ((uint32_t)0x0F) << pos;
     962:	fdc42783          	lw	a5,-36(s0)
     966:	473d                	li	a4,15
     968:	00f717b3          	sll	a5,a4,a5
     96c:	fcf42c23          	sw	a5,-40(s0)
E:/桌面/19th智能车/单片机培训、考核/CH32V103_Library-master/Seekfree_CH32V103R8T6_Opensource_Library/Libraries/wch_Libraries/Peripheral/ch32v10x_gpio.c:112
        tmpreg &= ~pinmask;
     970:	fd842783          	lw	a5,-40(s0)
     974:	fff7c793          	not	a5,a5
     978:	fe442703          	lw	a4,-28(s0)
     97c:	8ff9                	and	a5,a5,a4
     97e:	fef42223          	sw	a5,-28(s0)
E:/桌面/19th智能车/单片机培训、考核/CH32V103_Library-master/Seekfree_CH32V103R8T6_Opensource_Library/Libraries/wch_Libraries/Peripheral/ch32v10x_gpio.c:113
        tmpreg |= (currentmode << pos);
     982:	fdc42783          	lw	a5,-36(s0)
     986:	fec42703          	lw	a4,-20(s0)
     98a:	00f717b3          	sll	a5,a4,a5
     98e:	fe442703          	lw	a4,-28(s0)
     992:	8fd9                	or	a5,a5,a4
     994:	fef42223          	sw	a5,-28(s0)
E:/桌面/19th智能车/单片机培训、考核/CH32V103_Library-master/Seekfree_CH32V103R8T6_Opensource_Library/Libraries/wch_Libraries/Peripheral/ch32v10x_gpio.c:115

        if (GPIO_InitStruct->GPIO_Mode == GPIO_Mode_IPD)
     998:	fc842783          	lw	a5,-56(s0)
     99c:	4798                	lw	a4,8(a5)
     99e:	02800793          	li	a5,40
     9a2:	00f71b63          	bne	a4,a5,9b8 <GPIO_Init+0xf8>
E:/桌面/19th智能车/单片机培训、考核/CH32V103_Library-master/Seekfree_CH32V103R8T6_Opensource_Library/Libraries/wch_Libraries/Peripheral/ch32v10x_gpio.c:117
        {
          GPIOx->BCR = (((uint32_t)0x01) << pinpos);
     9a6:	fe842783          	lw	a5,-24(s0)
     9aa:	4705                	li	a4,1
     9ac:	00f71733          	sll	a4,a4,a5
     9b0:	fcc42783          	lw	a5,-52(s0)
     9b4:	cbd8                	sw	a4,20(a5)
     9b6:	a005                	j	9d6 <GPIO_Init+0x116>
E:/桌面/19th智能车/单片机培训、考核/CH32V103_Library-master/Seekfree_CH32V103R8T6_Opensource_Library/Libraries/wch_Libraries/Peripheral/ch32v10x_gpio.c:121
        }
        else
        {
          if (GPIO_InitStruct->GPIO_Mode == GPIO_Mode_IPU)
     9b8:	fc842783          	lw	a5,-56(s0)
     9bc:	4798                	lw	a4,8(a5)
     9be:	04800793          	li	a5,72
     9c2:	00f71a63          	bne	a4,a5,9d6 <GPIO_Init+0x116>
E:/桌面/19th智能车/单片机培训、考核/CH32V103_Library-master/Seekfree_CH32V103R8T6_Opensource_Library/Libraries/wch_Libraries/Peripheral/ch32v10x_gpio.c:123
          {
            GPIOx->BSHR = (((uint32_t)0x01) << pinpos);
     9c6:	fe842783          	lw	a5,-24(s0)
     9ca:	4705                	li	a4,1
     9cc:	00f71733          	sll	a4,a4,a5
     9d0:	fcc42783          	lw	a5,-52(s0)
     9d4:	cb98                	sw	a4,16(a5)
E:/桌面/19th智能车/单片机培训、考核/CH32V103_Library-master/Seekfree_CH32V103R8T6_Opensource_Library/Libraries/wch_Libraries/Peripheral/ch32v10x_gpio.c:103 (discriminator 2)
    for (pinpos = 0x00; pinpos < 0x08; pinpos++)
     9d6:	fe842783          	lw	a5,-24(s0)
     9da:	0785                	addi	a5,a5,1
     9dc:	fef42423          	sw	a5,-24(s0)
E:/桌面/19th智能车/单片机培训、考核/CH32V103_Library-master/Seekfree_CH32V103R8T6_Opensource_Library/Libraries/wch_Libraries/Peripheral/ch32v10x_gpio.c:103 (discriminator 1)
     9e0:	fe842703          	lw	a4,-24(s0)
     9e4:	479d                	li	a5,7
     9e6:	f4e7f2e3          	bgeu	a5,a4,92a <GPIO_Init+0x6a>
E:/桌面/19th智能车/单片机培训、考核/CH32V103_Library-master/Seekfree_CH32V103R8T6_Opensource_Library/Libraries/wch_Libraries/Peripheral/ch32v10x_gpio.c:128
          }
        }
      }
    }
    GPIOx->CFGLR = tmpreg;
     9ea:	fcc42783          	lw	a5,-52(s0)
     9ee:	fe442703          	lw	a4,-28(s0)
     9f2:	c398                	sw	a4,0(a5)
E:/桌面/19th智能车/单片机培训、考核/CH32V103_Library-master/Seekfree_CH32V103R8T6_Opensource_Library/Libraries/wch_Libraries/Peripheral/ch32v10x_gpio.c:131
  }

  if (GPIO_InitStruct->GPIO_Pin > 0x00FF)
     9f4:	fc842783          	lw	a5,-56(s0)
     9f8:	0007d703          	lhu	a4,0(a5)
     9fc:	0ff00793          	li	a5,255
     a00:	0ee7f163          	bgeu	a5,a4,ae2 <GPIO_Init+0x222>
E:/桌面/19th智能车/单片机培训、考核/CH32V103_Library-master/Seekfree_CH32V103R8T6_Opensource_Library/Libraries/wch_Libraries/Peripheral/ch32v10x_gpio.c:133
  {
    tmpreg = GPIOx->CFGHR;
     a04:	fcc42783          	lw	a5,-52(s0)
     a08:	43dc                	lw	a5,4(a5)
     a0a:	fef42223          	sw	a5,-28(s0)
E:/桌面/19th智能车/单片机培训、考核/CH32V103_Library-master/Seekfree_CH32V103R8T6_Opensource_Library/Libraries/wch_Libraries/Peripheral/ch32v10x_gpio.c:135
		
    for (pinpos = 0x00; pinpos < 0x08; pinpos++)
     a0e:	fe042423          	sw	zero,-24(s0)
     a12:	a875                	j	ace <GPIO_Init+0x20e>
E:/桌面/19th智能车/单片机培训、考核/CH32V103_Library-master/Seekfree_CH32V103R8T6_Opensource_Library/Libraries/wch_Libraries/Peripheral/ch32v10x_gpio.c:137
    {
      pos = (((uint32_t)0x01) << (pinpos + 0x08));
     a14:	fe842783          	lw	a5,-24(s0)
     a18:	07a1                	addi	a5,a5,8
     a1a:	4705                	li	a4,1
     a1c:	00f717b3          	sll	a5,a4,a5
     a20:	fcf42e23          	sw	a5,-36(s0)
E:/桌面/19th智能车/单片机培训、考核/CH32V103_Library-master/Seekfree_CH32V103R8T6_Opensource_Library/Libraries/wch_Libraries/Peripheral/ch32v10x_gpio.c:138
      currentpin = ((GPIO_InitStruct->GPIO_Pin) & pos);
     a24:	fc842783          	lw	a5,-56(s0)
     a28:	0007d783          	lhu	a5,0(a5)
     a2c:	873e                	mv	a4,a5
     a2e:	fdc42783          	lw	a5,-36(s0)
     a32:	8ff9                	and	a5,a5,a4
     a34:	fef42023          	sw	a5,-32(s0)
E:/桌面/19th智能车/单片机培训、考核/CH32V103_Library-master/Seekfree_CH32V103R8T6_Opensource_Library/Libraries/wch_Libraries/Peripheral/ch32v10x_gpio.c:140
			
      if (currentpin == pos)
     a38:	fe042703          	lw	a4,-32(s0)
     a3c:	fdc42783          	lw	a5,-36(s0)
     a40:	08f71263          	bne	a4,a5,ac4 <GPIO_Init+0x204>
E:/桌面/19th智能车/单片机培训、考核/CH32V103_Library-master/Seekfree_CH32V103R8T6_Opensource_Library/Libraries/wch_Libraries/Peripheral/ch32v10x_gpio.c:142
      {
        pos = pinpos << 2;
     a44:	fe842783          	lw	a5,-24(s0)
     a48:	078a                	slli	a5,a5,0x2
     a4a:	fcf42e23          	sw	a5,-36(s0)
E:/桌面/19th智能车/单片机培训、考核/CH32V103_Library-master/Seekfree_CH32V103R8T6_Opensource_Library/Libraries/wch_Libraries/Peripheral/ch32v10x_gpio.c:143
        pinmask = ((uint32_t)0x0F) << pos;
     a4e:	fdc42783          	lw	a5,-36(s0)
     a52:	473d                	li	a4,15
     a54:	00f717b3          	sll	a5,a4,a5
     a58:	fcf42c23          	sw	a5,-40(s0)
E:/桌面/19th智能车/单片机培训、考核/CH32V103_Library-master/Seekfree_CH32V103R8T6_Opensource_Library/Libraries/wch_Libraries/Peripheral/ch32v10x_gpio.c:144
        tmpreg &= ~pinmask;
     a5c:	fd842783          	lw	a5,-40(s0)
     a60:	fff7c793          	not	a5,a5
     a64:	fe442703          	lw	a4,-28(s0)
     a68:	8ff9                	and	a5,a5,a4
     a6a:	fef42223          	sw	a5,-28(s0)
E:/桌面/19th智能车/单片机培训、考核/CH32V103_Library-master/Seekfree_CH32V103R8T6_Opensource_Library/Libraries/wch_Libraries/Peripheral/ch32v10x_gpio.c:145
        tmpreg |= (currentmode << pos);
     a6e:	fdc42783          	lw	a5,-36(s0)
     a72:	fec42703          	lw	a4,-20(s0)
     a76:	00f717b3          	sll	a5,a4,a5
     a7a:	fe442703          	lw	a4,-28(s0)
     a7e:	8fd9                	or	a5,a5,a4
     a80:	fef42223          	sw	a5,-28(s0)
E:/桌面/19th智能车/单片机培训、考核/CH32V103_Library-master/Seekfree_CH32V103R8T6_Opensource_Library/Libraries/wch_Libraries/Peripheral/ch32v10x_gpio.c:147

        if (GPIO_InitStruct->GPIO_Mode == GPIO_Mode_IPD)
     a84:	fc842783          	lw	a5,-56(s0)
     a88:	4798                	lw	a4,8(a5)
     a8a:	02800793          	li	a5,40
     a8e:	00f71b63          	bne	a4,a5,aa4 <GPIO_Init+0x1e4>
E:/桌面/19th智能车/单片机培训、考核/CH32V103_Library-master/Seekfree_CH32V103R8T6_Opensource_Library/Libraries/wch_Libraries/Peripheral/ch32v10x_gpio.c:149
        {
          GPIOx->BCR = (((uint32_t)0x01) << (pinpos + 0x08));
     a92:	fe842783          	lw	a5,-24(s0)
     a96:	07a1                	addi	a5,a5,8
     a98:	4705                	li	a4,1
     a9a:	00f71733          	sll	a4,a4,a5
     a9e:	fcc42783          	lw	a5,-52(s0)
     aa2:	cbd8                	sw	a4,20(a5)
E:/桌面/19th智能车/单片机培训、考核/CH32V103_Library-master/Seekfree_CH32V103R8T6_Opensource_Library/Libraries/wch_Libraries/Peripheral/ch32v10x_gpio.c:152
        }

        if (GPIO_InitStruct->GPIO_Mode == GPIO_Mode_IPU)
     aa4:	fc842783          	lw	a5,-56(s0)
     aa8:	4798                	lw	a4,8(a5)
     aaa:	04800793          	li	a5,72
     aae:	00f71b63          	bne	a4,a5,ac4 <GPIO_Init+0x204>
E:/桌面/19th智能车/单片机培训、考核/CH32V103_Library-master/Seekfree_CH32V103R8T6_Opensource_Library/Libraries/wch_Libraries/Peripheral/ch32v10x_gpio.c:154
        {
          GPIOx->BSHR = (((uint32_t)0x01) << (pinpos + 0x08));
     ab2:	fe842783          	lw	a5,-24(s0)
     ab6:	07a1                	addi	a5,a5,8
     ab8:	4705                	li	a4,1
     aba:	00f71733          	sll	a4,a4,a5
     abe:	fcc42783          	lw	a5,-52(s0)
     ac2:	cb98                	sw	a4,16(a5)
E:/桌面/19th智能车/单片机培训、考核/CH32V103_Library-master/Seekfree_CH32V103R8T6_Opensource_Library/Libraries/wch_Libraries/Peripheral/ch32v10x_gpio.c:135 (discriminator 2)
    for (pinpos = 0x00; pinpos < 0x08; pinpos++)
     ac4:	fe842783          	lw	a5,-24(s0)
     ac8:	0785                	addi	a5,a5,1
     aca:	fef42423          	sw	a5,-24(s0)
E:/桌面/19th智能车/单片机培训、考核/CH32V103_Library-master/Seekfree_CH32V103R8T6_Opensource_Library/Libraries/wch_Libraries/Peripheral/ch32v10x_gpio.c:135 (discriminator 1)
     ace:	fe842703          	lw	a4,-24(s0)
     ad2:	479d                	li	a5,7
     ad4:	f4e7f0e3          	bgeu	a5,a4,a14 <GPIO_Init+0x154>
E:/桌面/19th智能车/单片机培训、考核/CH32V103_Library-master/Seekfree_CH32V103R8T6_Opensource_Library/Libraries/wch_Libraries/Peripheral/ch32v10x_gpio.c:158
        }
      }
    }
    GPIOx->CFGHR = tmpreg;
     ad8:	fcc42783          	lw	a5,-52(s0)
     adc:	fe442703          	lw	a4,-28(s0)
     ae0:	c3d8                	sw	a4,4(a5)
E:/桌面/19th智能车/单片机培训、考核/CH32V103_Library-master/Seekfree_CH32V103R8T6_Opensource_Library/Libraries/wch_Libraries/Peripheral/ch32v10x_gpio.c:160
  }
}
     ae2:	0001                	nop
     ae4:	5472                	lw	s0,60(sp)
     ae6:	6121                	addi	sp,sp,64
     ae8:	8082                	ret

00000aea <GPIO_WriteBit>:
GPIO_WriteBit():
E:/桌面/19th智能车/单片机培训、考核/CH32V103_Library-master/Seekfree_CH32V103R8T6_Opensource_Library/Libraries/wch_Libraries/Peripheral/ch32v10x_gpio.c:282
*                    Bit_SetL: to clear the port pin.
*                    Bit_SetH: to set the port pin.                  
* Return         : None
*******************************************************************************/
void GPIO_WriteBit(GPIO_TypeDef* GPIOx, uint16_t GPIO_Pin, BitAction BitVal)
{
     aea:	1101                	addi	sp,sp,-32
     aec:	ce22                	sw	s0,28(sp)
     aee:	1000                	addi	s0,sp,32
     af0:	fea42623          	sw	a0,-20(s0)
     af4:	87ae                	mv	a5,a1
     af6:	fec42223          	sw	a2,-28(s0)
     afa:	fef41523          	sh	a5,-22(s0)
E:/桌面/19th智能车/单片机培训、考核/CH32V103_Library-master/Seekfree_CH32V103R8T6_Opensource_Library/Libraries/wch_Libraries/Peripheral/ch32v10x_gpio.c:283
  if (BitVal != Bit_RESET)
     afe:	fe442783          	lw	a5,-28(s0)
     b02:	c799                	beqz	a5,b10 <GPIO_WriteBit+0x26>
E:/桌面/19th智能车/单片机培训、考核/CH32V103_Library-master/Seekfree_CH32V103R8T6_Opensource_Library/Libraries/wch_Libraries/Peripheral/ch32v10x_gpio.c:285
  {
    GPIOx->BSHR = GPIO_Pin;
     b04:	fea45703          	lhu	a4,-22(s0)
     b08:	fec42783          	lw	a5,-20(s0)
     b0c:	cb98                	sw	a4,16(a5)
E:/桌面/19th智能车/单片机培训、考核/CH32V103_Library-master/Seekfree_CH32V103R8T6_Opensource_Library/Libraries/wch_Libraries/Peripheral/ch32v10x_gpio.c:291
  }
  else
  {
    GPIOx->BCR = GPIO_Pin;
  }
}
     b0e:	a031                	j	b1a <GPIO_WriteBit+0x30>
E:/桌面/19th智能车/单片机培训、考核/CH32V103_Library-master/Seekfree_CH32V103R8T6_Opensource_Library/Libraries/wch_Libraries/Peripheral/ch32v10x_gpio.c:289
    GPIOx->BCR = GPIO_Pin;
     b10:	fea45703          	lhu	a4,-22(s0)
     b14:	fec42783          	lw	a5,-20(s0)
     b18:	cbd8                	sw	a4,20(a5)
E:/桌面/19th智能车/单片机培训、考核/CH32V103_Library-master/Seekfree_CH32V103R8T6_Opensource_Library/Libraries/wch_Libraries/Peripheral/ch32v10x_gpio.c:291
}
     b1a:	0001                	nop
     b1c:	4472                	lw	s0,28(sp)
     b1e:	6105                	addi	sp,sp,32
     b20:	8082                	ret

00000b22 <GPIO_PinRemapConfig>:
GPIO_PinRemapConfig():
E:/桌面/19th智能车/单片机培训、考核/CH32V103_Library-master/Seekfree_CH32V103R8T6_Opensource_Library/Libraries/wch_Libraries/Peripheral/ch32v10x_gpio.c:402
*      only for High density Value line devices)     
*                  NewState: ENABLE or DISABLE.             
* Return         : None
*******************************************************************************/
void GPIO_PinRemapConfig(uint32_t GPIO_Remap, FunctionalState NewState)
{
     b22:	7179                	addi	sp,sp,-48
     b24:	d622                	sw	s0,44(sp)
     b26:	1800                	addi	s0,sp,48
     b28:	fca42e23          	sw	a0,-36(s0)
     b2c:	fcb42c23          	sw	a1,-40(s0)
E:/桌面/19th智能车/单片机培训、考核/CH32V103_Library-master/Seekfree_CH32V103R8T6_Opensource_Library/Libraries/wch_Libraries/Peripheral/ch32v10x_gpio.c:403
  uint32_t tmp = 0x00, tmp1 = 0x00, tmpreg = 0x00, tmpmask = 0x00;
     b30:	fe042423          	sw	zero,-24(s0)
     b34:	fe042223          	sw	zero,-28(s0)
     b38:	fe042623          	sw	zero,-20(s0)
     b3c:	fe042023          	sw	zero,-32(s0)
E:/桌面/19th智能车/单片机培训、考核/CH32V103_Library-master/Seekfree_CH32V103R8T6_Opensource_Library/Libraries/wch_Libraries/Peripheral/ch32v10x_gpio.c:405

  if((GPIO_Remap & 0x80000000) == 0x80000000)
     b40:	fdc42783          	lw	a5,-36(s0)
     b44:	0007d863          	bgez	a5,b54 <GPIO_PinRemapConfig+0x32>
E:/桌面/19th智能车/单片机培训、考核/CH32V103_Library-master/Seekfree_CH32V103R8T6_Opensource_Library/Libraries/wch_Libraries/Peripheral/ch32v10x_gpio.c:407
  {
    tmpreg = AFIO->PCFR2;
     b48:	400107b7          	lui	a5,0x40010
     b4c:	4fdc                	lw	a5,28(a5)
     b4e:	fef42623          	sw	a5,-20(s0)
     b52:	a031                	j	b5e <GPIO_PinRemapConfig+0x3c>
E:/桌面/19th智能车/单片机培训、考核/CH32V103_Library-master/Seekfree_CH32V103R8T6_Opensource_Library/Libraries/wch_Libraries/Peripheral/ch32v10x_gpio.c:411
  }
  else
  {
    tmpreg = AFIO->PCFR1;
     b54:	400107b7          	lui	a5,0x40010
     b58:	43dc                	lw	a5,4(a5)
     b5a:	fef42623          	sw	a5,-20(s0)
E:/桌面/19th智能车/单片机培训、考核/CH32V103_Library-master/Seekfree_CH32V103R8T6_Opensource_Library/Libraries/wch_Libraries/Peripheral/ch32v10x_gpio.c:414
  }

  tmpmask = (GPIO_Remap & DBGAFR_POSITION_MASK) >> 0x10;
     b5e:	fdc42783          	lw	a5,-36(s0)
     b62:	83c1                	srli	a5,a5,0x10
     b64:	8bbd                	andi	a5,a5,15
     b66:	fef42023          	sw	a5,-32(s0)
E:/桌面/19th智能车/单片机培训、考核/CH32V103_Library-master/Seekfree_CH32V103R8T6_Opensource_Library/Libraries/wch_Libraries/Peripheral/ch32v10x_gpio.c:415
  tmp = GPIO_Remap & LSB_MASK;
     b6a:	fdc42703          	lw	a4,-36(s0)
     b6e:	67c1                	lui	a5,0x10
     b70:	17fd                	addi	a5,a5,-1
     b72:	8ff9                	and	a5,a5,a4
     b74:	fef42423          	sw	a5,-24(s0)
E:/桌面/19th智能车/单片机培训、考核/CH32V103_Library-master/Seekfree_CH32V103R8T6_Opensource_Library/Libraries/wch_Libraries/Peripheral/ch32v10x_gpio.c:417

  if ((GPIO_Remap & (DBGAFR_LOCATION_MASK | DBGAFR_NUMBITS_MASK)) == (DBGAFR_LOCATION_MASK | DBGAFR_NUMBITS_MASK))
     b78:	fdc42703          	lw	a4,-36(s0)
     b7c:	003007b7          	lui	a5,0x300
     b80:	8f7d                	and	a4,a4,a5
     b82:	003007b7          	lui	a5,0x300
     b86:	02f71563          	bne	a4,a5,bb0 <GPIO_PinRemapConfig+0x8e>
E:/桌面/19th智能车/单片机培训、考核/CH32V103_Library-master/Seekfree_CH32V103R8T6_Opensource_Library/Libraries/wch_Libraries/Peripheral/ch32v10x_gpio.c:419
  {
    tmpreg &= DBGAFR_SWJCFG_MASK;
     b8a:	fec42703          	lw	a4,-20(s0)
     b8e:	f10007b7          	lui	a5,0xf1000
     b92:	17fd                	addi	a5,a5,-1
     b94:	8ff9                	and	a5,a5,a4
     b96:	fef42623          	sw	a5,-20(s0)
E:/桌面/19th智能车/单片机培训、考核/CH32V103_Library-master/Seekfree_CH32V103R8T6_Opensource_Library/Libraries/wch_Libraries/Peripheral/ch32v10x_gpio.c:420
    AFIO->PCFR1 &= DBGAFR_SWJCFG_MASK;
     b9a:	400107b7          	lui	a5,0x40010
     b9e:	43d4                	lw	a3,4(a5)
     ba0:	400107b7          	lui	a5,0x40010
     ba4:	f1000737          	lui	a4,0xf1000
     ba8:	177d                	addi	a4,a4,-1
     baa:	8f75                	and	a4,a4,a3
     bac:	c3d8                	sw	a4,4(a5)
     bae:	a0ad                	j	c18 <GPIO_PinRemapConfig+0xf6>
E:/桌面/19th智能车/单片机培训、考核/CH32V103_Library-master/Seekfree_CH32V103R8T6_Opensource_Library/Libraries/wch_Libraries/Peripheral/ch32v10x_gpio.c:422
  }
  else if ((GPIO_Remap & DBGAFR_NUMBITS_MASK) == DBGAFR_NUMBITS_MASK)
     bb0:	fdc42703          	lw	a4,-36(s0)
     bb4:	001007b7          	lui	a5,0x100
     bb8:	8ff9                	and	a5,a5,a4
     bba:	cb8d                	beqz	a5,bec <GPIO_PinRemapConfig+0xca>
E:/桌面/19th智能车/单片机培训、考核/CH32V103_Library-master/Seekfree_CH32V103R8T6_Opensource_Library/Libraries/wch_Libraries/Peripheral/ch32v10x_gpio.c:424
  {
    tmp1 = ((uint32_t)0x03) << tmpmask;
     bbc:	fe042783          	lw	a5,-32(s0)
     bc0:	470d                	li	a4,3
     bc2:	00f717b3          	sll	a5,a4,a5
     bc6:	fef42223          	sw	a5,-28(s0)
E:/桌面/19th智能车/单片机培训、考核/CH32V103_Library-master/Seekfree_CH32V103R8T6_Opensource_Library/Libraries/wch_Libraries/Peripheral/ch32v10x_gpio.c:425
    tmpreg &= ~tmp1;
     bca:	fe442783          	lw	a5,-28(s0)
     bce:	fff7c793          	not	a5,a5
     bd2:	fec42703          	lw	a4,-20(s0)
     bd6:	8ff9                	and	a5,a5,a4
     bd8:	fef42623          	sw	a5,-20(s0)
E:/桌面/19th智能车/单片机培训、考核/CH32V103_Library-master/Seekfree_CH32V103R8T6_Opensource_Library/Libraries/wch_Libraries/Peripheral/ch32v10x_gpio.c:426
    tmpreg |= ~DBGAFR_SWJCFG_MASK;
     bdc:	fec42703          	lw	a4,-20(s0)
     be0:	0f0007b7          	lui	a5,0xf000
     be4:	8fd9                	or	a5,a5,a4
     be6:	fef42623          	sw	a5,-20(s0)
     bea:	a03d                	j	c18 <GPIO_PinRemapConfig+0xf6>
E:/桌面/19th智能车/单片机培训、考核/CH32V103_Library-master/Seekfree_CH32V103R8T6_Opensource_Library/Libraries/wch_Libraries/Peripheral/ch32v10x_gpio.c:430
  }
  else
  {
    tmpreg &= ~(tmp << ((GPIO_Remap >> 0x15)*0x10));
     bec:	fdc42783          	lw	a5,-36(s0)
     bf0:	83d5                	srli	a5,a5,0x15
     bf2:	0792                	slli	a5,a5,0x4
     bf4:	fe842703          	lw	a4,-24(s0)
     bf8:	00f717b3          	sll	a5,a4,a5
     bfc:	fff7c793          	not	a5,a5
     c00:	fec42703          	lw	a4,-20(s0)
     c04:	8ff9                	and	a5,a5,a4
     c06:	fef42623          	sw	a5,-20(s0)
E:/桌面/19th智能车/单片机培训、考核/CH32V103_Library-master/Seekfree_CH32V103R8T6_Opensource_Library/Libraries/wch_Libraries/Peripheral/ch32v10x_gpio.c:431
    tmpreg |= ~DBGAFR_SWJCFG_MASK;
     c0a:	fec42703          	lw	a4,-20(s0)
     c0e:	0f0007b7          	lui	a5,0xf000
     c12:	8fd9                	or	a5,a5,a4
     c14:	fef42623          	sw	a5,-20(s0)
E:/桌面/19th智能车/单片机培训、考核/CH32V103_Library-master/Seekfree_CH32V103R8T6_Opensource_Library/Libraries/wch_Libraries/Peripheral/ch32v10x_gpio.c:434
  }

  if (NewState != DISABLE)
     c18:	fd842783          	lw	a5,-40(s0)
     c1c:	cf91                	beqz	a5,c38 <GPIO_PinRemapConfig+0x116>
E:/桌面/19th智能车/单片机培训、考核/CH32V103_Library-master/Seekfree_CH32V103R8T6_Opensource_Library/Libraries/wch_Libraries/Peripheral/ch32v10x_gpio.c:436
  {
    tmpreg |= (tmp << ((GPIO_Remap >> 0x15)*0x10));
     c1e:	fdc42783          	lw	a5,-36(s0)
     c22:	83d5                	srli	a5,a5,0x15
     c24:	0792                	slli	a5,a5,0x4
     c26:	fe842703          	lw	a4,-24(s0)
     c2a:	00f717b3          	sll	a5,a4,a5
     c2e:	fec42703          	lw	a4,-20(s0)
     c32:	8fd9                	or	a5,a5,a4
     c34:	fef42623          	sw	a5,-20(s0)
E:/桌面/19th智能车/单片机培训、考核/CH32V103_Library-master/Seekfree_CH32V103R8T6_Opensource_Library/Libraries/wch_Libraries/Peripheral/ch32v10x_gpio.c:439
  }

  if((GPIO_Remap & 0x80000000) == 0x80000000)
     c38:	fdc42783          	lw	a5,-36(s0)
     c3c:	0007d863          	bgez	a5,c4c <GPIO_PinRemapConfig+0x12a>
E:/桌面/19th智能车/单片机培训、考核/CH32V103_Library-master/Seekfree_CH32V103R8T6_Opensource_Library/Libraries/wch_Libraries/Peripheral/ch32v10x_gpio.c:441
  {
    AFIO->PCFR2 = tmpreg;
     c40:	400107b7          	lui	a5,0x40010
     c44:	fec42703          	lw	a4,-20(s0)
     c48:	cfd8                	sw	a4,28(a5)
E:/桌面/19th智能车/单片机培训、考核/CH32V103_Library-master/Seekfree_CH32V103R8T6_Opensource_Library/Libraries/wch_Libraries/Peripheral/ch32v10x_gpio.c:447
  }
  else
  {
    AFIO->PCFR1 = tmpreg;
  }  
}
     c4a:	a031                	j	c56 <GPIO_PinRemapConfig+0x134>
E:/桌面/19th智能车/单片机培训、考核/CH32V103_Library-master/Seekfree_CH32V103R8T6_Opensource_Library/Libraries/wch_Libraries/Peripheral/ch32v10x_gpio.c:445
    AFIO->PCFR1 = tmpreg;
     c4c:	400107b7          	lui	a5,0x40010
     c50:	fec42703          	lw	a4,-20(s0)
     c54:	c3d8                	sw	a4,4(a5)
E:/桌面/19th智能车/单片机培训、考核/CH32V103_Library-master/Seekfree_CH32V103R8T6_Opensource_Library/Libraries/wch_Libraries/Peripheral/ch32v10x_gpio.c:447
}
     c56:	0001                	nop
     c58:	5432                	lw	s0,44(sp)
     c5a:	6145                	addi	sp,sp,48
     c5c:	8082                	ret

00000c5e <RCC_ADCCLKConfig>:
RCC_ADCCLKConfig():
E:/桌面/19th智能车/单片机培训、考核/CH32V103_Library-master/Seekfree_CH32V103R8T6_Opensource_Library/Libraries/wch_Libraries/Peripheral/ch32v10x_rcc.c:373
*                    RCC_PCLK2_Div6: ADC clock = PCLK2/6.
*                    RCC_PCLK2_Div8: ADC clock = PCLK2/8.
* Return         : None
********************************************************************************/
void RCC_ADCCLKConfig(uint32_t RCC_PCLK2)
{
     c5e:	7179                	addi	sp,sp,-48
     c60:	d622                	sw	s0,44(sp)
     c62:	1800                	addi	s0,sp,48
     c64:	fca42e23          	sw	a0,-36(s0)
E:/桌面/19th智能车/单片机培训、考核/CH32V103_Library-master/Seekfree_CH32V103R8T6_Opensource_Library/Libraries/wch_Libraries/Peripheral/ch32v10x_rcc.c:374
  uint32_t tmpreg = 0;
     c68:	fe042623          	sw	zero,-20(s0)
E:/桌面/19th智能车/单片机培训、考核/CH32V103_Library-master/Seekfree_CH32V103R8T6_Opensource_Library/Libraries/wch_Libraries/Peripheral/ch32v10x_rcc.c:376

  tmpreg = RCC->CFGR0;
     c6c:	400217b7          	lui	a5,0x40021
     c70:	43dc                	lw	a5,4(a5)
     c72:	fef42623          	sw	a5,-20(s0)
E:/桌面/19th智能车/单片机培训、考核/CH32V103_Library-master/Seekfree_CH32V103R8T6_Opensource_Library/Libraries/wch_Libraries/Peripheral/ch32v10x_rcc.c:377
  tmpreg &= CFGR0_ADCPRE_Reset_Mask;
     c76:	fec42703          	lw	a4,-20(s0)
     c7a:	77d1                	lui	a5,0xffff4
     c7c:	17fd                	addi	a5,a5,-1
     c7e:	8ff9                	and	a5,a5,a4
     c80:	fef42623          	sw	a5,-20(s0)
E:/桌面/19th智能车/单片机培训、考核/CH32V103_Library-master/Seekfree_CH32V103R8T6_Opensource_Library/Libraries/wch_Libraries/Peripheral/ch32v10x_rcc.c:378
  tmpreg |= RCC_PCLK2;
     c84:	fec42703          	lw	a4,-20(s0)
     c88:	fdc42783          	lw	a5,-36(s0)
     c8c:	8fd9                	or	a5,a5,a4
     c8e:	fef42623          	sw	a5,-20(s0)
E:/桌面/19th智能车/单片机培训、考核/CH32V103_Library-master/Seekfree_CH32V103R8T6_Opensource_Library/Libraries/wch_Libraries/Peripheral/ch32v10x_rcc.c:379
  RCC->CFGR0 = tmpreg;
     c92:	400217b7          	lui	a5,0x40021
     c96:	fec42703          	lw	a4,-20(s0)
     c9a:	c3d8                	sw	a4,4(a5)
E:/桌面/19th智能车/单片机培训、考核/CH32V103_Library-master/Seekfree_CH32V103R8T6_Opensource_Library/Libraries/wch_Libraries/Peripheral/ch32v10x_rcc.c:380
}
     c9c:	0001                	nop
     c9e:	5432                	lw	s0,44(sp)
     ca0:	6145                	addi	sp,sp,48
     ca2:	8082                	ret

00000ca4 <RCC_GetClocksFreq>:
RCC_GetClocksFreq():
E:/桌面/19th智能车/单片机培训、考核/CH32V103_Library-master/Seekfree_CH32V103R8T6_Opensource_Library/Libraries/wch_Libraries/Peripheral/ch32v10x_rcc.c:469
* Input          : The result of this function could be not correct when using
*      fractional value for HSE crystal.
* Return         : None
********************************************************************************/
void RCC_GetClocksFreq(RCC_ClocksTypeDef* RCC_Clocks)
{
     ca4:	7179                	addi	sp,sp,-48
     ca6:	d622                	sw	s0,44(sp)
     ca8:	1800                	addi	s0,sp,48
     caa:	fca42e23          	sw	a0,-36(s0)
E:/桌面/19th智能车/单片机培训、考核/CH32V103_Library-master/Seekfree_CH32V103R8T6_Opensource_Library/Libraries/wch_Libraries/Peripheral/ch32v10x_rcc.c:470
  uint32_t tmp = 0, pllmull = 0, pllsource = 0, presc = 0;
     cae:	fe042623          	sw	zero,-20(s0)
     cb2:	fe042423          	sw	zero,-24(s0)
     cb6:	fe042223          	sw	zero,-28(s0)
     cba:	fe042023          	sw	zero,-32(s0)
E:/桌面/19th智能车/单片机培训、考核/CH32V103_Library-master/Seekfree_CH32V103R8T6_Opensource_Library/Libraries/wch_Libraries/Peripheral/ch32v10x_rcc.c:472
  
  tmp = RCC->CFGR0 & CFGR0_SWS_Mask;
     cbe:	400217b7          	lui	a5,0x40021
     cc2:	43dc                	lw	a5,4(a5)
     cc4:	8bb1                	andi	a5,a5,12
     cc6:	fef42623          	sw	a5,-20(s0)
     cca:	fec42703          	lw	a4,-20(s0)
     cce:	4791                	li	a5,4
     cd0:	02f70263          	beq	a4,a5,cf4 <RCC_GetClocksFreq+0x50>
     cd4:	fec42703          	lw	a4,-20(s0)
     cd8:	47a1                	li	a5,8
     cda:	02f70563          	beq	a4,a5,d04 <RCC_GetClocksFreq+0x60>
     cde:	fec42783          	lw	a5,-20(s0)
     ce2:	e7c5                	bnez	a5,d8a <RCC_GetClocksFreq+0xe6>
E:/桌面/19th智能车/单片机培训、考核/CH32V103_Library-master/Seekfree_CH32V103R8T6_Opensource_Library/Libraries/wch_Libraries/Peripheral/ch32v10x_rcc.c:477
  
  switch (tmp)
  {
    case 0x00: 
      RCC_Clocks->SYSCLK_Frequency = HSI_VALUE;
     ce4:	fdc42783          	lw	a5,-36(s0)
     ce8:	007a1737          	lui	a4,0x7a1
     cec:	20070713          	addi	a4,a4,512 # 7a1200 <_data_lma+0x799500>
     cf0:	c398                	sw	a4,0(a5)
E:/桌面/19th智能车/单片机培训、考核/CH32V103_Library-master/Seekfree_CH32V103R8T6_Opensource_Library/Libraries/wch_Libraries/Peripheral/ch32v10x_rcc.c:478
      break;
     cf2:	a065                	j	d9a <RCC_GetClocksFreq+0xf6>
E:/桌面/19th智能车/单片机培训、考核/CH32V103_Library-master/Seekfree_CH32V103R8T6_Opensource_Library/Libraries/wch_Libraries/Peripheral/ch32v10x_rcc.c:481
		
    case 0x04:
      RCC_Clocks->SYSCLK_Frequency = HSE_VALUE;
     cf4:	fdc42783          	lw	a5,-36(s0)
     cf8:	007a1737          	lui	a4,0x7a1
     cfc:	20070713          	addi	a4,a4,512 # 7a1200 <_data_lma+0x799500>
     d00:	c398                	sw	a4,0(a5)
E:/桌面/19th智能车/单片机培训、考核/CH32V103_Library-master/Seekfree_CH32V103R8T6_Opensource_Library/Libraries/wch_Libraries/Peripheral/ch32v10x_rcc.c:482
      break;
     d02:	a861                	j	d9a <RCC_GetClocksFreq+0xf6>
E:/桌面/19th智能车/单片机培训、考核/CH32V103_Library-master/Seekfree_CH32V103R8T6_Opensource_Library/Libraries/wch_Libraries/Peripheral/ch32v10x_rcc.c:485
		
    case 0x08:
      pllmull = RCC->CFGR0 & CFGR0_PLLMull_Mask;
     d04:	400217b7          	lui	a5,0x40021
     d08:	43d8                	lw	a4,4(a5)
     d0a:	003c07b7          	lui	a5,0x3c0
     d0e:	8ff9                	and	a5,a5,a4
     d10:	fef42423          	sw	a5,-24(s0)
E:/桌面/19th智能车/单片机培训、考核/CH32V103_Library-master/Seekfree_CH32V103R8T6_Opensource_Library/Libraries/wch_Libraries/Peripheral/ch32v10x_rcc.c:486
      pllsource = RCC->CFGR0 & CFGR0_PLLSRC_Mask;    
     d14:	400217b7          	lui	a5,0x40021
     d18:	43d8                	lw	a4,4(a5)
     d1a:	67c1                	lui	a5,0x10
     d1c:	8ff9                	and	a5,a5,a4
     d1e:	fef42223          	sw	a5,-28(s0)
E:/桌面/19th智能车/单片机培训、考核/CH32V103_Library-master/Seekfree_CH32V103R8T6_Opensource_Library/Libraries/wch_Libraries/Peripheral/ch32v10x_rcc.c:487
      pllmull = ( pllmull >> 18) + 2;
     d22:	fe842783          	lw	a5,-24(s0)
     d26:	83c9                	srli	a5,a5,0x12
     d28:	0789                	addi	a5,a5,2
     d2a:	fef42423          	sw	a5,-24(s0)
E:/桌面/19th智能车/单片机培训、考核/CH32V103_Library-master/Seekfree_CH32V103R8T6_Opensource_Library/Libraries/wch_Libraries/Peripheral/ch32v10x_rcc.c:489
      
      if (pllsource == 0x00)
     d2e:	fe442783          	lw	a5,-28(s0)
     d32:	ef89                	bnez	a5,d4c <RCC_GetClocksFreq+0xa8>
E:/桌面/19th智能车/单片机培训、考核/CH32V103_Library-master/Seekfree_CH32V103R8T6_Opensource_Library/Libraries/wch_Libraries/Peripheral/ch32v10x_rcc.c:491
      {
        RCC_Clocks->SYSCLK_Frequency = (HSI_VALUE >> 1) * pllmull;
     d34:	fe842703          	lw	a4,-24(s0)
     d38:	003d17b7          	lui	a5,0x3d1
     d3c:	90078793          	addi	a5,a5,-1792 # 3d0900 <_data_lma+0x3c8c00>
     d40:	02f70733          	mul	a4,a4,a5
     d44:	fdc42783          	lw	a5,-36(s0)
     d48:	c398                	sw	a4,0(a5)
E:/桌面/19th智能车/单片机培训、考核/CH32V103_Library-master/Seekfree_CH32V103R8T6_Opensource_Library/Libraries/wch_Libraries/Peripheral/ch32v10x_rcc.c:504
        else
        {
          RCC_Clocks->SYSCLK_Frequency = HSE_VALUE * pllmull;
        }
      } 
      break;
     d4a:	a881                	j	d9a <RCC_GetClocksFreq+0xf6>
E:/桌面/19th智能车/单片机培训、考核/CH32V103_Library-master/Seekfree_CH32V103R8T6_Opensource_Library/Libraries/wch_Libraries/Peripheral/ch32v10x_rcc.c:495
        if ((RCC->CFGR0 & CFGR0_PLLXTPRE_Mask) != (uint32_t)RESET)
     d4c:	400217b7          	lui	a5,0x40021
     d50:	43d8                	lw	a4,4(a5)
     d52:	000207b7          	lui	a5,0x20
     d56:	8ff9                	and	a5,a5,a4
     d58:	cf89                	beqz	a5,d72 <RCC_GetClocksFreq+0xce>
E:/桌面/19th智能车/单片机培训、考核/CH32V103_Library-master/Seekfree_CH32V103R8T6_Opensource_Library/Libraries/wch_Libraries/Peripheral/ch32v10x_rcc.c:497
          RCC_Clocks->SYSCLK_Frequency = (HSE_VALUE >> 1) * pllmull;
     d5a:	fe842703          	lw	a4,-24(s0)
     d5e:	003d17b7          	lui	a5,0x3d1
     d62:	90078793          	addi	a5,a5,-1792 # 3d0900 <_data_lma+0x3c8c00>
     d66:	02f70733          	mul	a4,a4,a5
     d6a:	fdc42783          	lw	a5,-36(s0)
     d6e:	c398                	sw	a4,0(a5)
E:/桌面/19th智能车/单片机培训、考核/CH32V103_Library-master/Seekfree_CH32V103R8T6_Opensource_Library/Libraries/wch_Libraries/Peripheral/ch32v10x_rcc.c:504
      break;
     d70:	a02d                	j	d9a <RCC_GetClocksFreq+0xf6>
E:/桌面/19th智能车/单片机培训、考核/CH32V103_Library-master/Seekfree_CH32V103R8T6_Opensource_Library/Libraries/wch_Libraries/Peripheral/ch32v10x_rcc.c:501
          RCC_Clocks->SYSCLK_Frequency = HSE_VALUE * pllmull;
     d72:	fe842703          	lw	a4,-24(s0)
     d76:	007a17b7          	lui	a5,0x7a1
     d7a:	20078793          	addi	a5,a5,512 # 7a1200 <_data_lma+0x799500>
     d7e:	02f70733          	mul	a4,a4,a5
     d82:	fdc42783          	lw	a5,-36(s0)
     d86:	c398                	sw	a4,0(a5)
E:/桌面/19th智能车/单片机培训、考核/CH32V103_Library-master/Seekfree_CH32V103R8T6_Opensource_Library/Libraries/wch_Libraries/Peripheral/ch32v10x_rcc.c:504
      break;
     d88:	a809                	j	d9a <RCC_GetClocksFreq+0xf6>
E:/桌面/19th智能车/单片机培训、考核/CH32V103_Library-master/Seekfree_CH32V103R8T6_Opensource_Library/Libraries/wch_Libraries/Peripheral/ch32v10x_rcc.c:507

    default:
      RCC_Clocks->SYSCLK_Frequency = HSI_VALUE;
     d8a:	fdc42783          	lw	a5,-36(s0)
     d8e:	007a1737          	lui	a4,0x7a1
     d92:	20070713          	addi	a4,a4,512 # 7a1200 <_data_lma+0x799500>
     d96:	c398                	sw	a4,0(a5)
E:/桌面/19th智能车/单片机培训、考核/CH32V103_Library-master/Seekfree_CH32V103R8T6_Opensource_Library/Libraries/wch_Libraries/Peripheral/ch32v10x_rcc.c:508
      break;
     d98:	0001                	nop
E:/桌面/19th智能车/单片机培训、考核/CH32V103_Library-master/Seekfree_CH32V103R8T6_Opensource_Library/Libraries/wch_Libraries/Peripheral/ch32v10x_rcc.c:511
  }

  tmp = RCC->CFGR0 & CFGR0_HPRE_Set_Mask;
     d9a:	400217b7          	lui	a5,0x40021
     d9e:	43dc                	lw	a5,4(a5)
     da0:	0f07f793          	andi	a5,a5,240
     da4:	fef42623          	sw	a5,-20(s0)
E:/桌面/19th智能车/单片机培训、考核/CH32V103_Library-master/Seekfree_CH32V103R8T6_Opensource_Library/Libraries/wch_Libraries/Peripheral/ch32v10x_rcc.c:512
  tmp = tmp >> 4;
     da8:	fec42783          	lw	a5,-20(s0)
     dac:	8391                	srli	a5,a5,0x4
     dae:	fef42623          	sw	a5,-20(s0)
E:/桌面/19th智能车/单片机培训、考核/CH32V103_Library-master/Seekfree_CH32V103R8T6_Opensource_Library/Libraries/wch_Libraries/Peripheral/ch32v10x_rcc.c:513
  presc = APBAHBPrescTable[tmp];
     db2:	200007b7          	lui	a5,0x20000
     db6:	00078713          	mv	a4,a5
     dba:	fec42783          	lw	a5,-20(s0)
     dbe:	97ba                	add	a5,a5,a4
     dc0:	0007c783          	lbu	a5,0(a5) # 20000000 <_data_vma>
     dc4:	0ff7f793          	andi	a5,a5,255
     dc8:	fef42023          	sw	a5,-32(s0)
E:/桌面/19th智能车/单片机培训、考核/CH32V103_Library-master/Seekfree_CH32V103R8T6_Opensource_Library/Libraries/wch_Libraries/Peripheral/ch32v10x_rcc.c:514
  RCC_Clocks->HCLK_Frequency = RCC_Clocks->SYSCLK_Frequency >> presc;
     dcc:	fdc42783          	lw	a5,-36(s0)
     dd0:	4398                	lw	a4,0(a5)
     dd2:	fe042783          	lw	a5,-32(s0)
     dd6:	00f75733          	srl	a4,a4,a5
     dda:	fdc42783          	lw	a5,-36(s0)
     dde:	c3d8                	sw	a4,4(a5)
E:/桌面/19th智能车/单片机培训、考核/CH32V103_Library-master/Seekfree_CH32V103R8T6_Opensource_Library/Libraries/wch_Libraries/Peripheral/ch32v10x_rcc.c:515
  tmp = RCC->CFGR0 & CFGR0_PPRE1_Set_Mask;
     de0:	400217b7          	lui	a5,0x40021
     de4:	43dc                	lw	a5,4(a5)
     de6:	7007f793          	andi	a5,a5,1792
     dea:	fef42623          	sw	a5,-20(s0)
E:/桌面/19th智能车/单片机培训、考核/CH32V103_Library-master/Seekfree_CH32V103R8T6_Opensource_Library/Libraries/wch_Libraries/Peripheral/ch32v10x_rcc.c:516
  tmp = tmp >> 8;
     dee:	fec42783          	lw	a5,-20(s0)
     df2:	83a1                	srli	a5,a5,0x8
     df4:	fef42623          	sw	a5,-20(s0)
E:/桌面/19th智能车/单片机培训、考核/CH32V103_Library-master/Seekfree_CH32V103R8T6_Opensource_Library/Libraries/wch_Libraries/Peripheral/ch32v10x_rcc.c:517
  presc = APBAHBPrescTable[tmp];
     df8:	200007b7          	lui	a5,0x20000
     dfc:	00078713          	mv	a4,a5
     e00:	fec42783          	lw	a5,-20(s0)
     e04:	97ba                	add	a5,a5,a4
     e06:	0007c783          	lbu	a5,0(a5) # 20000000 <_data_vma>
     e0a:	0ff7f793          	andi	a5,a5,255
     e0e:	fef42023          	sw	a5,-32(s0)
E:/桌面/19th智能车/单片机培训、考核/CH32V103_Library-master/Seekfree_CH32V103R8T6_Opensource_Library/Libraries/wch_Libraries/Peripheral/ch32v10x_rcc.c:518
  RCC_Clocks->PCLK1_Frequency = RCC_Clocks->HCLK_Frequency >> presc;
     e12:	fdc42783          	lw	a5,-36(s0)
     e16:	43d8                	lw	a4,4(a5)
     e18:	fe042783          	lw	a5,-32(s0)
     e1c:	00f75733          	srl	a4,a4,a5
     e20:	fdc42783          	lw	a5,-36(s0)
     e24:	c798                	sw	a4,8(a5)
E:/桌面/19th智能车/单片机培训、考核/CH32V103_Library-master/Seekfree_CH32V103R8T6_Opensource_Library/Libraries/wch_Libraries/Peripheral/ch32v10x_rcc.c:519
  tmp = RCC->CFGR0 & CFGR0_PPRE2_Set_Mask;
     e26:	400217b7          	lui	a5,0x40021
     e2a:	43d8                	lw	a4,4(a5)
     e2c:	6791                	lui	a5,0x4
     e2e:	80078793          	addi	a5,a5,-2048 # 3800 <timer_pwm_init+0xbc>
     e32:	8ff9                	and	a5,a5,a4
     e34:	fef42623          	sw	a5,-20(s0)
E:/桌面/19th智能车/单片机培训、考核/CH32V103_Library-master/Seekfree_CH32V103R8T6_Opensource_Library/Libraries/wch_Libraries/Peripheral/ch32v10x_rcc.c:520
  tmp = tmp >> 11;
     e38:	fec42783          	lw	a5,-20(s0)
     e3c:	83ad                	srli	a5,a5,0xb
     e3e:	fef42623          	sw	a5,-20(s0)
E:/桌面/19th智能车/单片机培训、考核/CH32V103_Library-master/Seekfree_CH32V103R8T6_Opensource_Library/Libraries/wch_Libraries/Peripheral/ch32v10x_rcc.c:521
  presc = APBAHBPrescTable[tmp];
     e42:	200007b7          	lui	a5,0x20000
     e46:	00078713          	mv	a4,a5
     e4a:	fec42783          	lw	a5,-20(s0)
     e4e:	97ba                	add	a5,a5,a4
     e50:	0007c783          	lbu	a5,0(a5) # 20000000 <_data_vma>
     e54:	0ff7f793          	andi	a5,a5,255
     e58:	fef42023          	sw	a5,-32(s0)
E:/桌面/19th智能车/单片机培训、考核/CH32V103_Library-master/Seekfree_CH32V103R8T6_Opensource_Library/Libraries/wch_Libraries/Peripheral/ch32v10x_rcc.c:522
  RCC_Clocks->PCLK2_Frequency = RCC_Clocks->HCLK_Frequency >> presc;
     e5c:	fdc42783          	lw	a5,-36(s0)
     e60:	43d8                	lw	a4,4(a5)
     e62:	fe042783          	lw	a5,-32(s0)
     e66:	00f75733          	srl	a4,a4,a5
     e6a:	fdc42783          	lw	a5,-36(s0)
     e6e:	c7d8                	sw	a4,12(a5)
E:/桌面/19th智能车/单片机培训、考核/CH32V103_Library-master/Seekfree_CH32V103R8T6_Opensource_Library/Libraries/wch_Libraries/Peripheral/ch32v10x_rcc.c:523
  tmp = RCC->CFGR0 & CFGR0_ADCPRE_Set_Mask;
     e70:	400217b7          	lui	a5,0x40021
     e74:	43d8                	lw	a4,4(a5)
     e76:	67b1                	lui	a5,0xc
     e78:	8ff9                	and	a5,a5,a4
     e7a:	fef42623          	sw	a5,-20(s0)
E:/桌面/19th智能车/单片机培训、考核/CH32V103_Library-master/Seekfree_CH32V103R8T6_Opensource_Library/Libraries/wch_Libraries/Peripheral/ch32v10x_rcc.c:524
  tmp = tmp >> 14;
     e7e:	fec42783          	lw	a5,-20(s0)
     e82:	83b9                	srli	a5,a5,0xe
     e84:	fef42623          	sw	a5,-20(s0)
E:/桌面/19th智能车/单片机培训、考核/CH32V103_Library-master/Seekfree_CH32V103R8T6_Opensource_Library/Libraries/wch_Libraries/Peripheral/ch32v10x_rcc.c:525
  presc = ADCPrescTable[tmp];
     e88:	200007b7          	lui	a5,0x20000
     e8c:	07078713          	addi	a4,a5,112 # 20000070 <ADCPrescTable>
     e90:	fec42783          	lw	a5,-20(s0)
     e94:	97ba                	add	a5,a5,a4
     e96:	0007c783          	lbu	a5,0(a5)
     e9a:	0ff7f793          	andi	a5,a5,255
     e9e:	fef42023          	sw	a5,-32(s0)
E:/桌面/19th智能车/单片机培训、考核/CH32V103_Library-master/Seekfree_CH32V103R8T6_Opensource_Library/Libraries/wch_Libraries/Peripheral/ch32v10x_rcc.c:526
  RCC_Clocks->ADCCLK_Frequency = RCC_Clocks->PCLK2_Frequency / presc;
     ea2:	fdc42783          	lw	a5,-36(s0)
     ea6:	47d8                	lw	a4,12(a5)
     ea8:	fe042783          	lw	a5,-32(s0)
     eac:	02f75733          	divu	a4,a4,a5
     eb0:	fdc42783          	lw	a5,-36(s0)
     eb4:	cb98                	sw	a4,16(a5)
E:/桌面/19th智能车/单片机培训、考核/CH32V103_Library-master/Seekfree_CH32V103R8T6_Opensource_Library/Libraries/wch_Libraries/Peripheral/ch32v10x_rcc.c:527
}
     eb6:	0001                	nop
     eb8:	5432                	lw	s0,44(sp)
     eba:	6145                	addi	sp,sp,48
     ebc:	8082                	ret

00000ebe <RCC_APB2PeriphClockCmd>:
RCC_APB2PeriphClockCmd():
E:/桌面/19th智能车/单片机培训、考核/CH32V103_Library-master/Seekfree_CH32V103R8T6_Opensource_Library/Libraries/wch_Libraries/Peripheral/ch32v10x_rcc.c:570
*                    RCC_APB2Periph_USART1.
*                  NewState: ENABLE or DISABLE
* Return         : None
*******************************************************************************/	
void RCC_APB2PeriphClockCmd(uint32_t RCC_APB2Periph, FunctionalState NewState)
{
     ebe:	1101                	addi	sp,sp,-32
     ec0:	ce22                	sw	s0,28(sp)
     ec2:	1000                	addi	s0,sp,32
     ec4:	fea42623          	sw	a0,-20(s0)
     ec8:	feb42423          	sw	a1,-24(s0)
E:/桌面/19th智能车/单片机培训、考核/CH32V103_Library-master/Seekfree_CH32V103R8T6_Opensource_Library/Libraries/wch_Libraries/Peripheral/ch32v10x_rcc.c:571
  if (NewState != DISABLE)
     ecc:	fe842783          	lw	a5,-24(s0)
     ed0:	cb99                	beqz	a5,ee6 <RCC_APB2PeriphClockCmd+0x28>
E:/桌面/19th智能车/单片机培训、考核/CH32V103_Library-master/Seekfree_CH32V103R8T6_Opensource_Library/Libraries/wch_Libraries/Peripheral/ch32v10x_rcc.c:573
  {
    RCC->APB2PCENR |= RCC_APB2Periph;
     ed2:	400217b7          	lui	a5,0x40021
     ed6:	4f94                	lw	a3,24(a5)
     ed8:	400217b7          	lui	a5,0x40021
     edc:	fec42703          	lw	a4,-20(s0)
     ee0:	8f55                	or	a4,a4,a3
     ee2:	cf98                	sw	a4,24(a5)
E:/桌面/19th智能车/单片机培训、考核/CH32V103_Library-master/Seekfree_CH32V103R8T6_Opensource_Library/Libraries/wch_Libraries/Peripheral/ch32v10x_rcc.c:579
  }
  else
  {
    RCC->APB2PCENR &= ~RCC_APB2Periph;
  }
}
     ee4:	a821                	j	efc <RCC_APB2PeriphClockCmd+0x3e>
E:/桌面/19th智能车/单片机培训、考核/CH32V103_Library-master/Seekfree_CH32V103R8T6_Opensource_Library/Libraries/wch_Libraries/Peripheral/ch32v10x_rcc.c:577
    RCC->APB2PCENR &= ~RCC_APB2Periph;
     ee6:	400217b7          	lui	a5,0x40021
     eea:	4f94                	lw	a3,24(a5)
     eec:	fec42783          	lw	a5,-20(s0)
     ef0:	fff7c713          	not	a4,a5
     ef4:	400217b7          	lui	a5,0x40021
     ef8:	8f75                	and	a4,a4,a3
     efa:	cf98                	sw	a4,24(a5)
E:/桌面/19th智能车/单片机培训、考核/CH32V103_Library-master/Seekfree_CH32V103R8T6_Opensource_Library/Libraries/wch_Libraries/Peripheral/ch32v10x_rcc.c:579
}
     efc:	0001                	nop
     efe:	4472                	lw	s0,28(sp)
     f00:	6105                	addi	sp,sp,32
     f02:	8082                	ret

00000f04 <RCC_APB1PeriphClockCmd>:
RCC_APB1PeriphClockCmd():
E:/桌面/19th智能车/单片机培训、考核/CH32V103_Library-master/Seekfree_CH32V103R8T6_Opensource_Library/Libraries/wch_Libraries/Peripheral/ch32v10x_rcc.c:603
*                    RCC_APB1Periph_DAC.                
*                  NewState: ENABLE or DISABLE.
* Return         : None
*******************************************************************************/	
void RCC_APB1PeriphClockCmd(uint32_t RCC_APB1Periph, FunctionalState NewState)
{
     f04:	1101                	addi	sp,sp,-32
     f06:	ce22                	sw	s0,28(sp)
     f08:	1000                	addi	s0,sp,32
     f0a:	fea42623          	sw	a0,-20(s0)
     f0e:	feb42423          	sw	a1,-24(s0)
E:/桌面/19th智能车/单片机培训、考核/CH32V103_Library-master/Seekfree_CH32V103R8T6_Opensource_Library/Libraries/wch_Libraries/Peripheral/ch32v10x_rcc.c:604
  if (NewState != DISABLE)
     f12:	fe842783          	lw	a5,-24(s0)
     f16:	cb99                	beqz	a5,f2c <RCC_APB1PeriphClockCmd+0x28>
E:/桌面/19th智能车/单片机培训、考核/CH32V103_Library-master/Seekfree_CH32V103R8T6_Opensource_Library/Libraries/wch_Libraries/Peripheral/ch32v10x_rcc.c:606
  {
    RCC->APB1PCENR |= RCC_APB1Periph;
     f18:	400217b7          	lui	a5,0x40021
     f1c:	4fd4                	lw	a3,28(a5)
     f1e:	400217b7          	lui	a5,0x40021
     f22:	fec42703          	lw	a4,-20(s0)
     f26:	8f55                	or	a4,a4,a3
     f28:	cfd8                	sw	a4,28(a5)
E:/桌面/19th智能车/单片机培训、考核/CH32V103_Library-master/Seekfree_CH32V103R8T6_Opensource_Library/Libraries/wch_Libraries/Peripheral/ch32v10x_rcc.c:612
  }
  else
  {
    RCC->APB1PCENR &= ~RCC_APB1Periph;
  }
}
     f2a:	a821                	j	f42 <RCC_APB1PeriphClockCmd+0x3e>
E:/桌面/19th智能车/单片机培训、考核/CH32V103_Library-master/Seekfree_CH32V103R8T6_Opensource_Library/Libraries/wch_Libraries/Peripheral/ch32v10x_rcc.c:610
    RCC->APB1PCENR &= ~RCC_APB1Periph;
     f2c:	400217b7          	lui	a5,0x40021
     f30:	4fd4                	lw	a3,28(a5)
     f32:	fec42783          	lw	a5,-20(s0)
     f36:	fff7c713          	not	a4,a5
     f3a:	400217b7          	lui	a5,0x40021
     f3e:	8f75                	and	a4,a4,a3
     f40:	cfd8                	sw	a4,28(a5)
E:/桌面/19th智能车/单片机培训、考核/CH32V103_Library-master/Seekfree_CH32V103R8T6_Opensource_Library/Libraries/wch_Libraries/Peripheral/ch32v10x_rcc.c:612
}
     f42:	0001                	nop
     f44:	4472                	lw	s0,28(sp)
     f46:	6105                	addi	sp,sp,32
     f48:	8082                	ret

00000f4a <RCC_APB2PeriphResetCmd>:
RCC_APB2PeriphResetCmd():
E:/桌面/19th智能车/单片机培训、考核/CH32V103_Library-master/Seekfree_CH32V103R8T6_Opensource_Library/Libraries/wch_Libraries/Peripheral/ch32v10x_rcc.c:631
*                    RCC_APB2Periph_USART1.                
*                  NewState: ENABLE or DISABLE.
* Return         : None
*******************************************************************************/	
void RCC_APB2PeriphResetCmd(uint32_t RCC_APB2Periph, FunctionalState NewState)
{
     f4a:	1101                	addi	sp,sp,-32
     f4c:	ce22                	sw	s0,28(sp)
     f4e:	1000                	addi	s0,sp,32
     f50:	fea42623          	sw	a0,-20(s0)
     f54:	feb42423          	sw	a1,-24(s0)
E:/桌面/19th智能车/单片机培训、考核/CH32V103_Library-master/Seekfree_CH32V103R8T6_Opensource_Library/Libraries/wch_Libraries/Peripheral/ch32v10x_rcc.c:632
  if (NewState != DISABLE)
     f58:	fe842783          	lw	a5,-24(s0)
     f5c:	cb99                	beqz	a5,f72 <RCC_APB2PeriphResetCmd+0x28>
E:/桌面/19th智能车/单片机培训、考核/CH32V103_Library-master/Seekfree_CH32V103R8T6_Opensource_Library/Libraries/wch_Libraries/Peripheral/ch32v10x_rcc.c:634
  {
    RCC->APB2PRSTR |= RCC_APB2Periph;
     f5e:	400217b7          	lui	a5,0x40021
     f62:	47d4                	lw	a3,12(a5)
     f64:	400217b7          	lui	a5,0x40021
     f68:	fec42703          	lw	a4,-20(s0)
     f6c:	8f55                	or	a4,a4,a3
     f6e:	c7d8                	sw	a4,12(a5)
E:/桌面/19th智能车/单片机培训、考核/CH32V103_Library-master/Seekfree_CH32V103R8T6_Opensource_Library/Libraries/wch_Libraries/Peripheral/ch32v10x_rcc.c:640
  }
  else
  {
    RCC->APB2PRSTR &= ~RCC_APB2Periph;
  }
}
     f70:	a821                	j	f88 <RCC_APB2PeriphResetCmd+0x3e>
E:/桌面/19th智能车/单片机培训、考核/CH32V103_Library-master/Seekfree_CH32V103R8T6_Opensource_Library/Libraries/wch_Libraries/Peripheral/ch32v10x_rcc.c:638
    RCC->APB2PRSTR &= ~RCC_APB2Periph;
     f72:	400217b7          	lui	a5,0x40021
     f76:	47d4                	lw	a3,12(a5)
     f78:	fec42783          	lw	a5,-20(s0)
     f7c:	fff7c713          	not	a4,a5
     f80:	400217b7          	lui	a5,0x40021
     f84:	8f75                	and	a4,a4,a3
     f86:	c7d8                	sw	a4,12(a5)
E:/桌面/19th智能车/单片机培训、考核/CH32V103_Library-master/Seekfree_CH32V103R8T6_Opensource_Library/Libraries/wch_Libraries/Peripheral/ch32v10x_rcc.c:640
}
     f88:	0001                	nop
     f8a:	4472                	lw	s0,28(sp)
     f8c:	6105                	addi	sp,sp,32
     f8e:	8082                	ret

00000f90 <SPI_Init>:
SPI_Init():
E:/桌面/19th智能车/单片机培训、考核/CH32V103_Library-master/Seekfree_CH32V103R8T6_Opensource_Library/Libraries/wch_Libraries/Peripheral/ch32v10x_spi.c:83
*                  SPI_InitStruct: pointer to a SPI_InitTypeDef structure that
*      contains the configuration information for the specified SPI peripheral.
* Return         : None
*******************************************************************************/
void SPI_Init(SPI_TypeDef* SPIx, SPI_InitTypeDef* SPI_InitStruct)
{
     f90:	7179                	addi	sp,sp,-48
     f92:	d622                	sw	s0,44(sp)
     f94:	1800                	addi	s0,sp,48
     f96:	fca42e23          	sw	a0,-36(s0)
     f9a:	fcb42c23          	sw	a1,-40(s0)
E:/桌面/19th智能车/单片机培训、考核/CH32V103_Library-master/Seekfree_CH32V103R8T6_Opensource_Library/Libraries/wch_Libraries/Peripheral/ch32v10x_spi.c:84
  uint16_t tmpreg = 0;
     f9e:	fe041723          	sh	zero,-18(s0)
E:/桌面/19th智能车/单片机培训、考核/CH32V103_Library-master/Seekfree_CH32V103R8T6_Opensource_Library/Libraries/wch_Libraries/Peripheral/ch32v10x_spi.c:86
  
  tmpreg = SPIx->CTLR1;
     fa2:	fdc42783          	lw	a5,-36(s0)
     fa6:	0007d783          	lhu	a5,0(a5) # 40021000 <_eusrstack+0x2001c000>
     faa:	fef41723          	sh	a5,-18(s0)
E:/桌面/19th智能车/单片机培训、考核/CH32V103_Library-master/Seekfree_CH32V103R8T6_Opensource_Library/Libraries/wch_Libraries/Peripheral/ch32v10x_spi.c:87
  tmpreg &= CTLR1_CLEAR_Mask;
     fae:	fee45703          	lhu	a4,-18(s0)
     fb2:	678d                	lui	a5,0x3
     fb4:	04078793          	addi	a5,a5,64 # 3040 <adc_init+0x54>
     fb8:	8ff9                	and	a5,a5,a4
     fba:	fef41723          	sh	a5,-18(s0)
E:/桌面/19th智能车/单片机培训、考核/CH32V103_Library-master/Seekfree_CH32V103R8T6_Opensource_Library/Libraries/wch_Libraries/Peripheral/ch32v10x_spi.c:88
  tmpreg |= (uint16_t)((uint32_t)SPI_InitStruct->SPI_Direction | SPI_InitStruct->SPI_Mode |
     fbe:	fd842783          	lw	a5,-40(s0)
     fc2:	0007d703          	lhu	a4,0(a5)
     fc6:	fd842783          	lw	a5,-40(s0)
     fca:	0027d783          	lhu	a5,2(a5)
     fce:	8fd9                	or	a5,a5,a4
     fd0:	01079713          	slli	a4,a5,0x10
     fd4:	8341                	srli	a4,a4,0x10
E:/桌面/19th智能车/单片机培训、考核/CH32V103_Library-master/Seekfree_CH32V103R8T6_Opensource_Library/Libraries/wch_Libraries/Peripheral/ch32v10x_spi.c:89
                  SPI_InitStruct->SPI_DataSize | SPI_InitStruct->SPI_CPOL |  
     fd6:	fd842783          	lw	a5,-40(s0)
     fda:	0047d783          	lhu	a5,4(a5)
E:/桌面/19th智能车/单片机培训、考核/CH32V103_Library-master/Seekfree_CH32V103R8T6_Opensource_Library/Libraries/wch_Libraries/Peripheral/ch32v10x_spi.c:88
  tmpreg |= (uint16_t)((uint32_t)SPI_InitStruct->SPI_Direction | SPI_InitStruct->SPI_Mode |
     fde:	8fd9                	or	a5,a5,a4
     fe0:	01079713          	slli	a4,a5,0x10
     fe4:	8341                	srli	a4,a4,0x10
E:/桌面/19th智能车/单片机培训、考核/CH32V103_Library-master/Seekfree_CH32V103R8T6_Opensource_Library/Libraries/wch_Libraries/Peripheral/ch32v10x_spi.c:89
                  SPI_InitStruct->SPI_DataSize | SPI_InitStruct->SPI_CPOL |  
     fe6:	fd842783          	lw	a5,-40(s0)
     fea:	0067d783          	lhu	a5,6(a5)
E:/桌面/19th智能车/单片机培训、考核/CH32V103_Library-master/Seekfree_CH32V103R8T6_Opensource_Library/Libraries/wch_Libraries/Peripheral/ch32v10x_spi.c:88
  tmpreg |= (uint16_t)((uint32_t)SPI_InitStruct->SPI_Direction | SPI_InitStruct->SPI_Mode |
     fee:	8fd9                	or	a5,a5,a4
     ff0:	01079713          	slli	a4,a5,0x10
     ff4:	8341                	srli	a4,a4,0x10
E:/桌面/19th智能车/单片机培训、考核/CH32V103_Library-master/Seekfree_CH32V103R8T6_Opensource_Library/Libraries/wch_Libraries/Peripheral/ch32v10x_spi.c:90
                  SPI_InitStruct->SPI_CPHA | SPI_InitStruct->SPI_NSS |  
     ff6:	fd842783          	lw	a5,-40(s0)
     ffa:	0087d783          	lhu	a5,8(a5)
E:/桌面/19th智能车/单片机培训、考核/CH32V103_Library-master/Seekfree_CH32V103R8T6_Opensource_Library/Libraries/wch_Libraries/Peripheral/ch32v10x_spi.c:88
  tmpreg |= (uint16_t)((uint32_t)SPI_InitStruct->SPI_Direction | SPI_InitStruct->SPI_Mode |
     ffe:	8fd9                	or	a5,a5,a4
    1000:	01079713          	slli	a4,a5,0x10
    1004:	8341                	srli	a4,a4,0x10
E:/桌面/19th智能车/单片机培训、考核/CH32V103_Library-master/Seekfree_CH32V103R8T6_Opensource_Library/Libraries/wch_Libraries/Peripheral/ch32v10x_spi.c:90
                  SPI_InitStruct->SPI_CPHA | SPI_InitStruct->SPI_NSS |  
    1006:	fd842783          	lw	a5,-40(s0)
    100a:	00a7d783          	lhu	a5,10(a5)
E:/桌面/19th智能车/单片机培训、考核/CH32V103_Library-master/Seekfree_CH32V103R8T6_Opensource_Library/Libraries/wch_Libraries/Peripheral/ch32v10x_spi.c:88
  tmpreg |= (uint16_t)((uint32_t)SPI_InitStruct->SPI_Direction | SPI_InitStruct->SPI_Mode |
    100e:	8fd9                	or	a5,a5,a4
    1010:	01079713          	slli	a4,a5,0x10
    1014:	8341                	srli	a4,a4,0x10
E:/桌面/19th智能车/单片机培训、考核/CH32V103_Library-master/Seekfree_CH32V103R8T6_Opensource_Library/Libraries/wch_Libraries/Peripheral/ch32v10x_spi.c:91
                  SPI_InitStruct->SPI_BaudRatePrescaler | SPI_InitStruct->SPI_FirstBit);
    1016:	fd842783          	lw	a5,-40(s0)
    101a:	00c7d783          	lhu	a5,12(a5)
E:/桌面/19th智能车/单片机培训、考核/CH32V103_Library-master/Seekfree_CH32V103R8T6_Opensource_Library/Libraries/wch_Libraries/Peripheral/ch32v10x_spi.c:88
  tmpreg |= (uint16_t)((uint32_t)SPI_InitStruct->SPI_Direction | SPI_InitStruct->SPI_Mode |
    101e:	8fd9                	or	a5,a5,a4
    1020:	01079713          	slli	a4,a5,0x10
    1024:	8341                	srli	a4,a4,0x10
E:/桌面/19th智能车/单片机培训、考核/CH32V103_Library-master/Seekfree_CH32V103R8T6_Opensource_Library/Libraries/wch_Libraries/Peripheral/ch32v10x_spi.c:91
                  SPI_InitStruct->SPI_BaudRatePrescaler | SPI_InitStruct->SPI_FirstBit);
    1026:	fd842783          	lw	a5,-40(s0)
    102a:	00e7d783          	lhu	a5,14(a5)
E:/桌面/19th智能车/单片机培训、考核/CH32V103_Library-master/Seekfree_CH32V103R8T6_Opensource_Library/Libraries/wch_Libraries/Peripheral/ch32v10x_spi.c:88
  tmpreg |= (uint16_t)((uint32_t)SPI_InitStruct->SPI_Direction | SPI_InitStruct->SPI_Mode |
    102e:	8fd9                	or	a5,a5,a4
    1030:	01079713          	slli	a4,a5,0x10
    1034:	8341                	srli	a4,a4,0x10
    1036:	fee45783          	lhu	a5,-18(s0)
    103a:	8fd9                	or	a5,a5,a4
    103c:	fef41723          	sh	a5,-18(s0)
E:/桌面/19th智能车/单片机培训、考核/CH32V103_Library-master/Seekfree_CH32V103R8T6_Opensource_Library/Libraries/wch_Libraries/Peripheral/ch32v10x_spi.c:93

  SPIx->CTLR1 = tmpreg;
    1040:	fdc42783          	lw	a5,-36(s0)
    1044:	fee45703          	lhu	a4,-18(s0)
    1048:	00e79023          	sh	a4,0(a5)
E:/桌面/19th智能车/单片机培训、考核/CH32V103_Library-master/Seekfree_CH32V103R8T6_Opensource_Library/Libraries/wch_Libraries/Peripheral/ch32v10x_spi.c:94
  SPIx->I2SCFGR &= SPI_Mode_Select;		
    104c:	fdc42783          	lw	a5,-36(s0)
    1050:	01c7d783          	lhu	a5,28(a5)
    1054:	01079713          	slli	a4,a5,0x10
    1058:	8341                	srli	a4,a4,0x10
    105a:	77fd                	lui	a5,0xfffff
    105c:	7ff78793          	addi	a5,a5,2047 # fffff7ff <_eusrstack+0xdfffa7ff>
    1060:	8ff9                	and	a5,a5,a4
    1062:	01079713          	slli	a4,a5,0x10
    1066:	8341                	srli	a4,a4,0x10
    1068:	fdc42783          	lw	a5,-36(s0)
    106c:	00e79e23          	sh	a4,28(a5)
E:/桌面/19th智能车/单片机培训、考核/CH32V103_Library-master/Seekfree_CH32V103R8T6_Opensource_Library/Libraries/wch_Libraries/Peripheral/ch32v10x_spi.c:95
  SPIx->CRCR = SPI_InitStruct->SPI_CRCPolynomial;
    1070:	fd842783          	lw	a5,-40(s0)
    1074:	0107d703          	lhu	a4,16(a5)
    1078:	fdc42783          	lw	a5,-36(s0)
    107c:	00e79823          	sh	a4,16(a5)
E:/桌面/19th智能车/单片机培训、考核/CH32V103_Library-master/Seekfree_CH32V103R8T6_Opensource_Library/Libraries/wch_Libraries/Peripheral/ch32v10x_spi.c:96
}
    1080:	0001                	nop
    1082:	5432                	lw	s0,44(sp)
    1084:	6145                	addi	sp,sp,48
    1086:	8082                	ret

00001088 <SPI_Cmd>:
SPI_Cmd():
E:/桌面/19th智能车/单片机培训、考核/CH32V103_Library-master/Seekfree_CH32V103R8T6_Opensource_Library/Libraries/wch_Libraries/Peripheral/ch32v10x_spi.c:221
* Input          : SPIx: where x can be 1, 2 or 3 to select the SPI peripheral.
*                  NewState: ENABLE or DISABLE.
* Return         : None
*******************************************************************************/
void SPI_Cmd(SPI_TypeDef* SPIx, FunctionalState NewState)
{
    1088:	1101                	addi	sp,sp,-32
    108a:	ce22                	sw	s0,28(sp)
    108c:	1000                	addi	s0,sp,32
    108e:	fea42623          	sw	a0,-20(s0)
    1092:	feb42423          	sw	a1,-24(s0)
E:/桌面/19th智能车/单片机培训、考核/CH32V103_Library-master/Seekfree_CH32V103R8T6_Opensource_Library/Libraries/wch_Libraries/Peripheral/ch32v10x_spi.c:222
  if (NewState != DISABLE)
    1096:	fe842783          	lw	a5,-24(s0)
    109a:	c38d                	beqz	a5,10bc <SPI_Cmd+0x34>
E:/桌面/19th智能车/单片机培训、考核/CH32V103_Library-master/Seekfree_CH32V103R8T6_Opensource_Library/Libraries/wch_Libraries/Peripheral/ch32v10x_spi.c:224
  {
    SPIx->CTLR1 |= CTLR1_SPE_Set;
    109c:	fec42783          	lw	a5,-20(s0)
    10a0:	0007d783          	lhu	a5,0(a5)
    10a4:	07c2                	slli	a5,a5,0x10
    10a6:	83c1                	srli	a5,a5,0x10
    10a8:	0407e793          	ori	a5,a5,64
    10ac:	01079713          	slli	a4,a5,0x10
    10b0:	8341                	srli	a4,a4,0x10
    10b2:	fec42783          	lw	a5,-20(s0)
    10b6:	00e79023          	sh	a4,0(a5)
E:/桌面/19th智能车/单片机培训、考核/CH32V103_Library-master/Seekfree_CH32V103R8T6_Opensource_Library/Libraries/wch_Libraries/Peripheral/ch32v10x_spi.c:230
  }
  else
  {
    SPIx->CTLR1 &= CTLR1_SPE_Reset;
  }
}
    10ba:	a005                	j	10da <SPI_Cmd+0x52>
E:/桌面/19th智能车/单片机培训、考核/CH32V103_Library-master/Seekfree_CH32V103R8T6_Opensource_Library/Libraries/wch_Libraries/Peripheral/ch32v10x_spi.c:228
    SPIx->CTLR1 &= CTLR1_SPE_Reset;
    10bc:	fec42783          	lw	a5,-20(s0)
    10c0:	0007d783          	lhu	a5,0(a5)
    10c4:	07c2                	slli	a5,a5,0x10
    10c6:	83c1                	srli	a5,a5,0x10
    10c8:	fbf7f793          	andi	a5,a5,-65
    10cc:	01079713          	slli	a4,a5,0x10
    10d0:	8341                	srli	a4,a4,0x10
    10d2:	fec42783          	lw	a5,-20(s0)
    10d6:	00e79023          	sh	a4,0(a5)
E:/桌面/19th智能车/单片机培训、考核/CH32V103_Library-master/Seekfree_CH32V103R8T6_Opensource_Library/Libraries/wch_Libraries/Peripheral/ch32v10x_spi.c:230
}
    10da:	0001                	nop
    10dc:	4472                	lw	s0,28(sp)
    10de:	6105                	addi	sp,sp,32
    10e0:	8082                	ret

000010e2 <TIM_TimeBaseInit>:
TIM_TimeBaseInit():
E:/桌面/19th智能车/单片机培训、考核/CH32V103_Library-master/Seekfree_CH32V103R8T6_Opensource_Library/Libraries/wch_Libraries/Peripheral/ch32v10x_tim.c:67
*                  TIM_TimeBaseInitStruct: pointer to a TIM_TimeBaseInitTypeDef
*      structure.
* Return         : None
*******************************************************************************/
void TIM_TimeBaseInit(TIM_TypeDef* TIMx, TIM_TimeBaseInitTypeDef* TIM_TimeBaseInitStruct)
{
    10e2:	7179                	addi	sp,sp,-48
    10e4:	d622                	sw	s0,44(sp)
    10e6:	1800                	addi	s0,sp,48
    10e8:	fca42e23          	sw	a0,-36(s0)
    10ec:	fcb42c23          	sw	a1,-40(s0)
E:/桌面/19th智能车/单片机培训、考核/CH32V103_Library-master/Seekfree_CH32V103R8T6_Opensource_Library/Libraries/wch_Libraries/Peripheral/ch32v10x_tim.c:68
  uint16_t tmpcr1 = 0;
    10f0:	fe041723          	sh	zero,-18(s0)
E:/桌面/19th智能车/单片机培训、考核/CH32V103_Library-master/Seekfree_CH32V103R8T6_Opensource_Library/Libraries/wch_Libraries/Peripheral/ch32v10x_tim.c:70

  tmpcr1 = TIMx->CTLR1;  
    10f4:	fdc42783          	lw	a5,-36(s0)
    10f8:	0007d783          	lhu	a5,0(a5)
    10fc:	fef41723          	sh	a5,-18(s0)
E:/桌面/19th智能车/单片机培训、考核/CH32V103_Library-master/Seekfree_CH32V103R8T6_Opensource_Library/Libraries/wch_Libraries/Peripheral/ch32v10x_tim.c:72

  if((TIMx == TIM1) || (TIMx == TIM2) || (TIMx == TIM3)|| (TIMx == TIM4)) 
    1100:	fdc42703          	lw	a4,-36(s0)
    1104:	400137b7          	lui	a5,0x40013
    1108:	c0078793          	addi	a5,a5,-1024 # 40012c00 <_eusrstack+0x2000dc00>
    110c:	02f70863          	beq	a4,a5,113c <TIM_TimeBaseInit+0x5a>
E:/桌面/19th智能车/单片机培训、考核/CH32V103_Library-master/Seekfree_CH32V103R8T6_Opensource_Library/Libraries/wch_Libraries/Peripheral/ch32v10x_tim.c:72 (discriminator 1)
    1110:	fdc42703          	lw	a4,-36(s0)
    1114:	400007b7          	lui	a5,0x40000
    1118:	02f70263          	beq	a4,a5,113c <TIM_TimeBaseInit+0x5a>
E:/桌面/19th智能车/单片机培训、考核/CH32V103_Library-master/Seekfree_CH32V103R8T6_Opensource_Library/Libraries/wch_Libraries/Peripheral/ch32v10x_tim.c:72 (discriminator 2)
    111c:	fdc42703          	lw	a4,-36(s0)
    1120:	400007b7          	lui	a5,0x40000
    1124:	40078793          	addi	a5,a5,1024 # 40000400 <_eusrstack+0x1fffb400>
    1128:	00f70a63          	beq	a4,a5,113c <TIM_TimeBaseInit+0x5a>
E:/桌面/19th智能车/单片机培训、考核/CH32V103_Library-master/Seekfree_CH32V103R8T6_Opensource_Library/Libraries/wch_Libraries/Peripheral/ch32v10x_tim.c:72 (discriminator 3)
    112c:	fdc42703          	lw	a4,-36(s0)
    1130:	400017b7          	lui	a5,0x40001
    1134:	80078793          	addi	a5,a5,-2048 # 40000800 <_eusrstack+0x1fffb800>
    1138:	02f71163          	bne	a4,a5,115a <TIM_TimeBaseInit+0x78>
E:/桌面/19th智能车/单片机培训、考核/CH32V103_Library-master/Seekfree_CH32V103R8T6_Opensource_Library/Libraries/wch_Libraries/Peripheral/ch32v10x_tim.c:74
  {
    tmpcr1 &= (uint16_t)(~((uint16_t)(TIM_DIR | TIM_CMS)));
    113c:	fee45783          	lhu	a5,-18(s0)
    1140:	f8f7f793          	andi	a5,a5,-113
    1144:	fef41723          	sh	a5,-18(s0)
E:/桌面/19th智能车/单片机培训、考核/CH32V103_Library-master/Seekfree_CH32V103R8T6_Opensource_Library/Libraries/wch_Libraries/Peripheral/ch32v10x_tim.c:75
    tmpcr1 |= (uint32_t)TIM_TimeBaseInitStruct->TIM_CounterMode;
    1148:	fd842783          	lw	a5,-40(s0)
    114c:	0027d703          	lhu	a4,2(a5)
    1150:	fee45783          	lhu	a5,-18(s0)
    1154:	8fd9                	or	a5,a5,a4
    1156:	fef41723          	sh	a5,-18(s0)
E:/桌面/19th智能车/单片机培训、考核/CH32V103_Library-master/Seekfree_CH32V103R8T6_Opensource_Library/Libraries/wch_Libraries/Peripheral/ch32v10x_tim.c:78
  }

  tmpcr1 &= (uint16_t)(~((uint16_t)TIM_CTLR1_CKD));
    115a:	fee45783          	lhu	a5,-18(s0)
    115e:	cff7f793          	andi	a5,a5,-769
    1162:	fef41723          	sh	a5,-18(s0)
E:/桌面/19th智能车/单片机培训、考核/CH32V103_Library-master/Seekfree_CH32V103R8T6_Opensource_Library/Libraries/wch_Libraries/Peripheral/ch32v10x_tim.c:79
  tmpcr1 |= (uint32_t)TIM_TimeBaseInitStruct->TIM_ClockDivision;
    1166:	fd842783          	lw	a5,-40(s0)
    116a:	0067d703          	lhu	a4,6(a5)
    116e:	fee45783          	lhu	a5,-18(s0)
    1172:	8fd9                	or	a5,a5,a4
    1174:	fef41723          	sh	a5,-18(s0)
E:/桌面/19th智能车/单片机培训、考核/CH32V103_Library-master/Seekfree_CH32V103R8T6_Opensource_Library/Libraries/wch_Libraries/Peripheral/ch32v10x_tim.c:81

  TIMx->CTLR1 = tmpcr1;
    1178:	fdc42783          	lw	a5,-36(s0)
    117c:	fee45703          	lhu	a4,-18(s0)
    1180:	00e79023          	sh	a4,0(a5)
E:/桌面/19th智能车/单片机培训、考核/CH32V103_Library-master/Seekfree_CH32V103R8T6_Opensource_Library/Libraries/wch_Libraries/Peripheral/ch32v10x_tim.c:82
  TIMx->ATRLR = TIM_TimeBaseInitStruct->TIM_Period ;
    1184:	fd842783          	lw	a5,-40(s0)
    1188:	0047d703          	lhu	a4,4(a5)
    118c:	fdc42783          	lw	a5,-36(s0)
    1190:	02e79623          	sh	a4,44(a5)
E:/桌面/19th智能车/单片机培训、考核/CH32V103_Library-master/Seekfree_CH32V103R8T6_Opensource_Library/Libraries/wch_Libraries/Peripheral/ch32v10x_tim.c:83
  TIMx->PSC = TIM_TimeBaseInitStruct->TIM_Prescaler;
    1194:	fd842783          	lw	a5,-40(s0)
    1198:	0007d703          	lhu	a4,0(a5)
    119c:	fdc42783          	lw	a5,-36(s0)
    11a0:	02e79423          	sh	a4,40(a5)
E:/桌面/19th智能车/单片机培训、考核/CH32V103_Library-master/Seekfree_CH32V103R8T6_Opensource_Library/Libraries/wch_Libraries/Peripheral/ch32v10x_tim.c:85
    
  if (TIMx == TIM1)  
    11a4:	fdc42703          	lw	a4,-36(s0)
    11a8:	400137b7          	lui	a5,0x40013
    11ac:	c0078793          	addi	a5,a5,-1024 # 40012c00 <_eusrstack+0x2000dc00>
    11b0:	00f71d63          	bne	a4,a5,11ca <TIM_TimeBaseInit+0xe8>
E:/桌面/19th智能车/单片机培训、考核/CH32V103_Library-master/Seekfree_CH32V103R8T6_Opensource_Library/Libraries/wch_Libraries/Peripheral/ch32v10x_tim.c:87
  {
    TIMx->RPTCR = TIM_TimeBaseInitStruct->TIM_RepetitionCounter;
    11b4:	fd842783          	lw	a5,-40(s0)
    11b8:	0087c783          	lbu	a5,8(a5)
    11bc:	01079713          	slli	a4,a5,0x10
    11c0:	8341                	srli	a4,a4,0x10
    11c2:	fdc42783          	lw	a5,-36(s0)
    11c6:	02e79823          	sh	a4,48(a5)
E:/桌面/19th智能车/单片机培训、考核/CH32V103_Library-master/Seekfree_CH32V103R8T6_Opensource_Library/Libraries/wch_Libraries/Peripheral/ch32v10x_tim.c:90
  }

  TIMx->SWEVGR = TIM_PSCReloadMode_Immediate;           
    11ca:	fdc42783          	lw	a5,-36(s0)
    11ce:	4705                	li	a4,1
    11d0:	00e79a23          	sh	a4,20(a5)
E:/桌面/19th智能车/单片机培训、考核/CH32V103_Library-master/Seekfree_CH32V103R8T6_Opensource_Library/Libraries/wch_Libraries/Peripheral/ch32v10x_tim.c:91
}
    11d4:	0001                	nop
    11d6:	5432                	lw	s0,44(sp)
    11d8:	6145                	addi	sp,sp,48
    11da:	8082                	ret

000011dc <TIM_OC1Init>:
TIM_OC1Init():
E:/桌面/19th智能车/单片机培训、考核/CH32V103_Library-master/Seekfree_CH32V103R8T6_Opensource_Library/Libraries/wch_Libraries/Peripheral/ch32v10x_tim.c:102
* Input          : TIMx: where x can be 1 to 4 to select the TIM peripheral.
*                  TIM_OCInitStruct: pointer to a TIM_OCInitTypeDef structure.
* Return         : None
*******************************************************************************/
void TIM_OC1Init(TIM_TypeDef* TIMx, TIM_OCInitTypeDef* TIM_OCInitStruct)
{
    11dc:	7179                	addi	sp,sp,-48
    11de:	d622                	sw	s0,44(sp)
    11e0:	1800                	addi	s0,sp,48
    11e2:	fca42e23          	sw	a0,-36(s0)
    11e6:	fcb42c23          	sw	a1,-40(s0)
E:/桌面/19th智能车/单片机培训、考核/CH32V103_Library-master/Seekfree_CH32V103R8T6_Opensource_Library/Libraries/wch_Libraries/Peripheral/ch32v10x_tim.c:103
  uint16_t tmpccmrx = 0, tmpccer = 0, tmpcr2 = 0;
    11ea:	fe041523          	sh	zero,-22(s0)
    11ee:	fe041723          	sh	zero,-18(s0)
    11f2:	fe041623          	sh	zero,-20(s0)
E:/桌面/19th智能车/单片机培训、考核/CH32V103_Library-master/Seekfree_CH32V103R8T6_Opensource_Library/Libraries/wch_Libraries/Peripheral/ch32v10x_tim.c:105
     
  TIMx->CCER &= (uint16_t)(~(uint16_t)TIM_CC1E);
    11f6:	fdc42783          	lw	a5,-36(s0)
    11fa:	0207d783          	lhu	a5,32(a5)
    11fe:	07c2                	slli	a5,a5,0x10
    1200:	83c1                	srli	a5,a5,0x10
    1202:	9bf9                	andi	a5,a5,-2
    1204:	01079713          	slli	a4,a5,0x10
    1208:	8341                	srli	a4,a4,0x10
    120a:	fdc42783          	lw	a5,-36(s0)
    120e:	02e79023          	sh	a4,32(a5)
E:/桌面/19th智能车/单片机培训、考核/CH32V103_Library-master/Seekfree_CH32V103R8T6_Opensource_Library/Libraries/wch_Libraries/Peripheral/ch32v10x_tim.c:106
  tmpccer = TIMx->CCER;
    1212:	fdc42783          	lw	a5,-36(s0)
    1216:	0207d783          	lhu	a5,32(a5)
    121a:	fef41723          	sh	a5,-18(s0)
E:/桌面/19th智能车/单片机培训、考核/CH32V103_Library-master/Seekfree_CH32V103R8T6_Opensource_Library/Libraries/wch_Libraries/Peripheral/ch32v10x_tim.c:107
  tmpcr2 =  TIMx->CTLR2;
    121e:	fdc42783          	lw	a5,-36(s0)
    1222:	0047d783          	lhu	a5,4(a5)
    1226:	fef41623          	sh	a5,-20(s0)
E:/桌面/19th智能车/单片机培训、考核/CH32V103_Library-master/Seekfree_CH32V103R8T6_Opensource_Library/Libraries/wch_Libraries/Peripheral/ch32v10x_tim.c:108
  tmpccmrx = TIMx->CHCTLR1;
    122a:	fdc42783          	lw	a5,-36(s0)
    122e:	0187d783          	lhu	a5,24(a5)
    1232:	fef41523          	sh	a5,-22(s0)
E:/桌面/19th智能车/单片机培训、考核/CH32V103_Library-master/Seekfree_CH32V103R8T6_Opensource_Library/Libraries/wch_Libraries/Peripheral/ch32v10x_tim.c:109
  tmpccmrx &= (uint16_t)(~((uint16_t)TIM_OC1M));
    1236:	fea45783          	lhu	a5,-22(s0)
    123a:	f8f7f793          	andi	a5,a5,-113
    123e:	fef41523          	sh	a5,-22(s0)
E:/桌面/19th智能车/单片机培训、考核/CH32V103_Library-master/Seekfree_CH32V103R8T6_Opensource_Library/Libraries/wch_Libraries/Peripheral/ch32v10x_tim.c:110
  tmpccmrx &= (uint16_t)(~((uint16_t)TIM_CC1S));
    1242:	fea45783          	lhu	a5,-22(s0)
    1246:	9bf1                	andi	a5,a5,-4
    1248:	fef41523          	sh	a5,-22(s0)
E:/桌面/19th智能车/单片机培训、考核/CH32V103_Library-master/Seekfree_CH32V103R8T6_Opensource_Library/Libraries/wch_Libraries/Peripheral/ch32v10x_tim.c:111
  tmpccmrx |= TIM_OCInitStruct->TIM_OCMode;
    124c:	fd842783          	lw	a5,-40(s0)
    1250:	0007d703          	lhu	a4,0(a5)
    1254:	fea45783          	lhu	a5,-22(s0)
    1258:	8fd9                	or	a5,a5,a4
    125a:	fef41523          	sh	a5,-22(s0)
E:/桌面/19th智能车/单片机培训、考核/CH32V103_Library-master/Seekfree_CH32V103R8T6_Opensource_Library/Libraries/wch_Libraries/Peripheral/ch32v10x_tim.c:112
  tmpccer &= (uint16_t)(~((uint16_t)TIM_CC1P));
    125e:	fee45783          	lhu	a5,-18(s0)
    1262:	9bf5                	andi	a5,a5,-3
    1264:	fef41723          	sh	a5,-18(s0)
E:/桌面/19th智能车/单片机培训、考核/CH32V103_Library-master/Seekfree_CH32V103R8T6_Opensource_Library/Libraries/wch_Libraries/Peripheral/ch32v10x_tim.c:113
  tmpccer |= TIM_OCInitStruct->TIM_OCPolarity;
    1268:	fd842783          	lw	a5,-40(s0)
    126c:	0087d703          	lhu	a4,8(a5)
    1270:	fee45783          	lhu	a5,-18(s0)
    1274:	8fd9                	or	a5,a5,a4
    1276:	fef41723          	sh	a5,-18(s0)
E:/桌面/19th智能车/单片机培训、考核/CH32V103_Library-master/Seekfree_CH32V103R8T6_Opensource_Library/Libraries/wch_Libraries/Peripheral/ch32v10x_tim.c:114
  tmpccer |= TIM_OCInitStruct->TIM_OutputState;
    127a:	fd842783          	lw	a5,-40(s0)
    127e:	0027d703          	lhu	a4,2(a5)
    1282:	fee45783          	lhu	a5,-18(s0)
    1286:	8fd9                	or	a5,a5,a4
    1288:	fef41723          	sh	a5,-18(s0)
E:/桌面/19th智能车/单片机培训、考核/CH32V103_Library-master/Seekfree_CH32V103R8T6_Opensource_Library/Libraries/wch_Libraries/Peripheral/ch32v10x_tim.c:116
    
  if(TIMx == TIM1)
    128c:	fdc42703          	lw	a4,-36(s0)
    1290:	400137b7          	lui	a5,0x40013
    1294:	c0078793          	addi	a5,a5,-1024 # 40012c00 <_eusrstack+0x2000dc00>
    1298:	06f71c63          	bne	a4,a5,1310 <TIM_OC1Init+0x134>
E:/桌面/19th智能车/单片机培训、考核/CH32V103_Library-master/Seekfree_CH32V103R8T6_Opensource_Library/Libraries/wch_Libraries/Peripheral/ch32v10x_tim.c:118
  {
    tmpccer &= (uint16_t)(~((uint16_t)TIM_CC1NP));
    129c:	fee45783          	lhu	a5,-18(s0)
    12a0:	9bdd                	andi	a5,a5,-9
    12a2:	fef41723          	sh	a5,-18(s0)
E:/桌面/19th智能车/单片机培训、考核/CH32V103_Library-master/Seekfree_CH32V103R8T6_Opensource_Library/Libraries/wch_Libraries/Peripheral/ch32v10x_tim.c:119
    tmpccer |= TIM_OCInitStruct->TIM_OCNPolarity;
    12a6:	fd842783          	lw	a5,-40(s0)
    12aa:	00a7d703          	lhu	a4,10(a5)
    12ae:	fee45783          	lhu	a5,-18(s0)
    12b2:	8fd9                	or	a5,a5,a4
    12b4:	fef41723          	sh	a5,-18(s0)
E:/桌面/19th智能车/单片机培训、考核/CH32V103_Library-master/Seekfree_CH32V103R8T6_Opensource_Library/Libraries/wch_Libraries/Peripheral/ch32v10x_tim.c:121
 
    tmpccer &= (uint16_t)(~((uint16_t)TIM_CC1NE));    
    12b8:	fee45783          	lhu	a5,-18(s0)
    12bc:	9bed                	andi	a5,a5,-5
    12be:	fef41723          	sh	a5,-18(s0)
E:/桌面/19th智能车/单片机培训、考核/CH32V103_Library-master/Seekfree_CH32V103R8T6_Opensource_Library/Libraries/wch_Libraries/Peripheral/ch32v10x_tim.c:122
    tmpccer |= TIM_OCInitStruct->TIM_OutputNState;
    12c2:	fd842783          	lw	a5,-40(s0)
    12c6:	0047d703          	lhu	a4,4(a5)
    12ca:	fee45783          	lhu	a5,-18(s0)
    12ce:	8fd9                	or	a5,a5,a4
    12d0:	fef41723          	sh	a5,-18(s0)
E:/桌面/19th智能车/单片机培训、考核/CH32V103_Library-master/Seekfree_CH32V103R8T6_Opensource_Library/Libraries/wch_Libraries/Peripheral/ch32v10x_tim.c:124
    
    tmpcr2 &= (uint16_t)(~((uint16_t)TIM_OIS1));
    12d4:	fec45783          	lhu	a5,-20(s0)
    12d8:	eff7f793          	andi	a5,a5,-257
    12dc:	fef41623          	sh	a5,-20(s0)
E:/桌面/19th智能车/单片机培训、考核/CH32V103_Library-master/Seekfree_CH32V103R8T6_Opensource_Library/Libraries/wch_Libraries/Peripheral/ch32v10x_tim.c:125
    tmpcr2 &= (uint16_t)(~((uint16_t)TIM_OIS1N));
    12e0:	fec45783          	lhu	a5,-20(s0)
    12e4:	dff7f793          	andi	a5,a5,-513
    12e8:	fef41623          	sh	a5,-20(s0)
E:/桌面/19th智能车/单片机培训、考核/CH32V103_Library-master/Seekfree_CH32V103R8T6_Opensource_Library/Libraries/wch_Libraries/Peripheral/ch32v10x_tim.c:127
    
    tmpcr2 |= TIM_OCInitStruct->TIM_OCIdleState;
    12ec:	fd842783          	lw	a5,-40(s0)
    12f0:	00c7d703          	lhu	a4,12(a5)
    12f4:	fec45783          	lhu	a5,-20(s0)
    12f8:	8fd9                	or	a5,a5,a4
    12fa:	fef41623          	sh	a5,-20(s0)
E:/桌面/19th智能车/单片机培训、考核/CH32V103_Library-master/Seekfree_CH32V103R8T6_Opensource_Library/Libraries/wch_Libraries/Peripheral/ch32v10x_tim.c:128
    tmpcr2 |= TIM_OCInitStruct->TIM_OCNIdleState;
    12fe:	fd842783          	lw	a5,-40(s0)
    1302:	00e7d703          	lhu	a4,14(a5)
    1306:	fec45783          	lhu	a5,-20(s0)
    130a:	8fd9                	or	a5,a5,a4
    130c:	fef41623          	sh	a5,-20(s0)
E:/桌面/19th智能车/单片机培训、考核/CH32V103_Library-master/Seekfree_CH32V103R8T6_Opensource_Library/Libraries/wch_Libraries/Peripheral/ch32v10x_tim.c:131
  }

  TIMx->CTLR2 = tmpcr2;
    1310:	fdc42783          	lw	a5,-36(s0)
    1314:	fec45703          	lhu	a4,-20(s0)
    1318:	00e79223          	sh	a4,4(a5)
E:/桌面/19th智能车/单片机培训、考核/CH32V103_Library-master/Seekfree_CH32V103R8T6_Opensource_Library/Libraries/wch_Libraries/Peripheral/ch32v10x_tim.c:132
  TIMx->CHCTLR1 = tmpccmrx;
    131c:	fdc42783          	lw	a5,-36(s0)
    1320:	fea45703          	lhu	a4,-22(s0)
    1324:	00e79c23          	sh	a4,24(a5)
E:/桌面/19th智能车/单片机培训、考核/CH32V103_Library-master/Seekfree_CH32V103R8T6_Opensource_Library/Libraries/wch_Libraries/Peripheral/ch32v10x_tim.c:133
  TIMx->CH1CVR = TIM_OCInitStruct->TIM_Pulse; 
    1328:	fd842783          	lw	a5,-40(s0)
    132c:	0067d703          	lhu	a4,6(a5)
    1330:	fdc42783          	lw	a5,-36(s0)
    1334:	02e79a23          	sh	a4,52(a5)
E:/桌面/19th智能车/单片机培训、考核/CH32V103_Library-master/Seekfree_CH32V103R8T6_Opensource_Library/Libraries/wch_Libraries/Peripheral/ch32v10x_tim.c:134
  TIMx->CCER = tmpccer;
    1338:	fdc42783          	lw	a5,-36(s0)
    133c:	fee45703          	lhu	a4,-18(s0)
    1340:	02e79023          	sh	a4,32(a5)
E:/桌面/19th智能车/单片机培训、考核/CH32V103_Library-master/Seekfree_CH32V103R8T6_Opensource_Library/Libraries/wch_Libraries/Peripheral/ch32v10x_tim.c:135
}
    1344:	0001                	nop
    1346:	5432                	lw	s0,44(sp)
    1348:	6145                	addi	sp,sp,48
    134a:	8082                	ret

0000134c <TIM_OC2Init>:
TIM_OC2Init():
E:/桌面/19th智能车/单片机培训、考核/CH32V103_Library-master/Seekfree_CH32V103R8T6_Opensource_Library/Libraries/wch_Libraries/Peripheral/ch32v10x_tim.c:146
* Input          : TIMx: where x can be 1 to 4 to select the TIM peripheral.
*                  TIM_OCInitStruct: pointer to a TIM_OCInitTypeDef structure.
* Return         : None
*******************************************************************************/
void TIM_OC2Init(TIM_TypeDef* TIMx, TIM_OCInitTypeDef* TIM_OCInitStruct)
{
    134c:	7179                	addi	sp,sp,-48
    134e:	d622                	sw	s0,44(sp)
    1350:	1800                	addi	s0,sp,48
    1352:	fca42e23          	sw	a0,-36(s0)
    1356:	fcb42c23          	sw	a1,-40(s0)
E:/桌面/19th智能车/单片机培训、考核/CH32V103_Library-master/Seekfree_CH32V103R8T6_Opensource_Library/Libraries/wch_Libraries/Peripheral/ch32v10x_tim.c:147
  uint16_t tmpccmrx = 0, tmpccer = 0, tmpcr2 = 0;
    135a:	fe041523          	sh	zero,-22(s0)
    135e:	fe041723          	sh	zero,-18(s0)
    1362:	fe041623          	sh	zero,-20(s0)
E:/桌面/19th智能车/单片机培训、考核/CH32V103_Library-master/Seekfree_CH32V103R8T6_Opensource_Library/Libraries/wch_Libraries/Peripheral/ch32v10x_tim.c:149
   
  TIMx->CCER &= (uint16_t)(~((uint16_t)TIM_CC2E)); 
    1366:	fdc42783          	lw	a5,-36(s0)
    136a:	0207d783          	lhu	a5,32(a5)
    136e:	07c2                	slli	a5,a5,0x10
    1370:	83c1                	srli	a5,a5,0x10
    1372:	9bbd                	andi	a5,a5,-17
    1374:	01079713          	slli	a4,a5,0x10
    1378:	8341                	srli	a4,a4,0x10
    137a:	fdc42783          	lw	a5,-36(s0)
    137e:	02e79023          	sh	a4,32(a5)
E:/桌面/19th智能车/单片机培训、考核/CH32V103_Library-master/Seekfree_CH32V103R8T6_Opensource_Library/Libraries/wch_Libraries/Peripheral/ch32v10x_tim.c:150
  tmpccer = TIMx->CCER;
    1382:	fdc42783          	lw	a5,-36(s0)
    1386:	0207d783          	lhu	a5,32(a5)
    138a:	fef41723          	sh	a5,-18(s0)
E:/桌面/19th智能车/单片机培训、考核/CH32V103_Library-master/Seekfree_CH32V103R8T6_Opensource_Library/Libraries/wch_Libraries/Peripheral/ch32v10x_tim.c:151
  tmpcr2 =  TIMx->CTLR2;
    138e:	fdc42783          	lw	a5,-36(s0)
    1392:	0047d783          	lhu	a5,4(a5)
    1396:	fef41623          	sh	a5,-20(s0)
E:/桌面/19th智能车/单片机培训、考核/CH32V103_Library-master/Seekfree_CH32V103R8T6_Opensource_Library/Libraries/wch_Libraries/Peripheral/ch32v10x_tim.c:152
  tmpccmrx = TIMx->CHCTLR1;
    139a:	fdc42783          	lw	a5,-36(s0)
    139e:	0187d783          	lhu	a5,24(a5)
    13a2:	fef41523          	sh	a5,-22(s0)
E:/桌面/19th智能车/单片机培训、考核/CH32V103_Library-master/Seekfree_CH32V103R8T6_Opensource_Library/Libraries/wch_Libraries/Peripheral/ch32v10x_tim.c:153
  tmpccmrx &= (uint16_t)(~((uint16_t)TIM_OC2M));
    13a6:	fea45703          	lhu	a4,-22(s0)
    13aa:	77e5                	lui	a5,0xffff9
    13ac:	17fd                	addi	a5,a5,-1
    13ae:	8ff9                	and	a5,a5,a4
    13b0:	fef41523          	sh	a5,-22(s0)
E:/桌面/19th智能车/单片机培训、考核/CH32V103_Library-master/Seekfree_CH32V103R8T6_Opensource_Library/Libraries/wch_Libraries/Peripheral/ch32v10x_tim.c:154
  tmpccmrx &= (uint16_t)(~((uint16_t)TIM_CC2S));
    13b4:	fea45783          	lhu	a5,-22(s0)
    13b8:	cff7f793          	andi	a5,a5,-769
    13bc:	fef41523          	sh	a5,-22(s0)
E:/桌面/19th智能车/单片机培训、考核/CH32V103_Library-master/Seekfree_CH32V103R8T6_Opensource_Library/Libraries/wch_Libraries/Peripheral/ch32v10x_tim.c:155
  tmpccmrx |= (uint16_t)(TIM_OCInitStruct->TIM_OCMode << 8);
    13c0:	fd842783          	lw	a5,-40(s0)
    13c4:	0007d783          	lhu	a5,0(a5) # ffff9000 <_eusrstack+0xdfff4000>
    13c8:	07a2                	slli	a5,a5,0x8
    13ca:	01079713          	slli	a4,a5,0x10
    13ce:	8341                	srli	a4,a4,0x10
    13d0:	fea45783          	lhu	a5,-22(s0)
    13d4:	8fd9                	or	a5,a5,a4
    13d6:	fef41523          	sh	a5,-22(s0)
E:/桌面/19th智能车/单片机培训、考核/CH32V103_Library-master/Seekfree_CH32V103R8T6_Opensource_Library/Libraries/wch_Libraries/Peripheral/ch32v10x_tim.c:156
  tmpccer &= (uint16_t)(~((uint16_t)TIM_CC2P));
    13da:	fee45783          	lhu	a5,-18(s0)
    13de:	fdf7f793          	andi	a5,a5,-33
    13e2:	fef41723          	sh	a5,-18(s0)
E:/桌面/19th智能车/单片机培训、考核/CH32V103_Library-master/Seekfree_CH32V103R8T6_Opensource_Library/Libraries/wch_Libraries/Peripheral/ch32v10x_tim.c:157
  tmpccer |= (uint16_t)(TIM_OCInitStruct->TIM_OCPolarity << 4);
    13e6:	fd842783          	lw	a5,-40(s0)
    13ea:	0087d783          	lhu	a5,8(a5)
    13ee:	0792                	slli	a5,a5,0x4
    13f0:	01079713          	slli	a4,a5,0x10
    13f4:	8341                	srli	a4,a4,0x10
    13f6:	fee45783          	lhu	a5,-18(s0)
    13fa:	8fd9                	or	a5,a5,a4
    13fc:	fef41723          	sh	a5,-18(s0)
E:/桌面/19th智能车/单片机培训、考核/CH32V103_Library-master/Seekfree_CH32V103R8T6_Opensource_Library/Libraries/wch_Libraries/Peripheral/ch32v10x_tim.c:158
  tmpccer |= (uint16_t)(TIM_OCInitStruct->TIM_OutputState << 4);
    1400:	fd842783          	lw	a5,-40(s0)
    1404:	0027d783          	lhu	a5,2(a5)
    1408:	0792                	slli	a5,a5,0x4
    140a:	01079713          	slli	a4,a5,0x10
    140e:	8341                	srli	a4,a4,0x10
    1410:	fee45783          	lhu	a5,-18(s0)
    1414:	8fd9                	or	a5,a5,a4
    1416:	fef41723          	sh	a5,-18(s0)
E:/桌面/19th智能车/单片机培训、考核/CH32V103_Library-master/Seekfree_CH32V103R8T6_Opensource_Library/Libraries/wch_Libraries/Peripheral/ch32v10x_tim.c:160
    
  if(TIMx == TIM1)
    141a:	fdc42703          	lw	a4,-36(s0)
    141e:	400137b7          	lui	a5,0x40013
    1422:	c0078793          	addi	a5,a5,-1024 # 40012c00 <_eusrstack+0x2000dc00>
    1426:	0af71063          	bne	a4,a5,14c6 <TIM_OC2Init+0x17a>
E:/桌面/19th智能车/单片机培训、考核/CH32V103_Library-master/Seekfree_CH32V103R8T6_Opensource_Library/Libraries/wch_Libraries/Peripheral/ch32v10x_tim.c:162
  {
    tmpccer &= (uint16_t)(~((uint16_t)TIM_CC2NP));
    142a:	fee45783          	lhu	a5,-18(s0)
    142e:	f7f7f793          	andi	a5,a5,-129
    1432:	fef41723          	sh	a5,-18(s0)
E:/桌面/19th智能车/单片机培训、考核/CH32V103_Library-master/Seekfree_CH32V103R8T6_Opensource_Library/Libraries/wch_Libraries/Peripheral/ch32v10x_tim.c:163
    tmpccer |= (uint16_t)(TIM_OCInitStruct->TIM_OCNPolarity << 4);
    1436:	fd842783          	lw	a5,-40(s0)
    143a:	00a7d783          	lhu	a5,10(a5)
    143e:	0792                	slli	a5,a5,0x4
    1440:	01079713          	slli	a4,a5,0x10
    1444:	8341                	srli	a4,a4,0x10
    1446:	fee45783          	lhu	a5,-18(s0)
    144a:	8fd9                	or	a5,a5,a4
    144c:	fef41723          	sh	a5,-18(s0)
E:/桌面/19th智能车/单片机培训、考核/CH32V103_Library-master/Seekfree_CH32V103R8T6_Opensource_Library/Libraries/wch_Libraries/Peripheral/ch32v10x_tim.c:164
    tmpccer &= (uint16_t)(~((uint16_t)TIM_CC2NE));    
    1450:	fee45783          	lhu	a5,-18(s0)
    1454:	fbf7f793          	andi	a5,a5,-65
    1458:	fef41723          	sh	a5,-18(s0)
E:/桌面/19th智能车/单片机培训、考核/CH32V103_Library-master/Seekfree_CH32V103R8T6_Opensource_Library/Libraries/wch_Libraries/Peripheral/ch32v10x_tim.c:165
    tmpccer |= (uint16_t)(TIM_OCInitStruct->TIM_OutputNState << 4);
    145c:	fd842783          	lw	a5,-40(s0)
    1460:	0047d783          	lhu	a5,4(a5)
    1464:	0792                	slli	a5,a5,0x4
    1466:	01079713          	slli	a4,a5,0x10
    146a:	8341                	srli	a4,a4,0x10
    146c:	fee45783          	lhu	a5,-18(s0)
    1470:	8fd9                	or	a5,a5,a4
    1472:	fef41723          	sh	a5,-18(s0)
E:/桌面/19th智能车/单片机培训、考核/CH32V103_Library-master/Seekfree_CH32V103R8T6_Opensource_Library/Libraries/wch_Libraries/Peripheral/ch32v10x_tim.c:167
    
    tmpcr2 &= (uint16_t)(~((uint16_t)TIM_OIS2));
    1476:	fec45783          	lhu	a5,-20(s0)
    147a:	bff7f793          	andi	a5,a5,-1025
    147e:	fef41623          	sh	a5,-20(s0)
E:/桌面/19th智能车/单片机培训、考核/CH32V103_Library-master/Seekfree_CH32V103R8T6_Opensource_Library/Libraries/wch_Libraries/Peripheral/ch32v10x_tim.c:168
    tmpcr2 &= (uint16_t)(~((uint16_t)TIM_OIS2N));
    1482:	fec45703          	lhu	a4,-20(s0)
    1486:	77fd                	lui	a5,0xfffff
    1488:	7ff78793          	addi	a5,a5,2047 # fffff7ff <_eusrstack+0xdfffa7ff>
    148c:	8ff9                	and	a5,a5,a4
    148e:	fef41623          	sh	a5,-20(s0)
E:/桌面/19th智能车/单片机培训、考核/CH32V103_Library-master/Seekfree_CH32V103R8T6_Opensource_Library/Libraries/wch_Libraries/Peripheral/ch32v10x_tim.c:169
    tmpcr2 |= (uint16_t)(TIM_OCInitStruct->TIM_OCIdleState << 2);
    1492:	fd842783          	lw	a5,-40(s0)
    1496:	00c7d783          	lhu	a5,12(a5)
    149a:	078a                	slli	a5,a5,0x2
    149c:	01079713          	slli	a4,a5,0x10
    14a0:	8341                	srli	a4,a4,0x10
    14a2:	fec45783          	lhu	a5,-20(s0)
    14a6:	8fd9                	or	a5,a5,a4
    14a8:	fef41623          	sh	a5,-20(s0)
E:/桌面/19th智能车/单片机培训、考核/CH32V103_Library-master/Seekfree_CH32V103R8T6_Opensource_Library/Libraries/wch_Libraries/Peripheral/ch32v10x_tim.c:170
    tmpcr2 |= (uint16_t)(TIM_OCInitStruct->TIM_OCNIdleState << 2);
    14ac:	fd842783          	lw	a5,-40(s0)
    14b0:	00e7d783          	lhu	a5,14(a5)
    14b4:	078a                	slli	a5,a5,0x2
    14b6:	01079713          	slli	a4,a5,0x10
    14ba:	8341                	srli	a4,a4,0x10
    14bc:	fec45783          	lhu	a5,-20(s0)
    14c0:	8fd9                	or	a5,a5,a4
    14c2:	fef41623          	sh	a5,-20(s0)
E:/桌面/19th智能车/单片机培训、考核/CH32V103_Library-master/Seekfree_CH32V103R8T6_Opensource_Library/Libraries/wch_Libraries/Peripheral/ch32v10x_tim.c:173
  }

  TIMx->CTLR2 = tmpcr2;
    14c6:	fdc42783          	lw	a5,-36(s0)
    14ca:	fec45703          	lhu	a4,-20(s0)
    14ce:	00e79223          	sh	a4,4(a5)
E:/桌面/19th智能车/单片机培训、考核/CH32V103_Library-master/Seekfree_CH32V103R8T6_Opensource_Library/Libraries/wch_Libraries/Peripheral/ch32v10x_tim.c:174
  TIMx->CHCTLR1 = tmpccmrx;
    14d2:	fdc42783          	lw	a5,-36(s0)
    14d6:	fea45703          	lhu	a4,-22(s0)
    14da:	00e79c23          	sh	a4,24(a5)
E:/桌面/19th智能车/单片机培训、考核/CH32V103_Library-master/Seekfree_CH32V103R8T6_Opensource_Library/Libraries/wch_Libraries/Peripheral/ch32v10x_tim.c:175
  TIMx->CH2CVR = TIM_OCInitStruct->TIM_Pulse;
    14de:	fd842783          	lw	a5,-40(s0)
    14e2:	0067d703          	lhu	a4,6(a5)
    14e6:	fdc42783          	lw	a5,-36(s0)
    14ea:	02e79c23          	sh	a4,56(a5)
E:/桌面/19th智能车/单片机培训、考核/CH32V103_Library-master/Seekfree_CH32V103R8T6_Opensource_Library/Libraries/wch_Libraries/Peripheral/ch32v10x_tim.c:176
  TIMx->CCER = tmpccer;
    14ee:	fdc42783          	lw	a5,-36(s0)
    14f2:	fee45703          	lhu	a4,-18(s0)
    14f6:	02e79023          	sh	a4,32(a5)
E:/桌面/19th智能车/单片机培训、考核/CH32V103_Library-master/Seekfree_CH32V103R8T6_Opensource_Library/Libraries/wch_Libraries/Peripheral/ch32v10x_tim.c:177
}
    14fa:	0001                	nop
    14fc:	5432                	lw	s0,44(sp)
    14fe:	6145                	addi	sp,sp,48
    1500:	8082                	ret

00001502 <TIM_OC3Init>:
TIM_OC3Init():
E:/桌面/19th智能车/单片机培训、考核/CH32V103_Library-master/Seekfree_CH32V103R8T6_Opensource_Library/Libraries/wch_Libraries/Peripheral/ch32v10x_tim.c:188
* Input          : TIMx: where x can be 1 to 4 to select the TIM peripheral.
*                  TIM_OCInitStruct: pointer to a TIM_OCInitTypeDef structure.
* Return         : None
*******************************************************************************/
void TIM_OC3Init(TIM_TypeDef* TIMx, TIM_OCInitTypeDef* TIM_OCInitStruct)
{
    1502:	7179                	addi	sp,sp,-48
    1504:	d622                	sw	s0,44(sp)
    1506:	1800                	addi	s0,sp,48
    1508:	fca42e23          	sw	a0,-36(s0)
    150c:	fcb42c23          	sw	a1,-40(s0)
E:/桌面/19th智能车/单片机培训、考核/CH32V103_Library-master/Seekfree_CH32V103R8T6_Opensource_Library/Libraries/wch_Libraries/Peripheral/ch32v10x_tim.c:189
  uint16_t tmpccmrx = 0, tmpccer = 0, tmpcr2 = 0;
    1510:	fe041523          	sh	zero,-22(s0)
    1514:	fe041723          	sh	zero,-18(s0)
    1518:	fe041623          	sh	zero,-20(s0)
E:/桌面/19th智能车/单片机培训、考核/CH32V103_Library-master/Seekfree_CH32V103R8T6_Opensource_Library/Libraries/wch_Libraries/Peripheral/ch32v10x_tim.c:191
   
  TIMx->CCER &= (uint16_t)(~((uint16_t)TIM_CC3E));
    151c:	fdc42783          	lw	a5,-36(s0)
    1520:	0207d783          	lhu	a5,32(a5)
    1524:	07c2                	slli	a5,a5,0x10
    1526:	83c1                	srli	a5,a5,0x10
    1528:	eff7f793          	andi	a5,a5,-257
    152c:	01079713          	slli	a4,a5,0x10
    1530:	8341                	srli	a4,a4,0x10
    1532:	fdc42783          	lw	a5,-36(s0)
    1536:	02e79023          	sh	a4,32(a5)
E:/桌面/19th智能车/单片机培训、考核/CH32V103_Library-master/Seekfree_CH32V103R8T6_Opensource_Library/Libraries/wch_Libraries/Peripheral/ch32v10x_tim.c:192
  tmpccer = TIMx->CCER;
    153a:	fdc42783          	lw	a5,-36(s0)
    153e:	0207d783          	lhu	a5,32(a5)
    1542:	fef41723          	sh	a5,-18(s0)
E:/桌面/19th智能车/单片机培训、考核/CH32V103_Library-master/Seekfree_CH32V103R8T6_Opensource_Library/Libraries/wch_Libraries/Peripheral/ch32v10x_tim.c:193
  tmpcr2 =  TIMx->CTLR2;
    1546:	fdc42783          	lw	a5,-36(s0)
    154a:	0047d783          	lhu	a5,4(a5)
    154e:	fef41623          	sh	a5,-20(s0)
E:/桌面/19th智能车/单片机培训、考核/CH32V103_Library-master/Seekfree_CH32V103R8T6_Opensource_Library/Libraries/wch_Libraries/Peripheral/ch32v10x_tim.c:194
  tmpccmrx = TIMx->CHCTLR2;
    1552:	fdc42783          	lw	a5,-36(s0)
    1556:	01c7d783          	lhu	a5,28(a5)
    155a:	fef41523          	sh	a5,-22(s0)
E:/桌面/19th智能车/单片机培训、考核/CH32V103_Library-master/Seekfree_CH32V103R8T6_Opensource_Library/Libraries/wch_Libraries/Peripheral/ch32v10x_tim.c:195
  tmpccmrx &= (uint16_t)(~((uint16_t)TIM_OC3M));
    155e:	fea45783          	lhu	a5,-22(s0)
    1562:	f8f7f793          	andi	a5,a5,-113
    1566:	fef41523          	sh	a5,-22(s0)
E:/桌面/19th智能车/单片机培训、考核/CH32V103_Library-master/Seekfree_CH32V103R8T6_Opensource_Library/Libraries/wch_Libraries/Peripheral/ch32v10x_tim.c:196
  tmpccmrx &= (uint16_t)(~((uint16_t)TIM_CC3S));  
    156a:	fea45783          	lhu	a5,-22(s0)
    156e:	9bf1                	andi	a5,a5,-4
    1570:	fef41523          	sh	a5,-22(s0)
E:/桌面/19th智能车/单片机培训、考核/CH32V103_Library-master/Seekfree_CH32V103R8T6_Opensource_Library/Libraries/wch_Libraries/Peripheral/ch32v10x_tim.c:197
  tmpccmrx |= TIM_OCInitStruct->TIM_OCMode;
    1574:	fd842783          	lw	a5,-40(s0)
    1578:	0007d703          	lhu	a4,0(a5)
    157c:	fea45783          	lhu	a5,-22(s0)
    1580:	8fd9                	or	a5,a5,a4
    1582:	fef41523          	sh	a5,-22(s0)
E:/桌面/19th智能车/单片机培训、考核/CH32V103_Library-master/Seekfree_CH32V103R8T6_Opensource_Library/Libraries/wch_Libraries/Peripheral/ch32v10x_tim.c:198
  tmpccer &= (uint16_t)(~((uint16_t)TIM_CC3P));
    1586:	fee45783          	lhu	a5,-18(s0)
    158a:	dff7f793          	andi	a5,a5,-513
    158e:	fef41723          	sh	a5,-18(s0)
E:/桌面/19th智能车/单片机培训、考核/CH32V103_Library-master/Seekfree_CH32V103R8T6_Opensource_Library/Libraries/wch_Libraries/Peripheral/ch32v10x_tim.c:199
  tmpccer |= (uint16_t)(TIM_OCInitStruct->TIM_OCPolarity << 8);
    1592:	fd842783          	lw	a5,-40(s0)
    1596:	0087d783          	lhu	a5,8(a5)
    159a:	07a2                	slli	a5,a5,0x8
    159c:	01079713          	slli	a4,a5,0x10
    15a0:	8341                	srli	a4,a4,0x10
    15a2:	fee45783          	lhu	a5,-18(s0)
    15a6:	8fd9                	or	a5,a5,a4
    15a8:	fef41723          	sh	a5,-18(s0)
E:/桌面/19th智能车/单片机培训、考核/CH32V103_Library-master/Seekfree_CH32V103R8T6_Opensource_Library/Libraries/wch_Libraries/Peripheral/ch32v10x_tim.c:200
  tmpccer |= (uint16_t)(TIM_OCInitStruct->TIM_OutputState << 8);
    15ac:	fd842783          	lw	a5,-40(s0)
    15b0:	0027d783          	lhu	a5,2(a5)
    15b4:	07a2                	slli	a5,a5,0x8
    15b6:	01079713          	slli	a4,a5,0x10
    15ba:	8341                	srli	a4,a4,0x10
    15bc:	fee45783          	lhu	a5,-18(s0)
    15c0:	8fd9                	or	a5,a5,a4
    15c2:	fef41723          	sh	a5,-18(s0)
E:/桌面/19th智能车/单片机培训、考核/CH32V103_Library-master/Seekfree_CH32V103R8T6_Opensource_Library/Libraries/wch_Libraries/Peripheral/ch32v10x_tim.c:202
    
  if(TIMx == TIM1)
    15c6:	fdc42703          	lw	a4,-36(s0)
    15ca:	400137b7          	lui	a5,0x40013
    15ce:	c0078793          	addi	a5,a5,-1024 # 40012c00 <_eusrstack+0x2000dc00>
    15d2:	0af71263          	bne	a4,a5,1676 <TIM_OC3Init+0x174>
E:/桌面/19th智能车/单片机培训、考核/CH32V103_Library-master/Seekfree_CH32V103R8T6_Opensource_Library/Libraries/wch_Libraries/Peripheral/ch32v10x_tim.c:204
  {
    tmpccer &= (uint16_t)(~((uint16_t)TIM_CC3NP));
    15d6:	fee45703          	lhu	a4,-18(s0)
    15da:	77fd                	lui	a5,0xfffff
    15dc:	7ff78793          	addi	a5,a5,2047 # fffff7ff <_eusrstack+0xdfffa7ff>
    15e0:	8ff9                	and	a5,a5,a4
    15e2:	fef41723          	sh	a5,-18(s0)
E:/桌面/19th智能车/单片机培训、考核/CH32V103_Library-master/Seekfree_CH32V103R8T6_Opensource_Library/Libraries/wch_Libraries/Peripheral/ch32v10x_tim.c:205
    tmpccer |= (uint16_t)(TIM_OCInitStruct->TIM_OCNPolarity << 8);
    15e6:	fd842783          	lw	a5,-40(s0)
    15ea:	00a7d783          	lhu	a5,10(a5)
    15ee:	07a2                	slli	a5,a5,0x8
    15f0:	01079713          	slli	a4,a5,0x10
    15f4:	8341                	srli	a4,a4,0x10
    15f6:	fee45783          	lhu	a5,-18(s0)
    15fa:	8fd9                	or	a5,a5,a4
    15fc:	fef41723          	sh	a5,-18(s0)
E:/桌面/19th智能车/单片机培训、考核/CH32V103_Library-master/Seekfree_CH32V103R8T6_Opensource_Library/Libraries/wch_Libraries/Peripheral/ch32v10x_tim.c:206
    tmpccer &= (uint16_t)(~((uint16_t)TIM_CC3NE));
    1600:	fee45783          	lhu	a5,-18(s0)
    1604:	bff7f793          	andi	a5,a5,-1025
    1608:	fef41723          	sh	a5,-18(s0)
E:/桌面/19th智能车/单片机培训、考核/CH32V103_Library-master/Seekfree_CH32V103R8T6_Opensource_Library/Libraries/wch_Libraries/Peripheral/ch32v10x_tim.c:207
    tmpccer |= (uint16_t)(TIM_OCInitStruct->TIM_OutputNState << 8);
    160c:	fd842783          	lw	a5,-40(s0)
    1610:	0047d783          	lhu	a5,4(a5)
    1614:	07a2                	slli	a5,a5,0x8
    1616:	01079713          	slli	a4,a5,0x10
    161a:	8341                	srli	a4,a4,0x10
    161c:	fee45783          	lhu	a5,-18(s0)
    1620:	8fd9                	or	a5,a5,a4
    1622:	fef41723          	sh	a5,-18(s0)
E:/桌面/19th智能车/单片机培训、考核/CH32V103_Library-master/Seekfree_CH32V103R8T6_Opensource_Library/Libraries/wch_Libraries/Peripheral/ch32v10x_tim.c:208
    tmpcr2 &= (uint16_t)(~((uint16_t)TIM_OIS3));
    1626:	fec45703          	lhu	a4,-20(s0)
    162a:	77fd                	lui	a5,0xfffff
    162c:	17fd                	addi	a5,a5,-1
    162e:	8ff9                	and	a5,a5,a4
    1630:	fef41623          	sh	a5,-20(s0)
E:/桌面/19th智能车/单片机培训、考核/CH32V103_Library-master/Seekfree_CH32V103R8T6_Opensource_Library/Libraries/wch_Libraries/Peripheral/ch32v10x_tim.c:209
    tmpcr2 &= (uint16_t)(~((uint16_t)TIM_OIS3N));
    1634:	fec45703          	lhu	a4,-20(s0)
    1638:	77f9                	lui	a5,0xffffe
    163a:	17fd                	addi	a5,a5,-1
    163c:	8ff9                	and	a5,a5,a4
    163e:	fef41623          	sh	a5,-20(s0)
E:/桌面/19th智能车/单片机培训、考核/CH32V103_Library-master/Seekfree_CH32V103R8T6_Opensource_Library/Libraries/wch_Libraries/Peripheral/ch32v10x_tim.c:210
    tmpcr2 |= (uint16_t)(TIM_OCInitStruct->TIM_OCIdleState << 4);
    1642:	fd842783          	lw	a5,-40(s0)
    1646:	00c7d783          	lhu	a5,12(a5) # ffffe00c <_eusrstack+0xdfff900c>
    164a:	0792                	slli	a5,a5,0x4
    164c:	01079713          	slli	a4,a5,0x10
    1650:	8341                	srli	a4,a4,0x10
    1652:	fec45783          	lhu	a5,-20(s0)
    1656:	8fd9                	or	a5,a5,a4
    1658:	fef41623          	sh	a5,-20(s0)
E:/桌面/19th智能车/单片机培训、考核/CH32V103_Library-master/Seekfree_CH32V103R8T6_Opensource_Library/Libraries/wch_Libraries/Peripheral/ch32v10x_tim.c:211
    tmpcr2 |= (uint16_t)(TIM_OCInitStruct->TIM_OCNIdleState << 4);
    165c:	fd842783          	lw	a5,-40(s0)
    1660:	00e7d783          	lhu	a5,14(a5)
    1664:	0792                	slli	a5,a5,0x4
    1666:	01079713          	slli	a4,a5,0x10
    166a:	8341                	srli	a4,a4,0x10
    166c:	fec45783          	lhu	a5,-20(s0)
    1670:	8fd9                	or	a5,a5,a4
    1672:	fef41623          	sh	a5,-20(s0)
E:/桌面/19th智能车/单片机培训、考核/CH32V103_Library-master/Seekfree_CH32V103R8T6_Opensource_Library/Libraries/wch_Libraries/Peripheral/ch32v10x_tim.c:214
  }

  TIMx->CTLR2 = tmpcr2;
    1676:	fdc42783          	lw	a5,-36(s0)
    167a:	fec45703          	lhu	a4,-20(s0)
    167e:	00e79223          	sh	a4,4(a5)
E:/桌面/19th智能车/单片机培训、考核/CH32V103_Library-master/Seekfree_CH32V103R8T6_Opensource_Library/Libraries/wch_Libraries/Peripheral/ch32v10x_tim.c:215
  TIMx->CHCTLR2 = tmpccmrx;
    1682:	fdc42783          	lw	a5,-36(s0)
    1686:	fea45703          	lhu	a4,-22(s0)
    168a:	00e79e23          	sh	a4,28(a5)
E:/桌面/19th智能车/单片机培训、考核/CH32V103_Library-master/Seekfree_CH32V103R8T6_Opensource_Library/Libraries/wch_Libraries/Peripheral/ch32v10x_tim.c:216
  TIMx->CH3CVR = TIM_OCInitStruct->TIM_Pulse;
    168e:	fd842783          	lw	a5,-40(s0)
    1692:	0067d703          	lhu	a4,6(a5)
    1696:	fdc42783          	lw	a5,-36(s0)
    169a:	02e79e23          	sh	a4,60(a5)
E:/桌面/19th智能车/单片机培训、考核/CH32V103_Library-master/Seekfree_CH32V103R8T6_Opensource_Library/Libraries/wch_Libraries/Peripheral/ch32v10x_tim.c:217
  TIMx->CCER = tmpccer;
    169e:	fdc42783          	lw	a5,-36(s0)
    16a2:	fee45703          	lhu	a4,-18(s0)
    16a6:	02e79023          	sh	a4,32(a5)
E:/桌面/19th智能车/单片机培训、考核/CH32V103_Library-master/Seekfree_CH32V103R8T6_Opensource_Library/Libraries/wch_Libraries/Peripheral/ch32v10x_tim.c:218
}
    16aa:	0001                	nop
    16ac:	5432                	lw	s0,44(sp)
    16ae:	6145                	addi	sp,sp,48
    16b0:	8082                	ret

000016b2 <TIM_OC4Init>:
TIM_OC4Init():
E:/桌面/19th智能车/单片机培训、考核/CH32V103_Library-master/Seekfree_CH32V103R8T6_Opensource_Library/Libraries/wch_Libraries/Peripheral/ch32v10x_tim.c:229
* Input          : TIMx: where x can be 1 to 4 to select the TIM peripheral.
*                  TIM_OCInitStruct: pointer to a TIM_OCInitTypeDef structure.
* Return         : None
*******************************************************************************/
void TIM_OC4Init(TIM_TypeDef* TIMx, TIM_OCInitTypeDef* TIM_OCInitStruct)
{
    16b2:	7179                	addi	sp,sp,-48
    16b4:	d622                	sw	s0,44(sp)
    16b6:	1800                	addi	s0,sp,48
    16b8:	fca42e23          	sw	a0,-36(s0)
    16bc:	fcb42c23          	sw	a1,-40(s0)
E:/桌面/19th智能车/单片机培训、考核/CH32V103_Library-master/Seekfree_CH32V103R8T6_Opensource_Library/Libraries/wch_Libraries/Peripheral/ch32v10x_tim.c:230
  uint16_t tmpccmrx = 0, tmpccer = 0, tmpcr2 = 0;
    16c0:	fe041623          	sh	zero,-20(s0)
    16c4:	fe041523          	sh	zero,-22(s0)
    16c8:	fe041723          	sh	zero,-18(s0)
E:/桌面/19th智能车/单片机培训、考核/CH32V103_Library-master/Seekfree_CH32V103R8T6_Opensource_Library/Libraries/wch_Libraries/Peripheral/ch32v10x_tim.c:232

  TIMx->CCER &= (uint16_t)(~((uint16_t)TIM_CC4E));
    16cc:	fdc42783          	lw	a5,-36(s0)
    16d0:	0207d783          	lhu	a5,32(a5)
    16d4:	01079713          	slli	a4,a5,0x10
    16d8:	8341                	srli	a4,a4,0x10
    16da:	77fd                	lui	a5,0xfffff
    16dc:	17fd                	addi	a5,a5,-1
    16de:	8ff9                	and	a5,a5,a4
    16e0:	01079713          	slli	a4,a5,0x10
    16e4:	8341                	srli	a4,a4,0x10
    16e6:	fdc42783          	lw	a5,-36(s0)
    16ea:	02e79023          	sh	a4,32(a5) # fffff020 <_eusrstack+0xdfffa020>
E:/桌面/19th智能车/单片机培训、考核/CH32V103_Library-master/Seekfree_CH32V103R8T6_Opensource_Library/Libraries/wch_Libraries/Peripheral/ch32v10x_tim.c:233
  tmpccer = TIMx->CCER;
    16ee:	fdc42783          	lw	a5,-36(s0)
    16f2:	0207d783          	lhu	a5,32(a5)
    16f6:	fef41523          	sh	a5,-22(s0)
E:/桌面/19th智能车/单片机培训、考核/CH32V103_Library-master/Seekfree_CH32V103R8T6_Opensource_Library/Libraries/wch_Libraries/Peripheral/ch32v10x_tim.c:234
  tmpcr2 =  TIMx->CTLR2;
    16fa:	fdc42783          	lw	a5,-36(s0)
    16fe:	0047d783          	lhu	a5,4(a5)
    1702:	fef41723          	sh	a5,-18(s0)
E:/桌面/19th智能车/单片机培训、考核/CH32V103_Library-master/Seekfree_CH32V103R8T6_Opensource_Library/Libraries/wch_Libraries/Peripheral/ch32v10x_tim.c:235
  tmpccmrx = TIMx->CHCTLR2;
    1706:	fdc42783          	lw	a5,-36(s0)
    170a:	01c7d783          	lhu	a5,28(a5)
    170e:	fef41623          	sh	a5,-20(s0)
E:/桌面/19th智能车/单片机培训、考核/CH32V103_Library-master/Seekfree_CH32V103R8T6_Opensource_Library/Libraries/wch_Libraries/Peripheral/ch32v10x_tim.c:236
  tmpccmrx &= (uint16_t)(~((uint16_t)TIM_OC4M));
    1712:	fec45703          	lhu	a4,-20(s0)
    1716:	77e5                	lui	a5,0xffff9
    1718:	17fd                	addi	a5,a5,-1
    171a:	8ff9                	and	a5,a5,a4
    171c:	fef41623          	sh	a5,-20(s0)
E:/桌面/19th智能车/单片机培训、考核/CH32V103_Library-master/Seekfree_CH32V103R8T6_Opensource_Library/Libraries/wch_Libraries/Peripheral/ch32v10x_tim.c:237
  tmpccmrx &= (uint16_t)(~((uint16_t)TIM_CC4S));
    1720:	fec45783          	lhu	a5,-20(s0)
    1724:	cff7f793          	andi	a5,a5,-769
    1728:	fef41623          	sh	a5,-20(s0)
E:/桌面/19th智能车/单片机培训、考核/CH32V103_Library-master/Seekfree_CH32V103R8T6_Opensource_Library/Libraries/wch_Libraries/Peripheral/ch32v10x_tim.c:238
  tmpccmrx |= (uint16_t)(TIM_OCInitStruct->TIM_OCMode << 8);
    172c:	fd842783          	lw	a5,-40(s0)
    1730:	0007d783          	lhu	a5,0(a5) # ffff9000 <_eusrstack+0xdfff4000>
    1734:	07a2                	slli	a5,a5,0x8
    1736:	01079713          	slli	a4,a5,0x10
    173a:	8341                	srli	a4,a4,0x10
    173c:	fec45783          	lhu	a5,-20(s0)
    1740:	8fd9                	or	a5,a5,a4
    1742:	fef41623          	sh	a5,-20(s0)
E:/桌面/19th智能车/单片机培训、考核/CH32V103_Library-master/Seekfree_CH32V103R8T6_Opensource_Library/Libraries/wch_Libraries/Peripheral/ch32v10x_tim.c:239
  tmpccer &= (uint16_t)(~((uint16_t)TIM_CC4P));
    1746:	fea45703          	lhu	a4,-22(s0)
    174a:	77f9                	lui	a5,0xffffe
    174c:	17fd                	addi	a5,a5,-1
    174e:	8ff9                	and	a5,a5,a4
    1750:	fef41523          	sh	a5,-22(s0)
E:/桌面/19th智能车/单片机培训、考核/CH32V103_Library-master/Seekfree_CH32V103R8T6_Opensource_Library/Libraries/wch_Libraries/Peripheral/ch32v10x_tim.c:240
  tmpccer |= (uint16_t)(TIM_OCInitStruct->TIM_OCPolarity << 12);
    1754:	fd842783          	lw	a5,-40(s0)
    1758:	0087d783          	lhu	a5,8(a5) # ffffe008 <_eusrstack+0xdfff9008>
    175c:	07b2                	slli	a5,a5,0xc
    175e:	01079713          	slli	a4,a5,0x10
    1762:	8341                	srli	a4,a4,0x10
    1764:	fea45783          	lhu	a5,-22(s0)
    1768:	8fd9                	or	a5,a5,a4
    176a:	fef41523          	sh	a5,-22(s0)
E:/桌面/19th智能车/单片机培训、考核/CH32V103_Library-master/Seekfree_CH32V103R8T6_Opensource_Library/Libraries/wch_Libraries/Peripheral/ch32v10x_tim.c:241
  tmpccer |= (uint16_t)(TIM_OCInitStruct->TIM_OutputState << 12);
    176e:	fd842783          	lw	a5,-40(s0)
    1772:	0027d783          	lhu	a5,2(a5)
    1776:	07b2                	slli	a5,a5,0xc
    1778:	01079713          	slli	a4,a5,0x10
    177c:	8341                	srli	a4,a4,0x10
    177e:	fea45783          	lhu	a5,-22(s0)
    1782:	8fd9                	or	a5,a5,a4
    1784:	fef41523          	sh	a5,-22(s0)
E:/桌面/19th智能车/单片机培训、考核/CH32V103_Library-master/Seekfree_CH32V103R8T6_Opensource_Library/Libraries/wch_Libraries/Peripheral/ch32v10x_tim.c:243
    
  if(TIMx == TIM1)
    1788:	fdc42703          	lw	a4,-36(s0)
    178c:	400137b7          	lui	a5,0x40013
    1790:	c0078793          	addi	a5,a5,-1024 # 40012c00 <_eusrstack+0x2000dc00>
    1794:	02f71663          	bne	a4,a5,17c0 <TIM_OC4Init+0x10e>
E:/桌面/19th智能车/单片机培训、考核/CH32V103_Library-master/Seekfree_CH32V103R8T6_Opensource_Library/Libraries/wch_Libraries/Peripheral/ch32v10x_tim.c:245
  {
    tmpcr2 &= (uint16_t)(~((uint16_t)TIM_OIS4));
    1798:	fee45703          	lhu	a4,-18(s0)
    179c:	77f1                	lui	a5,0xffffc
    179e:	17fd                	addi	a5,a5,-1
    17a0:	8ff9                	and	a5,a5,a4
    17a2:	fef41723          	sh	a5,-18(s0)
E:/桌面/19th智能车/单片机培训、考核/CH32V103_Library-master/Seekfree_CH32V103R8T6_Opensource_Library/Libraries/wch_Libraries/Peripheral/ch32v10x_tim.c:246
    tmpcr2 |= (uint16_t)(TIM_OCInitStruct->TIM_OCIdleState << 6);
    17a6:	fd842783          	lw	a5,-40(s0)
    17aa:	00c7d783          	lhu	a5,12(a5) # ffffc00c <_eusrstack+0xdfff700c>
    17ae:	079a                	slli	a5,a5,0x6
    17b0:	01079713          	slli	a4,a5,0x10
    17b4:	8341                	srli	a4,a4,0x10
    17b6:	fee45783          	lhu	a5,-18(s0)
    17ba:	8fd9                	or	a5,a5,a4
    17bc:	fef41723          	sh	a5,-18(s0)
E:/桌面/19th智能车/单片机培训、考核/CH32V103_Library-master/Seekfree_CH32V103R8T6_Opensource_Library/Libraries/wch_Libraries/Peripheral/ch32v10x_tim.c:249
  }

  TIMx->CTLR2 = tmpcr2; 
    17c0:	fdc42783          	lw	a5,-36(s0)
    17c4:	fee45703          	lhu	a4,-18(s0)
    17c8:	00e79223          	sh	a4,4(a5)
E:/桌面/19th智能车/单片机培训、考核/CH32V103_Library-master/Seekfree_CH32V103R8T6_Opensource_Library/Libraries/wch_Libraries/Peripheral/ch32v10x_tim.c:250
  TIMx->CHCTLR2 = tmpccmrx;
    17cc:	fdc42783          	lw	a5,-36(s0)
    17d0:	fec45703          	lhu	a4,-20(s0)
    17d4:	00e79e23          	sh	a4,28(a5)
E:/桌面/19th智能车/单片机培训、考核/CH32V103_Library-master/Seekfree_CH32V103R8T6_Opensource_Library/Libraries/wch_Libraries/Peripheral/ch32v10x_tim.c:251
  TIMx->CH4CVR = TIM_OCInitStruct->TIM_Pulse;
    17d8:	fd842783          	lw	a5,-40(s0)
    17dc:	0067d703          	lhu	a4,6(a5)
    17e0:	fdc42783          	lw	a5,-36(s0)
    17e4:	04e79023          	sh	a4,64(a5)
E:/桌面/19th智能车/单片机培训、考核/CH32V103_Library-master/Seekfree_CH32V103R8T6_Opensource_Library/Libraries/wch_Libraries/Peripheral/ch32v10x_tim.c:252
  TIMx->CCER = tmpccer;
    17e8:	fdc42783          	lw	a5,-36(s0)
    17ec:	fea45703          	lhu	a4,-22(s0)
    17f0:	02e79023          	sh	a4,32(a5)
E:/桌面/19th智能车/单片机培训、考核/CH32V103_Library-master/Seekfree_CH32V103R8T6_Opensource_Library/Libraries/wch_Libraries/Peripheral/ch32v10x_tim.c:253
}
    17f4:	0001                	nop
    17f6:	5432                	lw	s0,44(sp)
    17f8:	6145                	addi	sp,sp,48
    17fa:	8082                	ret

000017fc <TIM_TimeBaseStructInit>:
TIM_TimeBaseStructInit():
E:/桌面/19th智能车/单片机培训、考核/CH32V103_Library-master/Seekfree_CH32V103R8T6_Opensource_Library/Libraries/wch_Libraries/Peripheral/ch32v10x_tim.c:367
* Description    : Fills each TIM_TimeBaseInitStruct member with its default value.
* Input          : TIM_TimeBaseInitStruct : pointer to a TIM_TimeBaseInitTypeDef structure.                 
* Return         : None
*******************************************************************************/
void TIM_TimeBaseStructInit(TIM_TimeBaseInitTypeDef* TIM_TimeBaseInitStruct)
{
    17fc:	1101                	addi	sp,sp,-32
    17fe:	ce22                	sw	s0,28(sp)
    1800:	1000                	addi	s0,sp,32
    1802:	fea42623          	sw	a0,-20(s0)
E:/桌面/19th智能车/单片机培训、考核/CH32V103_Library-master/Seekfree_CH32V103R8T6_Opensource_Library/Libraries/wch_Libraries/Peripheral/ch32v10x_tim.c:368
  TIM_TimeBaseInitStruct->TIM_Period = 0xFFFF;
    1806:	fec42783          	lw	a5,-20(s0)
    180a:	577d                	li	a4,-1
    180c:	00e79223          	sh	a4,4(a5)
E:/桌面/19th智能车/单片机培训、考核/CH32V103_Library-master/Seekfree_CH32V103R8T6_Opensource_Library/Libraries/wch_Libraries/Peripheral/ch32v10x_tim.c:369
  TIM_TimeBaseInitStruct->TIM_Prescaler = 0x0000;
    1810:	fec42783          	lw	a5,-20(s0)
    1814:	00079023          	sh	zero,0(a5)
E:/桌面/19th智能车/单片机培训、考核/CH32V103_Library-master/Seekfree_CH32V103R8T6_Opensource_Library/Libraries/wch_Libraries/Peripheral/ch32v10x_tim.c:370
  TIM_TimeBaseInitStruct->TIM_ClockDivision = TIM_CKD_DIV1;
    1818:	fec42783          	lw	a5,-20(s0)
    181c:	00079323          	sh	zero,6(a5)
E:/桌面/19th智能车/单片机培训、考核/CH32V103_Library-master/Seekfree_CH32V103R8T6_Opensource_Library/Libraries/wch_Libraries/Peripheral/ch32v10x_tim.c:371
  TIM_TimeBaseInitStruct->TIM_CounterMode = TIM_CounterMode_Up;
    1820:	fec42783          	lw	a5,-20(s0)
    1824:	00079123          	sh	zero,2(a5)
E:/桌面/19th智能车/单片机培训、考核/CH32V103_Library-master/Seekfree_CH32V103R8T6_Opensource_Library/Libraries/wch_Libraries/Peripheral/ch32v10x_tim.c:372
  TIM_TimeBaseInitStruct->TIM_RepetitionCounter = 0x0000;
    1828:	fec42783          	lw	a5,-20(s0)
    182c:	00078423          	sb	zero,8(a5)
E:/桌面/19th智能车/单片机培训、考核/CH32V103_Library-master/Seekfree_CH32V103R8T6_Opensource_Library/Libraries/wch_Libraries/Peripheral/ch32v10x_tim.c:373
}
    1830:	0001                	nop
    1832:	4472                	lw	s0,28(sp)
    1834:	6105                	addi	sp,sp,32
    1836:	8082                	ret

00001838 <TIM_Cmd>:
TIM_Cmd():
E:/桌面/19th智能车/单片机培训、考核/CH32V103_Library-master/Seekfree_CH32V103R8T6_Opensource_Library/Libraries/wch_Libraries/Peripheral/ch32v10x_tim.c:433
* Input          : TIMx: where x can be 1 to 4 to select the TIM peripheral.
*                  NewState: ENABLE or DISABLE.
* Return         : None
*******************************************************************************/
void TIM_Cmd(TIM_TypeDef* TIMx, FunctionalState NewState)
{ 
    1838:	1101                	addi	sp,sp,-32
    183a:	ce22                	sw	s0,28(sp)
    183c:	1000                	addi	s0,sp,32
    183e:	fea42623          	sw	a0,-20(s0)
    1842:	feb42423          	sw	a1,-24(s0)
E:/桌面/19th智能车/单片机培训、考核/CH32V103_Library-master/Seekfree_CH32V103R8T6_Opensource_Library/Libraries/wch_Libraries/Peripheral/ch32v10x_tim.c:434
  if (NewState != DISABLE)
    1846:	fe842783          	lw	a5,-24(s0)
    184a:	c38d                	beqz	a5,186c <TIM_Cmd+0x34>
E:/桌面/19th智能车/单片机培训、考核/CH32V103_Library-master/Seekfree_CH32V103R8T6_Opensource_Library/Libraries/wch_Libraries/Peripheral/ch32v10x_tim.c:436
  {
    TIMx->CTLR1 |= TIM_CEN;
    184c:	fec42783          	lw	a5,-20(s0)
    1850:	0007d783          	lhu	a5,0(a5)
    1854:	07c2                	slli	a5,a5,0x10
    1856:	83c1                	srli	a5,a5,0x10
    1858:	0017e793          	ori	a5,a5,1
    185c:	01079713          	slli	a4,a5,0x10
    1860:	8341                	srli	a4,a4,0x10
    1862:	fec42783          	lw	a5,-20(s0)
    1866:	00e79023          	sh	a4,0(a5)
E:/桌面/19th智能车/单片机培训、考核/CH32V103_Library-master/Seekfree_CH32V103R8T6_Opensource_Library/Libraries/wch_Libraries/Peripheral/ch32v10x_tim.c:442
  }
  else
  {
    TIMx->CTLR1 &= (uint16_t)(~((uint16_t)TIM_CEN));
  }
}
    186a:	a839                	j	1888 <TIM_Cmd+0x50>
E:/桌面/19th智能车/单片机培训、考核/CH32V103_Library-master/Seekfree_CH32V103R8T6_Opensource_Library/Libraries/wch_Libraries/Peripheral/ch32v10x_tim.c:440
    TIMx->CTLR1 &= (uint16_t)(~((uint16_t)TIM_CEN));
    186c:	fec42783          	lw	a5,-20(s0)
    1870:	0007d783          	lhu	a5,0(a5)
    1874:	07c2                	slli	a5,a5,0x10
    1876:	83c1                	srli	a5,a5,0x10
    1878:	9bf9                	andi	a5,a5,-2
    187a:	01079713          	slli	a4,a5,0x10
    187e:	8341                	srli	a4,a4,0x10
    1880:	fec42783          	lw	a5,-20(s0)
    1884:	00e79023          	sh	a4,0(a5)
E:/桌面/19th智能车/单片机培训、考核/CH32V103_Library-master/Seekfree_CH32V103R8T6_Opensource_Library/Libraries/wch_Libraries/Peripheral/ch32v10x_tim.c:442
}
    1888:	0001                	nop
    188a:	4472                	lw	s0,28(sp)
    188c:	6105                	addi	sp,sp,32
    188e:	8082                	ret

00001890 <TIM_CtrlPWMOutputs>:
TIM_CtrlPWMOutputs():
E:/桌面/19th智能车/单片机培训、考核/CH32V103_Library-master/Seekfree_CH32V103R8T6_Opensource_Library/Libraries/wch_Libraries/Peripheral/ch32v10x_tim.c:452
* Input          : TIMx: where x can be 1 to 4 to select the TIM peripheral.
*                  NewState: ENABLE or DISABLE.
* Return         : None
*******************************************************************************/
void TIM_CtrlPWMOutputs(TIM_TypeDef* TIMx, FunctionalState NewState)
{
    1890:	1101                	addi	sp,sp,-32
    1892:	ce22                	sw	s0,28(sp)
    1894:	1000                	addi	s0,sp,32
    1896:	fea42623          	sw	a0,-20(s0)
    189a:	feb42423          	sw	a1,-24(s0)
E:/桌面/19th智能车/单片机培训、考核/CH32V103_Library-master/Seekfree_CH32V103R8T6_Opensource_Library/Libraries/wch_Libraries/Peripheral/ch32v10x_tim.c:453
  if (NewState != DISABLE)
    189e:	fe842783          	lw	a5,-24(s0)
    18a2:	c395                	beqz	a5,18c6 <TIM_CtrlPWMOutputs+0x36>
E:/桌面/19th智能车/单片机培训、考核/CH32V103_Library-master/Seekfree_CH32V103R8T6_Opensource_Library/Libraries/wch_Libraries/Peripheral/ch32v10x_tim.c:455
  {
    TIMx->BDTR |= TIM_MOE;
    18a4:	fec42783          	lw	a5,-20(s0)
    18a8:	0447d783          	lhu	a5,68(a5)
    18ac:	01079713          	slli	a4,a5,0x10
    18b0:	8341                	srli	a4,a4,0x10
    18b2:	77e1                	lui	a5,0xffff8
    18b4:	8fd9                	or	a5,a5,a4
    18b6:	01079713          	slli	a4,a5,0x10
    18ba:	8341                	srli	a4,a4,0x10
    18bc:	fec42783          	lw	a5,-20(s0)
    18c0:	04e79223          	sh	a4,68(a5) # ffff8044 <_eusrstack+0xdfff3044>
E:/桌面/19th智能车/单片机培训、考核/CH32V103_Library-master/Seekfree_CH32V103R8T6_Opensource_Library/Libraries/wch_Libraries/Peripheral/ch32v10x_tim.c:461
  }
  else
  {
    TIMx->BDTR &= (uint16_t)(~((uint16_t)TIM_MOE));
  }  
}
    18c4:	a015                	j	18e8 <TIM_CtrlPWMOutputs+0x58>
E:/桌面/19th智能车/单片机培训、考核/CH32V103_Library-master/Seekfree_CH32V103R8T6_Opensource_Library/Libraries/wch_Libraries/Peripheral/ch32v10x_tim.c:459
    TIMx->BDTR &= (uint16_t)(~((uint16_t)TIM_MOE));
    18c6:	fec42783          	lw	a5,-20(s0)
    18ca:	0447d783          	lhu	a5,68(a5)
    18ce:	01079713          	slli	a4,a5,0x10
    18d2:	8341                	srli	a4,a4,0x10
    18d4:	67a1                	lui	a5,0x8
    18d6:	17fd                	addi	a5,a5,-1
    18d8:	8ff9                	and	a5,a5,a4
    18da:	01079713          	slli	a4,a5,0x10
    18de:	8341                	srli	a4,a4,0x10
    18e0:	fec42783          	lw	a5,-20(s0)
    18e4:	04e79223          	sh	a4,68(a5) # 8044 <_data_lma+0x344>
E:/桌面/19th智能车/单片机培训、考核/CH32V103_Library-master/Seekfree_CH32V103R8T6_Opensource_Library/Libraries/wch_Libraries/Peripheral/ch32v10x_tim.c:461
}
    18e8:	0001                	nop
    18ea:	4472                	lw	s0,28(sp)
    18ec:	6105                	addi	sp,sp,32
    18ee:	8082                	ret

000018f0 <TIM_EncoderInterfaceConfig>:
TIM_EncoderInterfaceConfig():
E:/桌面/19th智能车/单片机培训、考核/CH32V103_Library-master/Seekfree_CH32V103R8T6_Opensource_Library/Libraries/wch_Libraries/Peripheral/ch32v10x_tim.c:796
*                    TIM_ICPolarity_Rising: IC Rising edge.
* Return         : None
*******************************************************************************/
void TIM_EncoderInterfaceConfig(TIM_TypeDef* TIMx, uint16_t TIM_EncoderMode,
                                uint16_t TIM_IC1Polarity, uint16_t TIM_IC2Polarity)
{
    18f0:	7179                	addi	sp,sp,-48
    18f2:	d622                	sw	s0,44(sp)
    18f4:	1800                	addi	s0,sp,48
    18f6:	fca42e23          	sw	a0,-36(s0)
    18fa:	87ae                	mv	a5,a1
    18fc:	8736                	mv	a4,a3
    18fe:	fcf41d23          	sh	a5,-38(s0)
    1902:	87b2                	mv	a5,a2
    1904:	fcf41c23          	sh	a5,-40(s0)
    1908:	87ba                	mv	a5,a4
    190a:	fcf41b23          	sh	a5,-42(s0)
E:/桌面/19th智能车/单片机培训、考核/CH32V103_Library-master/Seekfree_CH32V103R8T6_Opensource_Library/Libraries/wch_Libraries/Peripheral/ch32v10x_tim.c:797
  uint16_t tmpsmcr = 0;
    190e:	fe041723          	sh	zero,-18(s0)
E:/桌面/19th智能车/单片机培训、考核/CH32V103_Library-master/Seekfree_CH32V103R8T6_Opensource_Library/Libraries/wch_Libraries/Peripheral/ch32v10x_tim.c:798
  uint16_t tmpccmr1 = 0;
    1912:	fe041623          	sh	zero,-20(s0)
E:/桌面/19th智能车/单片机培训、考核/CH32V103_Library-master/Seekfree_CH32V103R8T6_Opensource_Library/Libraries/wch_Libraries/Peripheral/ch32v10x_tim.c:799
  uint16_t tmpccer = 0;
    1916:	fe041523          	sh	zero,-22(s0)
E:/桌面/19th智能车/单片机培训、考核/CH32V103_Library-master/Seekfree_CH32V103R8T6_Opensource_Library/Libraries/wch_Libraries/Peripheral/ch32v10x_tim.c:801
    
  tmpsmcr = TIMx->SMCFGR;
    191a:	fdc42783          	lw	a5,-36(s0)
    191e:	0087d783          	lhu	a5,8(a5)
    1922:	fef41723          	sh	a5,-18(s0)
E:/桌面/19th智能车/单片机培训、考核/CH32V103_Library-master/Seekfree_CH32V103R8T6_Opensource_Library/Libraries/wch_Libraries/Peripheral/ch32v10x_tim.c:802
  tmpccmr1 = TIMx->CHCTLR1;
    1926:	fdc42783          	lw	a5,-36(s0)
    192a:	0187d783          	lhu	a5,24(a5)
    192e:	fef41623          	sh	a5,-20(s0)
E:/桌面/19th智能车/单片机培训、考核/CH32V103_Library-master/Seekfree_CH32V103R8T6_Opensource_Library/Libraries/wch_Libraries/Peripheral/ch32v10x_tim.c:803
  tmpccer = TIMx->CCER;
    1932:	fdc42783          	lw	a5,-36(s0)
    1936:	0207d783          	lhu	a5,32(a5)
    193a:	fef41523          	sh	a5,-22(s0)
E:/桌面/19th智能车/单片机培训、考核/CH32V103_Library-master/Seekfree_CH32V103R8T6_Opensource_Library/Libraries/wch_Libraries/Peripheral/ch32v10x_tim.c:804
  tmpsmcr &= (uint16_t)(~((uint16_t)TIM_SMS));
    193e:	fee45783          	lhu	a5,-18(s0)
    1942:	9be1                	andi	a5,a5,-8
    1944:	fef41723          	sh	a5,-18(s0)
E:/桌面/19th智能车/单片机培训、考核/CH32V103_Library-master/Seekfree_CH32V103R8T6_Opensource_Library/Libraries/wch_Libraries/Peripheral/ch32v10x_tim.c:805
  tmpsmcr |= TIM_EncoderMode;
    1948:	fee45703          	lhu	a4,-18(s0)
    194c:	fda45783          	lhu	a5,-38(s0)
    1950:	8fd9                	or	a5,a5,a4
    1952:	fef41723          	sh	a5,-18(s0)
E:/桌面/19th智能车/单片机培训、考核/CH32V103_Library-master/Seekfree_CH32V103R8T6_Opensource_Library/Libraries/wch_Libraries/Peripheral/ch32v10x_tim.c:806
  tmpccmr1 &= (uint16_t)(((uint16_t)~((uint16_t)TIM_CC1S)) & (uint16_t)(~((uint16_t)TIM_CC2S)));
    1956:	fec45783          	lhu	a5,-20(s0)
    195a:	cfc7f793          	andi	a5,a5,-772
    195e:	fef41623          	sh	a5,-20(s0)
E:/桌面/19th智能车/单片机培训、考核/CH32V103_Library-master/Seekfree_CH32V103R8T6_Opensource_Library/Libraries/wch_Libraries/Peripheral/ch32v10x_tim.c:807
  tmpccmr1 |= TIM_CC1S_0 | TIM_CC2S_0;
    1962:	fec45783          	lhu	a5,-20(s0)
    1966:	1017e793          	ori	a5,a5,257
    196a:	fef41623          	sh	a5,-20(s0)
E:/桌面/19th智能车/单片机培训、考核/CH32V103_Library-master/Seekfree_CH32V103R8T6_Opensource_Library/Libraries/wch_Libraries/Peripheral/ch32v10x_tim.c:808
  tmpccer &= (uint16_t)(((uint16_t)~((uint16_t)TIM_CC1P)) & ((uint16_t)~((uint16_t)TIM_CC2P)));
    196e:	fea45783          	lhu	a5,-22(s0)
    1972:	fdd7f793          	andi	a5,a5,-35
    1976:	fef41523          	sh	a5,-22(s0)
E:/桌面/19th智能车/单片机培训、考核/CH32V103_Library-master/Seekfree_CH32V103R8T6_Opensource_Library/Libraries/wch_Libraries/Peripheral/ch32v10x_tim.c:809
  tmpccer |= (uint16_t)(TIM_IC1Polarity | (uint16_t)(TIM_IC2Polarity << (uint16_t)4)); 
    197a:	fd645783          	lhu	a5,-42(s0)
    197e:	0792                	slli	a5,a5,0x4
    1980:	01079713          	slli	a4,a5,0x10
    1984:	8341                	srli	a4,a4,0x10
    1986:	fd845783          	lhu	a5,-40(s0)
    198a:	8fd9                	or	a5,a5,a4
    198c:	01079713          	slli	a4,a5,0x10
    1990:	8341                	srli	a4,a4,0x10
    1992:	fea45783          	lhu	a5,-22(s0)
    1996:	8fd9                	or	a5,a5,a4
    1998:	fef41523          	sh	a5,-22(s0)
E:/桌面/19th智能车/单片机培训、考核/CH32V103_Library-master/Seekfree_CH32V103R8T6_Opensource_Library/Libraries/wch_Libraries/Peripheral/ch32v10x_tim.c:810
  TIMx->SMCFGR = tmpsmcr;
    199c:	fdc42783          	lw	a5,-36(s0)
    19a0:	fee45703          	lhu	a4,-18(s0)
    19a4:	00e79423          	sh	a4,8(a5)
E:/桌面/19th智能车/单片机培训、考核/CH32V103_Library-master/Seekfree_CH32V103R8T6_Opensource_Library/Libraries/wch_Libraries/Peripheral/ch32v10x_tim.c:811
  TIMx->CHCTLR1 = tmpccmr1;
    19a8:	fdc42783          	lw	a5,-36(s0)
    19ac:	fec45703          	lhu	a4,-20(s0)
    19b0:	00e79c23          	sh	a4,24(a5)
E:/桌面/19th智能车/单片机培训、考核/CH32V103_Library-master/Seekfree_CH32V103R8T6_Opensource_Library/Libraries/wch_Libraries/Peripheral/ch32v10x_tim.c:812
  TIMx->CCER = tmpccer;
    19b4:	fdc42783          	lw	a5,-36(s0)
    19b8:	fea45703          	lhu	a4,-22(s0)
    19bc:	02e79023          	sh	a4,32(a5)
E:/桌面/19th智能车/单片机培训、考核/CH32V103_Library-master/Seekfree_CH32V103R8T6_Opensource_Library/Libraries/wch_Libraries/Peripheral/ch32v10x_tim.c:813
}
    19c0:	0001                	nop
    19c2:	5432                	lw	s0,44(sp)
    19c4:	6145                	addi	sp,sp,48
    19c6:	8082                	ret

000019c8 <TIM_OC1PreloadConfig>:
TIM_OC1PreloadConfig():
E:/桌面/19th智能车/单片机培训、考核/CH32V103_Library-master/Seekfree_CH32V103R8T6_Opensource_Library/Libraries/wch_Libraries/Peripheral/ch32v10x_tim.c:981
*                    TIM_OCPreload_Enable.
*                    TIM_OCPreload_Disable.
* Return         : None
*******************************************************************************/
void TIM_OC1PreloadConfig(TIM_TypeDef* TIMx, uint16_t TIM_OCPreload)
{
    19c8:	7179                	addi	sp,sp,-48
    19ca:	d622                	sw	s0,44(sp)
    19cc:	1800                	addi	s0,sp,48
    19ce:	fca42e23          	sw	a0,-36(s0)
    19d2:	87ae                	mv	a5,a1
    19d4:	fcf41d23          	sh	a5,-38(s0)
E:/桌面/19th智能车/单片机培训、考核/CH32V103_Library-master/Seekfree_CH32V103R8T6_Opensource_Library/Libraries/wch_Libraries/Peripheral/ch32v10x_tim.c:982
  uint16_t tmpccmr1 = 0;
    19d8:	fe041723          	sh	zero,-18(s0)
E:/桌面/19th智能车/单片机培训、考核/CH32V103_Library-master/Seekfree_CH32V103R8T6_Opensource_Library/Libraries/wch_Libraries/Peripheral/ch32v10x_tim.c:984

  tmpccmr1 = TIMx->CHCTLR1;
    19dc:	fdc42783          	lw	a5,-36(s0)
    19e0:	0187d783          	lhu	a5,24(a5)
    19e4:	fef41723          	sh	a5,-18(s0)
E:/桌面/19th智能车/单片机培训、考核/CH32V103_Library-master/Seekfree_CH32V103R8T6_Opensource_Library/Libraries/wch_Libraries/Peripheral/ch32v10x_tim.c:985
  tmpccmr1 &= (uint16_t)~((uint16_t)TIM_OC1PE);
    19e8:	fee45783          	lhu	a5,-18(s0)
    19ec:	9bdd                	andi	a5,a5,-9
    19ee:	fef41723          	sh	a5,-18(s0)
E:/桌面/19th智能车/单片机培训、考核/CH32V103_Library-master/Seekfree_CH32V103R8T6_Opensource_Library/Libraries/wch_Libraries/Peripheral/ch32v10x_tim.c:986
  tmpccmr1 |= TIM_OCPreload;
    19f2:	fee45703          	lhu	a4,-18(s0)
    19f6:	fda45783          	lhu	a5,-38(s0)
    19fa:	8fd9                	or	a5,a5,a4
    19fc:	fef41723          	sh	a5,-18(s0)
E:/桌面/19th智能车/单片机培训、考核/CH32V103_Library-master/Seekfree_CH32V103R8T6_Opensource_Library/Libraries/wch_Libraries/Peripheral/ch32v10x_tim.c:987
  TIMx->CHCTLR1 = tmpccmr1;
    1a00:	fdc42783          	lw	a5,-36(s0)
    1a04:	fee45703          	lhu	a4,-18(s0)
    1a08:	00e79c23          	sh	a4,24(a5)
E:/桌面/19th智能车/单片机培训、考核/CH32V103_Library-master/Seekfree_CH32V103R8T6_Opensource_Library/Libraries/wch_Libraries/Peripheral/ch32v10x_tim.c:988
}
    1a0c:	0001                	nop
    1a0e:	5432                	lw	s0,44(sp)
    1a10:	6145                	addi	sp,sp,48
    1a12:	8082                	ret

00001a14 <TIM_OC2PreloadConfig>:
TIM_OC2PreloadConfig():
E:/桌面/19th智能车/单片机培训、考核/CH32V103_Library-master/Seekfree_CH32V103R8T6_Opensource_Library/Libraries/wch_Libraries/Peripheral/ch32v10x_tim.c:1000
*                    TIM_OCPreload_Enable.
*                    TIM_OCPreload_Disable.
* Return         : None
*******************************************************************************/
void TIM_OC2PreloadConfig(TIM_TypeDef* TIMx, uint16_t TIM_OCPreload)
{
    1a14:	7179                	addi	sp,sp,-48
    1a16:	d622                	sw	s0,44(sp)
    1a18:	1800                	addi	s0,sp,48
    1a1a:	fca42e23          	sw	a0,-36(s0)
    1a1e:	87ae                	mv	a5,a1
    1a20:	fcf41d23          	sh	a5,-38(s0)
E:/桌面/19th智能车/单片机培训、考核/CH32V103_Library-master/Seekfree_CH32V103R8T6_Opensource_Library/Libraries/wch_Libraries/Peripheral/ch32v10x_tim.c:1001
  uint16_t tmpccmr1 = 0;
    1a24:	fe041723          	sh	zero,-18(s0)
E:/桌面/19th智能车/单片机培训、考核/CH32V103_Library-master/Seekfree_CH32V103R8T6_Opensource_Library/Libraries/wch_Libraries/Peripheral/ch32v10x_tim.c:1003

  tmpccmr1 = TIMx->CHCTLR1;
    1a28:	fdc42783          	lw	a5,-36(s0)
    1a2c:	0187d783          	lhu	a5,24(a5)
    1a30:	fef41723          	sh	a5,-18(s0)
E:/桌面/19th智能车/单片机培训、考核/CH32V103_Library-master/Seekfree_CH32V103R8T6_Opensource_Library/Libraries/wch_Libraries/Peripheral/ch32v10x_tim.c:1004
  tmpccmr1 &= (uint16_t)~((uint16_t)TIM_OC2PE);
    1a34:	fee45703          	lhu	a4,-18(s0)
    1a38:	77fd                	lui	a5,0xfffff
    1a3a:	7ff78793          	addi	a5,a5,2047 # fffff7ff <_eusrstack+0xdfffa7ff>
    1a3e:	8ff9                	and	a5,a5,a4
    1a40:	fef41723          	sh	a5,-18(s0)
E:/桌面/19th智能车/单片机培训、考核/CH32V103_Library-master/Seekfree_CH32V103R8T6_Opensource_Library/Libraries/wch_Libraries/Peripheral/ch32v10x_tim.c:1005
  tmpccmr1 |= (uint16_t)(TIM_OCPreload << 8);	
    1a44:	fda45783          	lhu	a5,-38(s0)
    1a48:	07a2                	slli	a5,a5,0x8
    1a4a:	01079713          	slli	a4,a5,0x10
    1a4e:	8341                	srli	a4,a4,0x10
    1a50:	fee45783          	lhu	a5,-18(s0)
    1a54:	8fd9                	or	a5,a5,a4
    1a56:	fef41723          	sh	a5,-18(s0)
E:/桌面/19th智能车/单片机培训、考核/CH32V103_Library-master/Seekfree_CH32V103R8T6_Opensource_Library/Libraries/wch_Libraries/Peripheral/ch32v10x_tim.c:1006
  TIMx->CHCTLR1 = tmpccmr1;
    1a5a:	fdc42783          	lw	a5,-36(s0)
    1a5e:	fee45703          	lhu	a4,-18(s0)
    1a62:	00e79c23          	sh	a4,24(a5)
E:/桌面/19th智能车/单片机培训、考核/CH32V103_Library-master/Seekfree_CH32V103R8T6_Opensource_Library/Libraries/wch_Libraries/Peripheral/ch32v10x_tim.c:1007
}
    1a66:	0001                	nop
    1a68:	5432                	lw	s0,44(sp)
    1a6a:	6145                	addi	sp,sp,48
    1a6c:	8082                	ret

00001a6e <TIM_OC3PreloadConfig>:
TIM_OC3PreloadConfig():
E:/桌面/19th智能车/单片机培训、考核/CH32V103_Library-master/Seekfree_CH32V103R8T6_Opensource_Library/Libraries/wch_Libraries/Peripheral/ch32v10x_tim.c:1019
*                    TIM_OCPreload_Enable.
*                    TIM_OCPreload_Disable.
* Return         : None
*******************************************************************************/
void TIM_OC3PreloadConfig(TIM_TypeDef* TIMx, uint16_t TIM_OCPreload)
{
    1a6e:	7179                	addi	sp,sp,-48
    1a70:	d622                	sw	s0,44(sp)
    1a72:	1800                	addi	s0,sp,48
    1a74:	fca42e23          	sw	a0,-36(s0)
    1a78:	87ae                	mv	a5,a1
    1a7a:	fcf41d23          	sh	a5,-38(s0)
E:/桌面/19th智能车/单片机培训、考核/CH32V103_Library-master/Seekfree_CH32V103R8T6_Opensource_Library/Libraries/wch_Libraries/Peripheral/ch32v10x_tim.c:1020
  uint16_t tmpccmr2 = 0;
    1a7e:	fe041723          	sh	zero,-18(s0)
E:/桌面/19th智能车/单片机培训、考核/CH32V103_Library-master/Seekfree_CH32V103R8T6_Opensource_Library/Libraries/wch_Libraries/Peripheral/ch32v10x_tim.c:1022

  tmpccmr2 = TIMx->CHCTLR2;
    1a82:	fdc42783          	lw	a5,-36(s0)
    1a86:	01c7d783          	lhu	a5,28(a5)
    1a8a:	fef41723          	sh	a5,-18(s0)
E:/桌面/19th智能车/单片机培训、考核/CH32V103_Library-master/Seekfree_CH32V103R8T6_Opensource_Library/Libraries/wch_Libraries/Peripheral/ch32v10x_tim.c:1023
  tmpccmr2 &= (uint16_t)~((uint16_t)TIM_OC3PE);
    1a8e:	fee45783          	lhu	a5,-18(s0)
    1a92:	9bdd                	andi	a5,a5,-9
    1a94:	fef41723          	sh	a5,-18(s0)
E:/桌面/19th智能车/单片机培训、考核/CH32V103_Library-master/Seekfree_CH32V103R8T6_Opensource_Library/Libraries/wch_Libraries/Peripheral/ch32v10x_tim.c:1024
  tmpccmr2 |= TIM_OCPreload;
    1a98:	fee45703          	lhu	a4,-18(s0)
    1a9c:	fda45783          	lhu	a5,-38(s0)
    1aa0:	8fd9                	or	a5,a5,a4
    1aa2:	fef41723          	sh	a5,-18(s0)
E:/桌面/19th智能车/单片机培训、考核/CH32V103_Library-master/Seekfree_CH32V103R8T6_Opensource_Library/Libraries/wch_Libraries/Peripheral/ch32v10x_tim.c:1025
  TIMx->CHCTLR2 = tmpccmr2;
    1aa6:	fdc42783          	lw	a5,-36(s0)
    1aaa:	fee45703          	lhu	a4,-18(s0)
    1aae:	00e79e23          	sh	a4,28(a5)
E:/桌面/19th智能车/单片机培训、考核/CH32V103_Library-master/Seekfree_CH32V103R8T6_Opensource_Library/Libraries/wch_Libraries/Peripheral/ch32v10x_tim.c:1026
}
    1ab2:	0001                	nop
    1ab4:	5432                	lw	s0,44(sp)
    1ab6:	6145                	addi	sp,sp,48
    1ab8:	8082                	ret

00001aba <TIM_OC4PreloadConfig>:
TIM_OC4PreloadConfig():
E:/桌面/19th智能车/单片机培训、考核/CH32V103_Library-master/Seekfree_CH32V103R8T6_Opensource_Library/Libraries/wch_Libraries/Peripheral/ch32v10x_tim.c:1038
*                    TIM_OCPreload_Enable.
*                    TIM_OCPreload_Disable.
* Return         : None
*******************************************************************************/
void TIM_OC4PreloadConfig(TIM_TypeDef* TIMx, uint16_t TIM_OCPreload)
{
    1aba:	7179                	addi	sp,sp,-48
    1abc:	d622                	sw	s0,44(sp)
    1abe:	1800                	addi	s0,sp,48
    1ac0:	fca42e23          	sw	a0,-36(s0)
    1ac4:	87ae                	mv	a5,a1
    1ac6:	fcf41d23          	sh	a5,-38(s0)
E:/桌面/19th智能车/单片机培训、考核/CH32V103_Library-master/Seekfree_CH32V103R8T6_Opensource_Library/Libraries/wch_Libraries/Peripheral/ch32v10x_tim.c:1039
  uint16_t tmpccmr2 = 0;
    1aca:	fe041723          	sh	zero,-18(s0)
E:/桌面/19th智能车/单片机培训、考核/CH32V103_Library-master/Seekfree_CH32V103R8T6_Opensource_Library/Libraries/wch_Libraries/Peripheral/ch32v10x_tim.c:1041

  tmpccmr2 = TIMx->CHCTLR2;
    1ace:	fdc42783          	lw	a5,-36(s0)
    1ad2:	01c7d783          	lhu	a5,28(a5)
    1ad6:	fef41723          	sh	a5,-18(s0)
E:/桌面/19th智能车/单片机培训、考核/CH32V103_Library-master/Seekfree_CH32V103R8T6_Opensource_Library/Libraries/wch_Libraries/Peripheral/ch32v10x_tim.c:1042
  tmpccmr2 &= (uint16_t)~((uint16_t)TIM_OC4PE);
    1ada:	fee45703          	lhu	a4,-18(s0)
    1ade:	77fd                	lui	a5,0xfffff
    1ae0:	7ff78793          	addi	a5,a5,2047 # fffff7ff <_eusrstack+0xdfffa7ff>
    1ae4:	8ff9                	and	a5,a5,a4
    1ae6:	fef41723          	sh	a5,-18(s0)
E:/桌面/19th智能车/单片机培训、考核/CH32V103_Library-master/Seekfree_CH32V103R8T6_Opensource_Library/Libraries/wch_Libraries/Peripheral/ch32v10x_tim.c:1043
  tmpccmr2 |= (uint16_t)(TIM_OCPreload << 8);
    1aea:	fda45783          	lhu	a5,-38(s0)
    1aee:	07a2                	slli	a5,a5,0x8
    1af0:	01079713          	slli	a4,a5,0x10
    1af4:	8341                	srli	a4,a4,0x10
    1af6:	fee45783          	lhu	a5,-18(s0)
    1afa:	8fd9                	or	a5,a5,a4
    1afc:	fef41723          	sh	a5,-18(s0)
E:/桌面/19th智能车/单片机培训、考核/CH32V103_Library-master/Seekfree_CH32V103R8T6_Opensource_Library/Libraries/wch_Libraries/Peripheral/ch32v10x_tim.c:1044
  TIMx->CHCTLR2 = tmpccmr2;
    1b00:	fdc42783          	lw	a5,-36(s0)
    1b04:	fee45703          	lhu	a4,-18(s0)
    1b08:	00e79e23          	sh	a4,28(a5)
E:/桌面/19th智能车/单片机培训、考核/CH32V103_Library-master/Seekfree_CH32V103R8T6_Opensource_Library/Libraries/wch_Libraries/Peripheral/ch32v10x_tim.c:1045
}
    1b0c:	0001                	nop
    1b0e:	5432                	lw	s0,44(sp)
    1b10:	6145                	addi	sp,sp,48
    1b12:	8082                	ret

00001b14 <TIM_OC1FastConfig>:
TIM_OC1FastConfig():
E:/桌面/19th智能车/单片机培训、考核/CH32V103_Library-master/Seekfree_CH32V103R8T6_Opensource_Library/Libraries/wch_Libraries/Peripheral/ch32v10x_tim.c:1057
*                    TIM_OCFast_Enable: TIM output compare fast enable.
*                    TIM_OCFast_Disable: TIM output compare fast disable.
* Return         : None
*******************************************************************************/
void TIM_OC1FastConfig(TIM_TypeDef* TIMx, uint16_t TIM_OCFast)
{
    1b14:	7179                	addi	sp,sp,-48
    1b16:	d622                	sw	s0,44(sp)
    1b18:	1800                	addi	s0,sp,48
    1b1a:	fca42e23          	sw	a0,-36(s0)
    1b1e:	87ae                	mv	a5,a1
    1b20:	fcf41d23          	sh	a5,-38(s0)
E:/桌面/19th智能车/单片机培训、考核/CH32V103_Library-master/Seekfree_CH32V103R8T6_Opensource_Library/Libraries/wch_Libraries/Peripheral/ch32v10x_tim.c:1058
  uint16_t tmpccmr1 = 0;
    1b24:	fe041723          	sh	zero,-18(s0)
E:/桌面/19th智能车/单片机培训、考核/CH32V103_Library-master/Seekfree_CH32V103R8T6_Opensource_Library/Libraries/wch_Libraries/Peripheral/ch32v10x_tim.c:1060

  tmpccmr1 = TIMx->CHCTLR1;
    1b28:	fdc42783          	lw	a5,-36(s0)
    1b2c:	0187d783          	lhu	a5,24(a5)
    1b30:	fef41723          	sh	a5,-18(s0)
E:/桌面/19th智能车/单片机培训、考核/CH32V103_Library-master/Seekfree_CH32V103R8T6_Opensource_Library/Libraries/wch_Libraries/Peripheral/ch32v10x_tim.c:1061
  tmpccmr1 &= (uint16_t)~((uint16_t)TIM_OC1FE);
    1b34:	fee45783          	lhu	a5,-18(s0)
    1b38:	9bed                	andi	a5,a5,-5
    1b3a:	fef41723          	sh	a5,-18(s0)
E:/桌面/19th智能车/单片机培训、考核/CH32V103_Library-master/Seekfree_CH32V103R8T6_Opensource_Library/Libraries/wch_Libraries/Peripheral/ch32v10x_tim.c:1062
  tmpccmr1 |= TIM_OCFast;
    1b3e:	fee45703          	lhu	a4,-18(s0)
    1b42:	fda45783          	lhu	a5,-38(s0)
    1b46:	8fd9                	or	a5,a5,a4
    1b48:	fef41723          	sh	a5,-18(s0)
E:/桌面/19th智能车/单片机培训、考核/CH32V103_Library-master/Seekfree_CH32V103R8T6_Opensource_Library/Libraries/wch_Libraries/Peripheral/ch32v10x_tim.c:1063
  TIMx->CHCTLR1 = tmpccmr1;
    1b4c:	fdc42783          	lw	a5,-36(s0)
    1b50:	fee45703          	lhu	a4,-18(s0)
    1b54:	00e79c23          	sh	a4,24(a5)
E:/桌面/19th智能车/单片机培训、考核/CH32V103_Library-master/Seekfree_CH32V103R8T6_Opensource_Library/Libraries/wch_Libraries/Peripheral/ch32v10x_tim.c:1064
}
    1b58:	0001                	nop
    1b5a:	5432                	lw	s0,44(sp)
    1b5c:	6145                	addi	sp,sp,48
    1b5e:	8082                	ret

00001b60 <TIM_OC2FastConfig>:
TIM_OC2FastConfig():
E:/桌面/19th智能车/单片机培训、考核/CH32V103_Library-master/Seekfree_CH32V103R8T6_Opensource_Library/Libraries/wch_Libraries/Peripheral/ch32v10x_tim.c:1076
*                    TIM_OCFast_Enable: TIM output compare fast enable.
*                    TIM_OCFast_Disable: TIM output compare fast disable.
* Return         : None
*******************************************************************************/
void TIM_OC2FastConfig(TIM_TypeDef* TIMx, uint16_t TIM_OCFast)
{
    1b60:	7179                	addi	sp,sp,-48
    1b62:	d622                	sw	s0,44(sp)
    1b64:	1800                	addi	s0,sp,48
    1b66:	fca42e23          	sw	a0,-36(s0)
    1b6a:	87ae                	mv	a5,a1
    1b6c:	fcf41d23          	sh	a5,-38(s0)
E:/桌面/19th智能车/单片机培训、考核/CH32V103_Library-master/Seekfree_CH32V103R8T6_Opensource_Library/Libraries/wch_Libraries/Peripheral/ch32v10x_tim.c:1077
  uint16_t tmpccmr1 = 0;
    1b70:	fe041723          	sh	zero,-18(s0)
E:/桌面/19th智能车/单片机培训、考核/CH32V103_Library-master/Seekfree_CH32V103R8T6_Opensource_Library/Libraries/wch_Libraries/Peripheral/ch32v10x_tim.c:1079

  tmpccmr1 = TIMx->CHCTLR1;
    1b74:	fdc42783          	lw	a5,-36(s0)
    1b78:	0187d783          	lhu	a5,24(a5)
    1b7c:	fef41723          	sh	a5,-18(s0)
E:/桌面/19th智能车/单片机培训、考核/CH32V103_Library-master/Seekfree_CH32V103R8T6_Opensource_Library/Libraries/wch_Libraries/Peripheral/ch32v10x_tim.c:1080
  tmpccmr1 &= (uint16_t)~((uint16_t)TIM_OC2FE);
    1b80:	fee45783          	lhu	a5,-18(s0)
    1b84:	bff7f793          	andi	a5,a5,-1025
    1b88:	fef41723          	sh	a5,-18(s0)
E:/桌面/19th智能车/单片机培训、考核/CH32V103_Library-master/Seekfree_CH32V103R8T6_Opensource_Library/Libraries/wch_Libraries/Peripheral/ch32v10x_tim.c:1081
  tmpccmr1 |= (uint16_t)(TIM_OCFast << 8);
    1b8c:	fda45783          	lhu	a5,-38(s0)
    1b90:	07a2                	slli	a5,a5,0x8
    1b92:	01079713          	slli	a4,a5,0x10
    1b96:	8341                	srli	a4,a4,0x10
    1b98:	fee45783          	lhu	a5,-18(s0)
    1b9c:	8fd9                	or	a5,a5,a4
    1b9e:	fef41723          	sh	a5,-18(s0)
E:/桌面/19th智能车/单片机培训、考核/CH32V103_Library-master/Seekfree_CH32V103R8T6_Opensource_Library/Libraries/wch_Libraries/Peripheral/ch32v10x_tim.c:1082
  TIMx->CHCTLR1 = tmpccmr1;
    1ba2:	fdc42783          	lw	a5,-36(s0)
    1ba6:	fee45703          	lhu	a4,-18(s0)
    1baa:	00e79c23          	sh	a4,24(a5)
E:/桌面/19th智能车/单片机培训、考核/CH32V103_Library-master/Seekfree_CH32V103R8T6_Opensource_Library/Libraries/wch_Libraries/Peripheral/ch32v10x_tim.c:1083
}
    1bae:	0001                	nop
    1bb0:	5432                	lw	s0,44(sp)
    1bb2:	6145                	addi	sp,sp,48
    1bb4:	8082                	ret

00001bb6 <TIM_OC3FastConfig>:
TIM_OC3FastConfig():
E:/桌面/19th智能车/单片机培训、考核/CH32V103_Library-master/Seekfree_CH32V103R8T6_Opensource_Library/Libraries/wch_Libraries/Peripheral/ch32v10x_tim.c:1095
*                    TIM_OCFast_Enable: TIM output compare fast enable.
*                    TIM_OCFast_Disable: TIM output compare fast disable.
* Return         : None
*******************************************************************************/
void TIM_OC3FastConfig(TIM_TypeDef* TIMx, uint16_t TIM_OCFast)
{
    1bb6:	7179                	addi	sp,sp,-48
    1bb8:	d622                	sw	s0,44(sp)
    1bba:	1800                	addi	s0,sp,48
    1bbc:	fca42e23          	sw	a0,-36(s0)
    1bc0:	87ae                	mv	a5,a1
    1bc2:	fcf41d23          	sh	a5,-38(s0)
E:/桌面/19th智能车/单片机培训、考核/CH32V103_Library-master/Seekfree_CH32V103R8T6_Opensource_Library/Libraries/wch_Libraries/Peripheral/ch32v10x_tim.c:1096
  uint16_t tmpccmr2 = 0;
    1bc6:	fe041723          	sh	zero,-18(s0)
E:/桌面/19th智能车/单片机培训、考核/CH32V103_Library-master/Seekfree_CH32V103R8T6_Opensource_Library/Libraries/wch_Libraries/Peripheral/ch32v10x_tim.c:1098

  tmpccmr2 = TIMx->CHCTLR2;
    1bca:	fdc42783          	lw	a5,-36(s0)
    1bce:	01c7d783          	lhu	a5,28(a5)
    1bd2:	fef41723          	sh	a5,-18(s0)
E:/桌面/19th智能车/单片机培训、考核/CH32V103_Library-master/Seekfree_CH32V103R8T6_Opensource_Library/Libraries/wch_Libraries/Peripheral/ch32v10x_tim.c:1099
  tmpccmr2 &= (uint16_t)~((uint16_t)TIM_OC3FE);
    1bd6:	fee45783          	lhu	a5,-18(s0)
    1bda:	9bed                	andi	a5,a5,-5
    1bdc:	fef41723          	sh	a5,-18(s0)
E:/桌面/19th智能车/单片机培训、考核/CH32V103_Library-master/Seekfree_CH32V103R8T6_Opensource_Library/Libraries/wch_Libraries/Peripheral/ch32v10x_tim.c:1100
  tmpccmr2 |= TIM_OCFast;	
    1be0:	fee45703          	lhu	a4,-18(s0)
    1be4:	fda45783          	lhu	a5,-38(s0)
    1be8:	8fd9                	or	a5,a5,a4
    1bea:	fef41723          	sh	a5,-18(s0)
E:/桌面/19th智能车/单片机培训、考核/CH32V103_Library-master/Seekfree_CH32V103R8T6_Opensource_Library/Libraries/wch_Libraries/Peripheral/ch32v10x_tim.c:1101
  TIMx->CHCTLR2 = tmpccmr2;
    1bee:	fdc42783          	lw	a5,-36(s0)
    1bf2:	fee45703          	lhu	a4,-18(s0)
    1bf6:	00e79e23          	sh	a4,28(a5)
E:/桌面/19th智能车/单片机培训、考核/CH32V103_Library-master/Seekfree_CH32V103R8T6_Opensource_Library/Libraries/wch_Libraries/Peripheral/ch32v10x_tim.c:1102
}
    1bfa:	0001                	nop
    1bfc:	5432                	lw	s0,44(sp)
    1bfe:	6145                	addi	sp,sp,48
    1c00:	8082                	ret

00001c02 <TIM_OC4FastConfig>:
TIM_OC4FastConfig():
E:/桌面/19th智能车/单片机培训、考核/CH32V103_Library-master/Seekfree_CH32V103R8T6_Opensource_Library/Libraries/wch_Libraries/Peripheral/ch32v10x_tim.c:1114
*                    TIM_OCFast_Enable: TIM output compare fast enable.
*                    TIM_OCFast_Disable: TIM output compare fast disable.
* Return         : None
*******************************************************************************/
void TIM_OC4FastConfig(TIM_TypeDef* TIMx, uint16_t TIM_OCFast)
{
    1c02:	7179                	addi	sp,sp,-48
    1c04:	d622                	sw	s0,44(sp)
    1c06:	1800                	addi	s0,sp,48
    1c08:	fca42e23          	sw	a0,-36(s0)
    1c0c:	87ae                	mv	a5,a1
    1c0e:	fcf41d23          	sh	a5,-38(s0)
E:/桌面/19th智能车/单片机培训、考核/CH32V103_Library-master/Seekfree_CH32V103R8T6_Opensource_Library/Libraries/wch_Libraries/Peripheral/ch32v10x_tim.c:1115
  uint16_t tmpccmr2 = 0;
    1c12:	fe041723          	sh	zero,-18(s0)
E:/桌面/19th智能车/单片机培训、考核/CH32V103_Library-master/Seekfree_CH32V103R8T6_Opensource_Library/Libraries/wch_Libraries/Peripheral/ch32v10x_tim.c:1117

  tmpccmr2 = TIMx->CHCTLR2;
    1c16:	fdc42783          	lw	a5,-36(s0)
    1c1a:	01c7d783          	lhu	a5,28(a5)
    1c1e:	fef41723          	sh	a5,-18(s0)
E:/桌面/19th智能车/单片机培训、考核/CH32V103_Library-master/Seekfree_CH32V103R8T6_Opensource_Library/Libraries/wch_Libraries/Peripheral/ch32v10x_tim.c:1118
  tmpccmr2 &= (uint16_t)~((uint16_t)TIM_OC4FE);
    1c22:	fee45783          	lhu	a5,-18(s0)
    1c26:	bff7f793          	andi	a5,a5,-1025
    1c2a:	fef41723          	sh	a5,-18(s0)
E:/桌面/19th智能车/单片机培训、考核/CH32V103_Library-master/Seekfree_CH32V103R8T6_Opensource_Library/Libraries/wch_Libraries/Peripheral/ch32v10x_tim.c:1119
  tmpccmr2 |= (uint16_t)(TIM_OCFast << 8);
    1c2e:	fda45783          	lhu	a5,-38(s0)
    1c32:	07a2                	slli	a5,a5,0x8
    1c34:	01079713          	slli	a4,a5,0x10
    1c38:	8341                	srli	a4,a4,0x10
    1c3a:	fee45783          	lhu	a5,-18(s0)
    1c3e:	8fd9                	or	a5,a5,a4
    1c40:	fef41723          	sh	a5,-18(s0)
E:/桌面/19th智能车/单片机培训、考核/CH32V103_Library-master/Seekfree_CH32V103R8T6_Opensource_Library/Libraries/wch_Libraries/Peripheral/ch32v10x_tim.c:1120
  TIMx->CHCTLR2 = tmpccmr2;
    1c44:	fdc42783          	lw	a5,-36(s0)
    1c48:	fee45703          	lhu	a4,-18(s0)
    1c4c:	00e79e23          	sh	a4,28(a5)
E:/桌面/19th智能车/单片机培训、考核/CH32V103_Library-master/Seekfree_CH32V103R8T6_Opensource_Library/Libraries/wch_Libraries/Peripheral/ch32v10x_tim.c:1121
}
    1c50:	0001                	nop
    1c52:	5432                	lw	s0,44(sp)
    1c54:	6145                	addi	sp,sp,48
    1c56:	8082                	ret

00001c58 <TIM_GetITStatus>:
TIM_GetITStatus():
E:/桌面/19th智能车/单片机培训、考核/CH32V103_Library-master/Seekfree_CH32V103R8T6_Opensource_Library/Libraries/wch_Libraries/Peripheral/ch32v10x_tim.c:1853
*                    TIM_IT_Trigger: TIM Trigger Interrupt source.
*                    TIM_IT_Break: TIM Break Interrupt source.
* Return         : bitstatus: SET or RESET.
*******************************************************************************/
ITStatus TIM_GetITStatus(TIM_TypeDef* TIMx, uint16_t TIM_IT)
{
    1c58:	7179                	addi	sp,sp,-48
    1c5a:	d622                	sw	s0,44(sp)
    1c5c:	1800                	addi	s0,sp,48
    1c5e:	fca42e23          	sw	a0,-36(s0)
    1c62:	87ae                	mv	a5,a1
    1c64:	fcf41d23          	sh	a5,-38(s0)
E:/桌面/19th智能车/单片机培训、考核/CH32V103_Library-master/Seekfree_CH32V103R8T6_Opensource_Library/Libraries/wch_Libraries/Peripheral/ch32v10x_tim.c:1854
  ITStatus bitstatus = RESET;  
    1c68:	fe042623          	sw	zero,-20(s0)
E:/桌面/19th智能车/单片机培训、考核/CH32V103_Library-master/Seekfree_CH32V103R8T6_Opensource_Library/Libraries/wch_Libraries/Peripheral/ch32v10x_tim.c:1855
  uint16_t itstatus = 0x0, itenable = 0x0;
    1c6c:	fe041523          	sh	zero,-22(s0)
    1c70:	fe041423          	sh	zero,-24(s0)
E:/桌面/19th智能车/单片机培训、考核/CH32V103_Library-master/Seekfree_CH32V103R8T6_Opensource_Library/Libraries/wch_Libraries/Peripheral/ch32v10x_tim.c:1857
   
  itstatus = TIMx->INTFR & TIM_IT;
    1c74:	fdc42783          	lw	a5,-36(s0)
    1c78:	0107d783          	lhu	a5,16(a5)
    1c7c:	01079713          	slli	a4,a5,0x10
    1c80:	8341                	srli	a4,a4,0x10
    1c82:	fda45783          	lhu	a5,-38(s0)
    1c86:	8ff9                	and	a5,a5,a4
    1c88:	fef41523          	sh	a5,-22(s0)
E:/桌面/19th智能车/单片机培训、考核/CH32V103_Library-master/Seekfree_CH32V103R8T6_Opensource_Library/Libraries/wch_Libraries/Peripheral/ch32v10x_tim.c:1859
  
  itenable = TIMx->DMAINTENR & TIM_IT;
    1c8c:	fdc42783          	lw	a5,-36(s0)
    1c90:	00c7d783          	lhu	a5,12(a5)
    1c94:	01079713          	slli	a4,a5,0x10
    1c98:	8341                	srli	a4,a4,0x10
    1c9a:	fda45783          	lhu	a5,-38(s0)
    1c9e:	8ff9                	and	a5,a5,a4
    1ca0:	fef41423          	sh	a5,-24(s0)
E:/桌面/19th智能车/单片机培训、考核/CH32V103_Library-master/Seekfree_CH32V103R8T6_Opensource_Library/Libraries/wch_Libraries/Peripheral/ch32v10x_tim.c:1860
  if ((itstatus != (uint16_t)RESET) && (itenable != (uint16_t)RESET))
    1ca4:	fea45783          	lhu	a5,-22(s0)
    1ca8:	cb81                	beqz	a5,1cb8 <TIM_GetITStatus+0x60>
E:/桌面/19th智能车/单片机培训、考核/CH32V103_Library-master/Seekfree_CH32V103R8T6_Opensource_Library/Libraries/wch_Libraries/Peripheral/ch32v10x_tim.c:1860 (discriminator 1)
    1caa:	fe845783          	lhu	a5,-24(s0)
    1cae:	c789                	beqz	a5,1cb8 <TIM_GetITStatus+0x60>
E:/桌面/19th智能车/单片机培训、考核/CH32V103_Library-master/Seekfree_CH32V103R8T6_Opensource_Library/Libraries/wch_Libraries/Peripheral/ch32v10x_tim.c:1862
  {
    bitstatus = SET;
    1cb0:	4785                	li	a5,1
    1cb2:	fef42623          	sw	a5,-20(s0)
    1cb6:	a019                	j	1cbc <TIM_GetITStatus+0x64>
E:/桌面/19th智能车/单片机培训、考核/CH32V103_Library-master/Seekfree_CH32V103R8T6_Opensource_Library/Libraries/wch_Libraries/Peripheral/ch32v10x_tim.c:1866
  }
  else
  {
    bitstatus = RESET;
    1cb8:	fe042623          	sw	zero,-20(s0)
E:/桌面/19th智能车/单片机培训、考核/CH32V103_Library-master/Seekfree_CH32V103R8T6_Opensource_Library/Libraries/wch_Libraries/Peripheral/ch32v10x_tim.c:1869
  }
	
  return bitstatus;
    1cbc:	fec42783          	lw	a5,-20(s0)
E:/桌面/19th智能车/单片机培训、考核/CH32V103_Library-master/Seekfree_CH32V103R8T6_Opensource_Library/Libraries/wch_Libraries/Peripheral/ch32v10x_tim.c:1870
}
    1cc0:	853e                	mv	a0,a5
    1cc2:	5432                	lw	s0,44(sp)
    1cc4:	6145                	addi	sp,sp,48
    1cc6:	8082                	ret

00001cc8 <TIM_ClearITPendingBit>:
TIM_ClearITPendingBit():
E:/桌面/19th智能车/单片机培训、考核/CH32V103_Library-master/Seekfree_CH32V103R8T6_Opensource_Library/Libraries/wch_Libraries/Peripheral/ch32v10x_tim.c:1888
*                    TIM_IT_Trigger: TIM Trigger Interrupt source.
*                    TIM_IT_Break: TIM Break Interrupt source.
* Return         : None
*******************************************************************************/
void TIM_ClearITPendingBit(TIM_TypeDef* TIMx, uint16_t TIM_IT)
{
    1cc8:	1101                	addi	sp,sp,-32
    1cca:	ce22                	sw	s0,28(sp)
    1ccc:	1000                	addi	s0,sp,32
    1cce:	fea42623          	sw	a0,-20(s0)
    1cd2:	87ae                	mv	a5,a1
    1cd4:	fef41523          	sh	a5,-22(s0)
E:/桌面/19th智能车/单片机培训、考核/CH32V103_Library-master/Seekfree_CH32V103R8T6_Opensource_Library/Libraries/wch_Libraries/Peripheral/ch32v10x_tim.c:1889
  TIMx->INTFR = (uint16_t)~TIM_IT;
    1cd8:	fea45783          	lhu	a5,-22(s0)
    1cdc:	fff7c793          	not	a5,a5
    1ce0:	01079713          	slli	a4,a5,0x10
    1ce4:	8341                	srli	a4,a4,0x10
    1ce6:	fec42783          	lw	a5,-20(s0)
    1cea:	00e79823          	sh	a4,16(a5)
E:/桌面/19th智能车/单片机培训、考核/CH32V103_Library-master/Seekfree_CH32V103R8T6_Opensource_Library/Libraries/wch_Libraries/Peripheral/ch32v10x_tim.c:1890
}
    1cee:	0001                	nop
    1cf0:	4472                	lw	s0,28(sp)
    1cf2:	6105                	addi	sp,sp,32
    1cf4:	8082                	ret

00001cf6 <USART_Init>:
USART_Init():
E:/桌面/19th智能车/单片机培训、考核/CH32V103_Library-master/Seekfree_CH32V103R8T6_Opensource_Library/Libraries/wch_Libraries/Peripheral/ch32v10x_usart.c:105
*                  USART_InitStruct: pointer to a USART_InitTypeDef structure
*      that contains the configuration information for the specified USART peripheral. 
* Return         : None
*******************************************************************************/
void USART_Init(USART_TypeDef* USARTx, USART_InitTypeDef* USART_InitStruct)
{
    1cf6:	715d                	addi	sp,sp,-80
    1cf8:	c686                	sw	ra,76(sp)
    1cfa:	c4a2                	sw	s0,72(sp)
    1cfc:	0880                	addi	s0,sp,80
    1cfe:	faa42e23          	sw	a0,-68(s0)
    1d02:	fab42c23          	sw	a1,-72(s0)
E:/桌面/19th智能车/单片机培训、考核/CH32V103_Library-master/Seekfree_CH32V103R8T6_Opensource_Library/Libraries/wch_Libraries/Peripheral/ch32v10x_usart.c:106
  uint32_t tmpreg = 0x00, apbclock = 0x00;
    1d06:	fe042623          	sw	zero,-20(s0)
    1d0a:	fe042423          	sw	zero,-24(s0)
E:/桌面/19th智能车/单片机培训、考核/CH32V103_Library-master/Seekfree_CH32V103R8T6_Opensource_Library/Libraries/wch_Libraries/Peripheral/ch32v10x_usart.c:107
  uint32_t integerdivider = 0x00;
    1d0e:	fe042223          	sw	zero,-28(s0)
E:/桌面/19th智能车/单片机培训、考核/CH32V103_Library-master/Seekfree_CH32V103R8T6_Opensource_Library/Libraries/wch_Libraries/Peripheral/ch32v10x_usart.c:108
  uint32_t fractionaldivider = 0x00;
    1d12:	fe042023          	sw	zero,-32(s0)
E:/桌面/19th智能车/单片机培训、考核/CH32V103_Library-master/Seekfree_CH32V103R8T6_Opensource_Library/Libraries/wch_Libraries/Peripheral/ch32v10x_usart.c:109
  uint32_t usartxbase = 0;
    1d16:	fc042e23          	sw	zero,-36(s0)
E:/桌面/19th智能车/单片机培训、考核/CH32V103_Library-master/Seekfree_CH32V103R8T6_Opensource_Library/Libraries/wch_Libraries/Peripheral/ch32v10x_usart.c:116

  if (USART_InitStruct->USART_HardwareFlowControl != USART_HardwareFlowControl_None)
  {
  }

  usartxbase = (uint32_t)USARTx;
    1d1a:	fbc42783          	lw	a5,-68(s0)
    1d1e:	fcf42e23          	sw	a5,-36(s0)
E:/桌面/19th智能车/单片机培训、考核/CH32V103_Library-master/Seekfree_CH32V103R8T6_Opensource_Library/Libraries/wch_Libraries/Peripheral/ch32v10x_usart.c:117
  tmpreg = USARTx->CTLR2;
    1d22:	fbc42783          	lw	a5,-68(s0)
    1d26:	0107d783          	lhu	a5,16(a5)
    1d2a:	07c2                	slli	a5,a5,0x10
    1d2c:	83c1                	srli	a5,a5,0x10
    1d2e:	fef42623          	sw	a5,-20(s0)
E:/桌面/19th智能车/单片机培训、考核/CH32V103_Library-master/Seekfree_CH32V103R8T6_Opensource_Library/Libraries/wch_Libraries/Peripheral/ch32v10x_usart.c:118
  tmpreg &= CTLR2_STOP_CLEAR_Mask;
    1d32:	fec42703          	lw	a4,-20(s0)
    1d36:	67b5                	lui	a5,0xd
    1d38:	17fd                	addi	a5,a5,-1
    1d3a:	8ff9                	and	a5,a5,a4
    1d3c:	fef42623          	sw	a5,-20(s0)
E:/桌面/19th智能车/单片机培训、考核/CH32V103_Library-master/Seekfree_CH32V103R8T6_Opensource_Library/Libraries/wch_Libraries/Peripheral/ch32v10x_usart.c:119
  tmpreg |= (uint32_t)USART_InitStruct->USART_StopBits;  
    1d40:	fb842783          	lw	a5,-72(s0)
    1d44:	0067d783          	lhu	a5,6(a5) # d006 <_data_lma+0x5306>
    1d48:	873e                	mv	a4,a5
    1d4a:	fec42783          	lw	a5,-20(s0)
    1d4e:	8fd9                	or	a5,a5,a4
    1d50:	fef42623          	sw	a5,-20(s0)
E:/桌面/19th智能车/单片机培训、考核/CH32V103_Library-master/Seekfree_CH32V103R8T6_Opensource_Library/Libraries/wch_Libraries/Peripheral/ch32v10x_usart.c:121
	
  USARTx->CTLR2 = (uint16_t)tmpreg;
    1d54:	fec42783          	lw	a5,-20(s0)
    1d58:	01079713          	slli	a4,a5,0x10
    1d5c:	8341                	srli	a4,a4,0x10
    1d5e:	fbc42783          	lw	a5,-68(s0)
    1d62:	00e79823          	sh	a4,16(a5)
E:/桌面/19th智能车/单片机培训、考核/CH32V103_Library-master/Seekfree_CH32V103R8T6_Opensource_Library/Libraries/wch_Libraries/Peripheral/ch32v10x_usart.c:122
  tmpreg = USARTx->CTLR1;
    1d66:	fbc42783          	lw	a5,-68(s0)
    1d6a:	00c7d783          	lhu	a5,12(a5)
    1d6e:	07c2                	slli	a5,a5,0x10
    1d70:	83c1                	srli	a5,a5,0x10
    1d72:	fef42623          	sw	a5,-20(s0)
E:/桌面/19th智能车/单片机培训、考核/CH32V103_Library-master/Seekfree_CH32V103R8T6_Opensource_Library/Libraries/wch_Libraries/Peripheral/ch32v10x_usart.c:123
  tmpreg &= CTLR1_CLEAR_Mask;
    1d76:	fec42703          	lw	a4,-20(s0)
    1d7a:	67bd                	lui	a5,0xf
    1d7c:	9f378793          	addi	a5,a5,-1549 # e9f3 <_data_lma+0x6cf3>
    1d80:	8ff9                	and	a5,a5,a4
    1d82:	fef42623          	sw	a5,-20(s0)
E:/桌面/19th智能车/单片机培训、考核/CH32V103_Library-master/Seekfree_CH32V103R8T6_Opensource_Library/Libraries/wch_Libraries/Peripheral/ch32v10x_usart.c:124
  tmpreg |= (uint32_t)USART_InitStruct->USART_WordLength | USART_InitStruct->USART_Parity |
    1d86:	fb842783          	lw	a5,-72(s0)
    1d8a:	0047d703          	lhu	a4,4(a5)
    1d8e:	fb842783          	lw	a5,-72(s0)
    1d92:	0087d783          	lhu	a5,8(a5)
    1d96:	8fd9                	or	a5,a5,a4
    1d98:	01079713          	slli	a4,a5,0x10
    1d9c:	8341                	srli	a4,a4,0x10
E:/桌面/19th智能车/单片机培训、考核/CH32V103_Library-master/Seekfree_CH32V103R8T6_Opensource_Library/Libraries/wch_Libraries/Peripheral/ch32v10x_usart.c:125
            USART_InitStruct->USART_Mode;
    1d9e:	fb842783          	lw	a5,-72(s0)
    1da2:	00a7d783          	lhu	a5,10(a5)
E:/桌面/19th智能车/单片机培训、考核/CH32V103_Library-master/Seekfree_CH32V103R8T6_Opensource_Library/Libraries/wch_Libraries/Peripheral/ch32v10x_usart.c:124
  tmpreg |= (uint32_t)USART_InitStruct->USART_WordLength | USART_InitStruct->USART_Parity |
    1da6:	8fd9                	or	a5,a5,a4
    1da8:	07c2                	slli	a5,a5,0x10
    1daa:	83c1                	srli	a5,a5,0x10
    1dac:	873e                	mv	a4,a5
    1dae:	fec42783          	lw	a5,-20(s0)
    1db2:	8fd9                	or	a5,a5,a4
    1db4:	fef42623          	sw	a5,-20(s0)
E:/桌面/19th智能车/单片机培训、考核/CH32V103_Library-master/Seekfree_CH32V103R8T6_Opensource_Library/Libraries/wch_Libraries/Peripheral/ch32v10x_usart.c:126
  USARTx->CTLR1 = (uint16_t)tmpreg;
    1db8:	fec42783          	lw	a5,-20(s0)
    1dbc:	01079713          	slli	a4,a5,0x10
    1dc0:	8341                	srli	a4,a4,0x10
    1dc2:	fbc42783          	lw	a5,-68(s0)
    1dc6:	00e79623          	sh	a4,12(a5)
E:/桌面/19th智能车/单片机培训、考核/CH32V103_Library-master/Seekfree_CH32V103R8T6_Opensource_Library/Libraries/wch_Libraries/Peripheral/ch32v10x_usart.c:128
 
  tmpreg = USARTx->CTLR3;
    1dca:	fbc42783          	lw	a5,-68(s0)
    1dce:	0147d783          	lhu	a5,20(a5)
    1dd2:	07c2                	slli	a5,a5,0x10
    1dd4:	83c1                	srli	a5,a5,0x10
    1dd6:	fef42623          	sw	a5,-20(s0)
E:/桌面/19th智能车/单片机培训、考核/CH32V103_Library-master/Seekfree_CH32V103R8T6_Opensource_Library/Libraries/wch_Libraries/Peripheral/ch32v10x_usart.c:129
  tmpreg &= CTLR3_CLEAR_Mask;
    1dda:	fec42703          	lw	a4,-20(s0)
    1dde:	67c1                	lui	a5,0x10
    1de0:	cff78793          	addi	a5,a5,-769 # fcff <_data_lma+0x7fff>
    1de4:	8ff9                	and	a5,a5,a4
    1de6:	fef42623          	sw	a5,-20(s0)
E:/桌面/19th智能车/单片机培训、考核/CH32V103_Library-master/Seekfree_CH32V103R8T6_Opensource_Library/Libraries/wch_Libraries/Peripheral/ch32v10x_usart.c:130
  tmpreg |= USART_InitStruct->USART_HardwareFlowControl;
    1dea:	fb842783          	lw	a5,-72(s0)
    1dee:	00c7d783          	lhu	a5,12(a5)
    1df2:	873e                	mv	a4,a5
    1df4:	fec42783          	lw	a5,-20(s0)
    1df8:	8fd9                	or	a5,a5,a4
    1dfa:	fef42623          	sw	a5,-20(s0)
E:/桌面/19th智能车/单片机培训、考核/CH32V103_Library-master/Seekfree_CH32V103R8T6_Opensource_Library/Libraries/wch_Libraries/Peripheral/ch32v10x_usart.c:131
  USARTx->CTLR3 = (uint16_t)tmpreg;
    1dfe:	fec42783          	lw	a5,-20(s0)
    1e02:	01079713          	slli	a4,a5,0x10
    1e06:	8341                	srli	a4,a4,0x10
    1e08:	fbc42783          	lw	a5,-68(s0)
    1e0c:	00e79a23          	sh	a4,20(a5)
E:/桌面/19th智能车/单片机培训、考核/CH32V103_Library-master/Seekfree_CH32V103R8T6_Opensource_Library/Libraries/wch_Libraries/Peripheral/ch32v10x_usart.c:133

  RCC_GetClocksFreq(&RCC_ClocksStatus);
    1e10:	fc840793          	addi	a5,s0,-56
    1e14:	853e                	mv	a0,a5
    1e16:	e8ffe0ef          	jal	ra,ca4 <RCC_GetClocksFreq>
E:/桌面/19th智能车/单片机培训、考核/CH32V103_Library-master/Seekfree_CH32V103R8T6_Opensource_Library/Libraries/wch_Libraries/Peripheral/ch32v10x_usart.c:135
	
  if (usartxbase == USART1_BASE)
    1e1a:	fdc42703          	lw	a4,-36(s0)
    1e1e:	400147b7          	lui	a5,0x40014
    1e22:	80078793          	addi	a5,a5,-2048 # 40013800 <_eusrstack+0x2000e800>
    1e26:	00f71763          	bne	a4,a5,1e34 <USART_Init+0x13e>
E:/桌面/19th智能车/单片机培训、考核/CH32V103_Library-master/Seekfree_CH32V103R8T6_Opensource_Library/Libraries/wch_Libraries/Peripheral/ch32v10x_usart.c:137
  {
    apbclock = RCC_ClocksStatus.PCLK2_Frequency;
    1e2a:	fd442783          	lw	a5,-44(s0)
    1e2e:	fef42423          	sw	a5,-24(s0)
    1e32:	a029                	j	1e3c <USART_Init+0x146>
E:/桌面/19th智能车/单片机培训、考核/CH32V103_Library-master/Seekfree_CH32V103R8T6_Opensource_Library/Libraries/wch_Libraries/Peripheral/ch32v10x_usart.c:141
  }
  else
  {
    apbclock = RCC_ClocksStatus.PCLK1_Frequency;
    1e34:	fd042783          	lw	a5,-48(s0)
    1e38:	fef42423          	sw	a5,-24(s0)
E:/桌面/19th智能车/单片机培训、考核/CH32V103_Library-master/Seekfree_CH32V103R8T6_Opensource_Library/Libraries/wch_Libraries/Peripheral/ch32v10x_usart.c:144
  }
  
  if ((USARTx->CTLR1 & CTLR1_OVER8_Set) != 0)
    1e3c:	fbc42783          	lw	a5,-68(s0)
    1e40:	00c7d783          	lhu	a5,12(a5)
    1e44:	07c2                	slli	a5,a5,0x10
    1e46:	83c1                	srli	a5,a5,0x10
    1e48:	07c2                	slli	a5,a5,0x10
    1e4a:	87c1                	srai	a5,a5,0x10
    1e4c:	0207d263          	bgez	a5,1e70 <USART_Init+0x17a>
E:/桌面/19th智能车/单片机培训、考核/CH32V103_Library-master/Seekfree_CH32V103R8T6_Opensource_Library/Libraries/wch_Libraries/Peripheral/ch32v10x_usart.c:146
  {
    integerdivider = ((25 * apbclock) / (2 * (USART_InitStruct->USART_BaudRate)));    
    1e50:	fe842703          	lw	a4,-24(s0)
    1e54:	87ba                	mv	a5,a4
    1e56:	0786                	slli	a5,a5,0x1
    1e58:	97ba                	add	a5,a5,a4
    1e5a:	078e                	slli	a5,a5,0x3
    1e5c:	973e                	add	a4,a4,a5
    1e5e:	fb842783          	lw	a5,-72(s0)
    1e62:	439c                	lw	a5,0(a5)
    1e64:	0786                	slli	a5,a5,0x1
    1e66:	02f757b3          	divu	a5,a4,a5
    1e6a:	fef42223          	sw	a5,-28(s0)
    1e6e:	a005                	j	1e8e <USART_Init+0x198>
E:/桌面/19th智能车/单片机培训、考核/CH32V103_Library-master/Seekfree_CH32V103R8T6_Opensource_Library/Libraries/wch_Libraries/Peripheral/ch32v10x_usart.c:150
  }
  else 
  {
    integerdivider = ((25 * apbclock) / (4 * (USART_InitStruct->USART_BaudRate)));    
    1e70:	fe842703          	lw	a4,-24(s0)
    1e74:	87ba                	mv	a5,a4
    1e76:	0786                	slli	a5,a5,0x1
    1e78:	97ba                	add	a5,a5,a4
    1e7a:	078e                	slli	a5,a5,0x3
    1e7c:	973e                	add	a4,a4,a5
    1e7e:	fb842783          	lw	a5,-72(s0)
    1e82:	439c                	lw	a5,0(a5)
    1e84:	078a                	slli	a5,a5,0x2
    1e86:	02f757b3          	divu	a5,a4,a5
    1e8a:	fef42223          	sw	a5,-28(s0)
E:/桌面/19th智能车/单片机培训、考核/CH32V103_Library-master/Seekfree_CH32V103R8T6_Opensource_Library/Libraries/wch_Libraries/Peripheral/ch32v10x_usart.c:152
  }
  tmpreg = (integerdivider / 100) << 4;
    1e8e:	fe442703          	lw	a4,-28(s0)
    1e92:	06400793          	li	a5,100
    1e96:	02f757b3          	divu	a5,a4,a5
    1e9a:	0792                	slli	a5,a5,0x4
    1e9c:	fef42623          	sw	a5,-20(s0)
E:/桌面/19th智能车/单片机培训、考核/CH32V103_Library-master/Seekfree_CH32V103R8T6_Opensource_Library/Libraries/wch_Libraries/Peripheral/ch32v10x_usart.c:154

  fractionaldivider = integerdivider - (100 * (tmpreg >> 4));
    1ea0:	fec42783          	lw	a5,-20(s0)
    1ea4:	0047d713          	srli	a4,a5,0x4
    1ea8:	06400793          	li	a5,100
    1eac:	02f707b3          	mul	a5,a4,a5
    1eb0:	fe442703          	lw	a4,-28(s0)
    1eb4:	40f707b3          	sub	a5,a4,a5
    1eb8:	fef42023          	sw	a5,-32(s0)
E:/桌面/19th智能车/单片机培训、考核/CH32V103_Library-master/Seekfree_CH32V103R8T6_Opensource_Library/Libraries/wch_Libraries/Peripheral/ch32v10x_usart.c:156

  if ((USARTx->CTLR1 & CTLR1_OVER8_Set) != 0)
    1ebc:	fbc42783          	lw	a5,-68(s0)
    1ec0:	00c7d783          	lhu	a5,12(a5)
    1ec4:	07c2                	slli	a5,a5,0x10
    1ec6:	83c1                	srli	a5,a5,0x10
    1ec8:	07c2                	slli	a5,a5,0x10
    1eca:	87c1                	srai	a5,a5,0x10
    1ecc:	0207d263          	bgez	a5,1ef0 <USART_Init+0x1fa>
E:/桌面/19th智能车/单片机培训、考核/CH32V103_Library-master/Seekfree_CH32V103R8T6_Opensource_Library/Libraries/wch_Libraries/Peripheral/ch32v10x_usart.c:158
  {
    tmpreg |= ((((fractionaldivider * 8) + 50) / 100)) & ((uint8_t)0x07);
    1ed0:	fe042783          	lw	a5,-32(s0)
    1ed4:	078e                	slli	a5,a5,0x3
    1ed6:	03278713          	addi	a4,a5,50
    1eda:	06400793          	li	a5,100
    1ede:	02f757b3          	divu	a5,a4,a5
    1ee2:	8b9d                	andi	a5,a5,7
    1ee4:	fec42703          	lw	a4,-20(s0)
    1ee8:	8fd9                	or	a5,a5,a4
    1eea:	fef42623          	sw	a5,-20(s0)
    1eee:	a005                	j	1f0e <USART_Init+0x218>
E:/桌面/19th智能车/单片机培训、考核/CH32V103_Library-master/Seekfree_CH32V103R8T6_Opensource_Library/Libraries/wch_Libraries/Peripheral/ch32v10x_usart.c:162
  }
  else 
  {
    tmpreg |= ((((fractionaldivider * 16) + 50) / 100)) & ((uint8_t)0x0F);
    1ef0:	fe042783          	lw	a5,-32(s0)
    1ef4:	0792                	slli	a5,a5,0x4
    1ef6:	03278713          	addi	a4,a5,50
    1efa:	06400793          	li	a5,100
    1efe:	02f757b3          	divu	a5,a4,a5
    1f02:	8bbd                	andi	a5,a5,15
    1f04:	fec42703          	lw	a4,-20(s0)
    1f08:	8fd9                	or	a5,a5,a4
    1f0a:	fef42623          	sw	a5,-20(s0)
E:/桌面/19th智能车/单片机培训、考核/CH32V103_Library-master/Seekfree_CH32V103R8T6_Opensource_Library/Libraries/wch_Libraries/Peripheral/ch32v10x_usart.c:165
  }
  
  USARTx->BRR = (uint16_t)tmpreg;
    1f0e:	fec42783          	lw	a5,-20(s0)
    1f12:	01079713          	slli	a4,a5,0x10
    1f16:	8341                	srli	a4,a4,0x10
    1f18:	fbc42783          	lw	a5,-68(s0)
    1f1c:	00e79423          	sh	a4,8(a5)
E:/桌面/19th智能车/单片机培训、考核/CH32V103_Library-master/Seekfree_CH32V103R8T6_Opensource_Library/Libraries/wch_Libraries/Peripheral/ch32v10x_usart.c:166
}
    1f20:	0001                	nop
    1f22:	40b6                	lw	ra,76(sp)
    1f24:	4426                	lw	s0,72(sp)
    1f26:	6161                	addi	sp,sp,80
    1f28:	8082                	ret

00001f2a <USART_Cmd>:
USART_Cmd():
E:/桌面/19th智能车/单片机培训、考核/CH32V103_Library-master/Seekfree_CH32V103R8T6_Opensource_Library/Libraries/wch_Libraries/Peripheral/ch32v10x_usart.c:229
* Input          : USARTx: where x can be 1, 2, 3 to select the USART peripheral.
*                  NewState: ENABLE or DISABLE.
* Return         : None
*******************************************************************************/
void USART_Cmd(USART_TypeDef* USARTx, FunctionalState NewState)
{
    1f2a:	1101                	addi	sp,sp,-32
    1f2c:	ce22                	sw	s0,28(sp)
    1f2e:	1000                	addi	s0,sp,32
    1f30:	fea42623          	sw	a0,-20(s0)
    1f34:	feb42423          	sw	a1,-24(s0)
E:/桌面/19th智能车/单片机培训、考核/CH32V103_Library-master/Seekfree_CH32V103R8T6_Opensource_Library/Libraries/wch_Libraries/Peripheral/ch32v10x_usart.c:230
  if (NewState != DISABLE)
    1f38:	fe842783          	lw	a5,-24(s0)
    1f3c:	c395                	beqz	a5,1f60 <USART_Cmd+0x36>
E:/桌面/19th智能车/单片机培训、考核/CH32V103_Library-master/Seekfree_CH32V103R8T6_Opensource_Library/Libraries/wch_Libraries/Peripheral/ch32v10x_usart.c:232
  {
    USARTx->CTLR1 |= CTLR1_UE_Set;
    1f3e:	fec42783          	lw	a5,-20(s0)
    1f42:	00c7d783          	lhu	a5,12(a5)
    1f46:	01079713          	slli	a4,a5,0x10
    1f4a:	8341                	srli	a4,a4,0x10
    1f4c:	6789                	lui	a5,0x2
    1f4e:	8fd9                	or	a5,a5,a4
    1f50:	01079713          	slli	a4,a5,0x10
    1f54:	8341                	srli	a4,a4,0x10
    1f56:	fec42783          	lw	a5,-20(s0)
    1f5a:	00e79623          	sh	a4,12(a5) # 200c <USART_GetITStatus+0xe>
E:/桌面/19th智能车/单片机培训、考核/CH32V103_Library-master/Seekfree_CH32V103R8T6_Opensource_Library/Libraries/wch_Libraries/Peripheral/ch32v10x_usart.c:238
  }
  else
  {
    USARTx->CTLR1 &= CTLR1_UE_Reset;
  }
}
    1f5e:	a015                	j	1f82 <USART_Cmd+0x58>
E:/桌面/19th智能车/单片机培训、考核/CH32V103_Library-master/Seekfree_CH32V103R8T6_Opensource_Library/Libraries/wch_Libraries/Peripheral/ch32v10x_usart.c:236
    USARTx->CTLR1 &= CTLR1_UE_Reset;
    1f60:	fec42783          	lw	a5,-20(s0)
    1f64:	00c7d783          	lhu	a5,12(a5)
    1f68:	01079713          	slli	a4,a5,0x10
    1f6c:	8341                	srli	a4,a4,0x10
    1f6e:	77f9                	lui	a5,0xffffe
    1f70:	17fd                	addi	a5,a5,-1
    1f72:	8ff9                	and	a5,a5,a4
    1f74:	01079713          	slli	a4,a5,0x10
    1f78:	8341                	srli	a4,a4,0x10
    1f7a:	fec42783          	lw	a5,-20(s0)
    1f7e:	00e79623          	sh	a4,12(a5) # ffffe00c <_eusrstack+0xdfff900c>
E:/桌面/19th智能车/单片机培训、考核/CH32V103_Library-master/Seekfree_CH32V103R8T6_Opensource_Library/Libraries/wch_Libraries/Peripheral/ch32v10x_usart.c:238
}
    1f82:	0001                	nop
    1f84:	4472                	lw	s0,28(sp)
    1f86:	6105                	addi	sp,sp,32
    1f88:	8082                	ret

00001f8a <USART_SendData>:
USART_SendData():
E:/桌面/19th智能车/单片机培训、考核/CH32V103_Library-master/Seekfree_CH32V103R8T6_Opensource_Library/Libraries/wch_Libraries/Peripheral/ch32v10x_usart.c:404
* Input          : USARTx: where x can be 1, 2, 3 to select the USART peripheral.
*                  Data: the data to transmit..
* Return         : None
*******************************************************************************/
void USART_SendData(USART_TypeDef* USARTx, uint16_t Data)
{
    1f8a:	1101                	addi	sp,sp,-32
    1f8c:	ce22                	sw	s0,28(sp)
    1f8e:	1000                	addi	s0,sp,32
    1f90:	fea42623          	sw	a0,-20(s0)
    1f94:	87ae                	mv	a5,a1
    1f96:	fef41523          	sh	a5,-22(s0)
E:/桌面/19th智能车/单片机培训、考核/CH32V103_Library-master/Seekfree_CH32V103R8T6_Opensource_Library/Libraries/wch_Libraries/Peripheral/ch32v10x_usart.c:405
  USARTx->DATAR = (Data & (uint16_t)0x01FF);
    1f9a:	fea45783          	lhu	a5,-22(s0)
    1f9e:	1ff7f793          	andi	a5,a5,511
    1fa2:	01079713          	slli	a4,a5,0x10
    1fa6:	8341                	srli	a4,a4,0x10
    1fa8:	fec42783          	lw	a5,-20(s0)
    1fac:	00e79223          	sh	a4,4(a5)
E:/桌面/19th智能车/单片机培训、考核/CH32V103_Library-master/Seekfree_CH32V103R8T6_Opensource_Library/Libraries/wch_Libraries/Peripheral/ch32v10x_usart.c:406
}
    1fb0:	0001                	nop
    1fb2:	4472                	lw	s0,28(sp)
    1fb4:	6105                	addi	sp,sp,32
    1fb6:	8082                	ret

00001fb8 <USART_GetFlagStatus>:
USART_GetFlagStatus():
E:/桌面/19th智能车/单片机培训、考核/CH32V103_Library-master/Seekfree_CH32V103R8T6_Opensource_Library/Libraries/wch_Libraries/Peripheral/ch32v10x_usart.c:603
*                    USART_FLAG_FE: Framing Error flag.
*                    USART_FLAG_PE: Parity Error flag.
* Return         : bitstatus: SET or RESET.
*******************************************************************************/
FlagStatus USART_GetFlagStatus(USART_TypeDef* USARTx, uint16_t USART_FLAG)
{
    1fb8:	7179                	addi	sp,sp,-48
    1fba:	d622                	sw	s0,44(sp)
    1fbc:	1800                	addi	s0,sp,48
    1fbe:	fca42e23          	sw	a0,-36(s0)
    1fc2:	87ae                	mv	a5,a1
    1fc4:	fcf41d23          	sh	a5,-38(s0)
E:/桌面/19th智能车/单片机培训、考核/CH32V103_Library-master/Seekfree_CH32V103R8T6_Opensource_Library/Libraries/wch_Libraries/Peripheral/ch32v10x_usart.c:604
  FlagStatus bitstatus = RESET;
    1fc8:	fe042623          	sw	zero,-20(s0)
E:/桌面/19th智能车/单片机培训、考核/CH32V103_Library-master/Seekfree_CH32V103R8T6_Opensource_Library/Libraries/wch_Libraries/Peripheral/ch32v10x_usart.c:610

  if (USART_FLAG == USART_FLAG_CTS)
  {
  }  
  
  if ((USARTx->STATR & USART_FLAG) != (uint16_t)RESET)
    1fcc:	fdc42783          	lw	a5,-36(s0)
    1fd0:	0007d783          	lhu	a5,0(a5)
    1fd4:	01079713          	slli	a4,a5,0x10
    1fd8:	8341                	srli	a4,a4,0x10
    1fda:	fda45783          	lhu	a5,-38(s0)
    1fde:	8ff9                	and	a5,a5,a4
    1fe0:	07c2                	slli	a5,a5,0x10
    1fe2:	83c1                	srli	a5,a5,0x10
    1fe4:	c789                	beqz	a5,1fee <USART_GetFlagStatus+0x36>
E:/桌面/19th智能车/单片机培训、考核/CH32V103_Library-master/Seekfree_CH32V103R8T6_Opensource_Library/Libraries/wch_Libraries/Peripheral/ch32v10x_usart.c:612
  {
    bitstatus = SET;
    1fe6:	4785                	li	a5,1
    1fe8:	fef42623          	sw	a5,-20(s0)
    1fec:	a019                	j	1ff2 <USART_GetFlagStatus+0x3a>
E:/桌面/19th智能车/单片机培训、考核/CH32V103_Library-master/Seekfree_CH32V103R8T6_Opensource_Library/Libraries/wch_Libraries/Peripheral/ch32v10x_usart.c:616
  }
  else
  {
    bitstatus = RESET;
    1fee:	fe042623          	sw	zero,-20(s0)
E:/桌面/19th智能车/单片机培训、考核/CH32V103_Library-master/Seekfree_CH32V103R8T6_Opensource_Library/Libraries/wch_Libraries/Peripheral/ch32v10x_usart.c:618
  }
  return bitstatus;
    1ff2:	fec42783          	lw	a5,-20(s0)
E:/桌面/19th智能车/单片机培训、考核/CH32V103_Library-master/Seekfree_CH32V103R8T6_Opensource_Library/Libraries/wch_Libraries/Peripheral/ch32v10x_usart.c:619
}
    1ff6:	853e                	mv	a0,a5
    1ff8:	5432                	lw	s0,44(sp)
    1ffa:	6145                	addi	sp,sp,48
    1ffc:	8082                	ret

00001ffe <USART_GetITStatus>:
USART_GetITStatus():
E:/桌面/19th智能车/单片机培训、考核/CH32V103_Library-master/Seekfree_CH32V103R8T6_Opensource_Library/Libraries/wch_Libraries/Peripheral/ch32v10x_usart.c:660
*                    USART_IT_FE: Framing Error interrupt.
*                    USART_IT_PE: Parity Error interrupt.
* Return         : bitstatus: SET or RESET.
*******************************************************************************/
ITStatus USART_GetITStatus(USART_TypeDef* USARTx, uint16_t USART_IT)
{
    1ffe:	7179                	addi	sp,sp,-48
    2000:	d622                	sw	s0,44(sp)
    2002:	1800                	addi	s0,sp,48
    2004:	fca42e23          	sw	a0,-36(s0)
    2008:	87ae                	mv	a5,a1
    200a:	fcf41d23          	sh	a5,-38(s0)
E:/桌面/19th智能车/单片机培训、考核/CH32V103_Library-master/Seekfree_CH32V103R8T6_Opensource_Library/Libraries/wch_Libraries/Peripheral/ch32v10x_usart.c:661
  uint32_t bitpos = 0x00, itmask = 0x00, usartreg = 0x00;
    200e:	fe042223          	sw	zero,-28(s0)
    2012:	fe042623          	sw	zero,-20(s0)
    2016:	fe042023          	sw	zero,-32(s0)
E:/桌面/19th智能车/单片机培训、考核/CH32V103_Library-master/Seekfree_CH32V103R8T6_Opensource_Library/Libraries/wch_Libraries/Peripheral/ch32v10x_usart.c:662
  ITStatus bitstatus = RESET;
    201a:	fe042423          	sw	zero,-24(s0)
E:/桌面/19th智能车/单片机培训、考核/CH32V103_Library-master/Seekfree_CH32V103R8T6_Opensource_Library/Libraries/wch_Libraries/Peripheral/ch32v10x_usart.c:668

  if (USART_IT == USART_IT_CTS)
  {
  }   
  
  usartreg = (((uint8_t)USART_IT) >> 0x05);
    201e:	fda45783          	lhu	a5,-38(s0)
    2022:	0ff7f793          	andi	a5,a5,255
    2026:	8395                	srli	a5,a5,0x5
    2028:	0ff7f793          	andi	a5,a5,255
    202c:	fef42023          	sw	a5,-32(s0)
E:/桌面/19th智能车/单片机培训、考核/CH32V103_Library-master/Seekfree_CH32V103R8T6_Opensource_Library/Libraries/wch_Libraries/Peripheral/ch32v10x_usart.c:669
  itmask = USART_IT & IT_Mask;
    2030:	fda45783          	lhu	a5,-38(s0)
    2034:	8bfd                	andi	a5,a5,31
    2036:	fef42623          	sw	a5,-20(s0)
E:/桌面/19th智能车/单片机培训、考核/CH32V103_Library-master/Seekfree_CH32V103R8T6_Opensource_Library/Libraries/wch_Libraries/Peripheral/ch32v10x_usart.c:670
  itmask = (uint32_t)0x01 << itmask;
    203a:	fec42783          	lw	a5,-20(s0)
    203e:	4705                	li	a4,1
    2040:	00f717b3          	sll	a5,a4,a5
    2044:	fef42623          	sw	a5,-20(s0)
E:/桌面/19th智能车/单片机培训、考核/CH32V103_Library-master/Seekfree_CH32V103R8T6_Opensource_Library/Libraries/wch_Libraries/Peripheral/ch32v10x_usart.c:672
  
  if (usartreg == 0x01) 
    2048:	fe042703          	lw	a4,-32(s0)
    204c:	4785                	li	a5,1
    204e:	00f71f63          	bne	a4,a5,206c <USART_GetITStatus+0x6e>
E:/桌面/19th智能车/单片机培训、考核/CH32V103_Library-master/Seekfree_CH32V103R8T6_Opensource_Library/Libraries/wch_Libraries/Peripheral/ch32v10x_usart.c:674
  {
    itmask &= USARTx->CTLR1;
    2052:	fdc42783          	lw	a5,-36(s0)
    2056:	00c7d783          	lhu	a5,12(a5)
    205a:	07c2                	slli	a5,a5,0x10
    205c:	83c1                	srli	a5,a5,0x10
    205e:	873e                	mv	a4,a5
    2060:	fec42783          	lw	a5,-20(s0)
    2064:	8ff9                	and	a5,a5,a4
    2066:	fef42623          	sw	a5,-20(s0)
    206a:	a83d                	j	20a8 <USART_GetITStatus+0xaa>
E:/桌面/19th智能车/单片机培训、考核/CH32V103_Library-master/Seekfree_CH32V103R8T6_Opensource_Library/Libraries/wch_Libraries/Peripheral/ch32v10x_usart.c:676
  }
  else if (usartreg == 0x02) 
    206c:	fe042703          	lw	a4,-32(s0)
    2070:	4789                	li	a5,2
    2072:	00f71f63          	bne	a4,a5,2090 <USART_GetITStatus+0x92>
E:/桌面/19th智能车/单片机培训、考核/CH32V103_Library-master/Seekfree_CH32V103R8T6_Opensource_Library/Libraries/wch_Libraries/Peripheral/ch32v10x_usart.c:678
  {
    itmask &= USARTx->CTLR2;
    2076:	fdc42783          	lw	a5,-36(s0)
    207a:	0107d783          	lhu	a5,16(a5)
    207e:	07c2                	slli	a5,a5,0x10
    2080:	83c1                	srli	a5,a5,0x10
    2082:	873e                	mv	a4,a5
    2084:	fec42783          	lw	a5,-20(s0)
    2088:	8ff9                	and	a5,a5,a4
    208a:	fef42623          	sw	a5,-20(s0)
    208e:	a829                	j	20a8 <USART_GetITStatus+0xaa>
E:/桌面/19th智能车/单片机培训、考核/CH32V103_Library-master/Seekfree_CH32V103R8T6_Opensource_Library/Libraries/wch_Libraries/Peripheral/ch32v10x_usart.c:682
  }
  else 
  {
    itmask &= USARTx->CTLR3;
    2090:	fdc42783          	lw	a5,-36(s0)
    2094:	0147d783          	lhu	a5,20(a5)
    2098:	07c2                	slli	a5,a5,0x10
    209a:	83c1                	srli	a5,a5,0x10
    209c:	873e                	mv	a4,a5
    209e:	fec42783          	lw	a5,-20(s0)
    20a2:	8ff9                	and	a5,a5,a4
    20a4:	fef42623          	sw	a5,-20(s0)
E:/桌面/19th智能车/单片机培训、考核/CH32V103_Library-master/Seekfree_CH32V103R8T6_Opensource_Library/Libraries/wch_Libraries/Peripheral/ch32v10x_usart.c:685
  }
  
  bitpos = USART_IT >> 0x08;
    20a8:	fda45783          	lhu	a5,-38(s0)
    20ac:	83a1                	srli	a5,a5,0x8
    20ae:	07c2                	slli	a5,a5,0x10
    20b0:	83c1                	srli	a5,a5,0x10
    20b2:	fef42223          	sw	a5,-28(s0)
E:/桌面/19th智能车/单片机培训、考核/CH32V103_Library-master/Seekfree_CH32V103R8T6_Opensource_Library/Libraries/wch_Libraries/Peripheral/ch32v10x_usart.c:686
  bitpos = (uint32_t)0x01 << bitpos;
    20b6:	fe442783          	lw	a5,-28(s0)
    20ba:	4705                	li	a4,1
    20bc:	00f717b3          	sll	a5,a4,a5
    20c0:	fef42223          	sw	a5,-28(s0)
E:/桌面/19th智能车/单片机培训、考核/CH32V103_Library-master/Seekfree_CH32V103R8T6_Opensource_Library/Libraries/wch_Libraries/Peripheral/ch32v10x_usart.c:687
  bitpos &= USARTx->STATR;
    20c4:	fdc42783          	lw	a5,-36(s0)
    20c8:	0007d783          	lhu	a5,0(a5)
    20cc:	07c2                	slli	a5,a5,0x10
    20ce:	83c1                	srli	a5,a5,0x10
    20d0:	873e                	mv	a4,a5
    20d2:	fe442783          	lw	a5,-28(s0)
    20d6:	8ff9                	and	a5,a5,a4
    20d8:	fef42223          	sw	a5,-28(s0)
E:/桌面/19th智能车/单片机培训、考核/CH32V103_Library-master/Seekfree_CH32V103R8T6_Opensource_Library/Libraries/wch_Libraries/Peripheral/ch32v10x_usart.c:689
	
  if ((itmask != (uint16_t)RESET)&&(bitpos != (uint16_t)RESET))
    20dc:	fec42783          	lw	a5,-20(s0)
    20e0:	cb81                	beqz	a5,20f0 <USART_GetITStatus+0xf2>
E:/桌面/19th智能车/单片机培训、考核/CH32V103_Library-master/Seekfree_CH32V103R8T6_Opensource_Library/Libraries/wch_Libraries/Peripheral/ch32v10x_usart.c:689 (discriminator 1)
    20e2:	fe442783          	lw	a5,-28(s0)
    20e6:	c789                	beqz	a5,20f0 <USART_GetITStatus+0xf2>
E:/桌面/19th智能车/单片机培训、考核/CH32V103_Library-master/Seekfree_CH32V103R8T6_Opensource_Library/Libraries/wch_Libraries/Peripheral/ch32v10x_usart.c:691
  {
    bitstatus = SET;
    20e8:	4785                	li	a5,1
    20ea:	fef42423          	sw	a5,-24(s0)
    20ee:	a019                	j	20f4 <USART_GetITStatus+0xf6>
E:/桌面/19th智能车/单片机培训、考核/CH32V103_Library-master/Seekfree_CH32V103R8T6_Opensource_Library/Libraries/wch_Libraries/Peripheral/ch32v10x_usart.c:695
  }
  else
  {
    bitstatus = RESET;
    20f0:	fe042423          	sw	zero,-24(s0)
E:/桌面/19th智能车/单片机培训、考核/CH32V103_Library-master/Seekfree_CH32V103R8T6_Opensource_Library/Libraries/wch_Libraries/Peripheral/ch32v10x_usart.c:698
  }
  
  return bitstatus;  
    20f4:	fe842783          	lw	a5,-24(s0)
E:/桌面/19th智能车/单片机培训、考核/CH32V103_Library-master/Seekfree_CH32V103R8T6_Opensource_Library/Libraries/wch_Libraries/Peripheral/ch32v10x_usart.c:699
}
    20f8:	853e                	mv	a0,a5
    20fa:	5432                	lw	s0,44(sp)
    20fc:	6145                	addi	sp,sp,48
    20fe:	8082                	ret

00002100 <USART_ClearITPendingBit>:
USART_ClearITPendingBit():
E:/桌面/19th智能车/单片机培训、考核/CH32V103_Library-master/Seekfree_CH32V103R8T6_Opensource_Library/Libraries/wch_Libraries/Peripheral/ch32v10x_usart.c:713
*                    USART_IT_TC:   Transmission complete interrupt.
*                    USART_IT_RXNE: Receive Data register not empty interrupt.
* Return         : None
*******************************************************************************/
void USART_ClearITPendingBit(USART_TypeDef* USARTx, uint16_t USART_IT)
{
    2100:	7179                	addi	sp,sp,-48
    2102:	d622                	sw	s0,44(sp)
    2104:	1800                	addi	s0,sp,48
    2106:	fca42e23          	sw	a0,-36(s0)
    210a:	87ae                	mv	a5,a1
    210c:	fcf41d23          	sh	a5,-38(s0)
E:/桌面/19th智能车/单片机培训、考核/CH32V103_Library-master/Seekfree_CH32V103R8T6_Opensource_Library/Libraries/wch_Libraries/Peripheral/ch32v10x_usart.c:714
  uint16_t bitpos = 0x00, itmask = 0x00;
    2110:	fe041723          	sh	zero,-18(s0)
    2114:	fe041623          	sh	zero,-20(s0)
E:/桌面/19th智能车/单片机培训、考核/CH32V103_Library-master/Seekfree_CH32V103R8T6_Opensource_Library/Libraries/wch_Libraries/Peripheral/ch32v10x_usart.c:720

  if (USART_IT == USART_IT_CTS)
  {
  }   
  
  bitpos = USART_IT >> 0x08;
    2118:	fda45783          	lhu	a5,-38(s0)
    211c:	83a1                	srli	a5,a5,0x8
    211e:	fef41723          	sh	a5,-18(s0)
E:/桌面/19th智能车/单片机培训、考核/CH32V103_Library-master/Seekfree_CH32V103R8T6_Opensource_Library/Libraries/wch_Libraries/Peripheral/ch32v10x_usart.c:721
  itmask = ((uint16_t)0x01 << (uint16_t)bitpos);
    2122:	fee45783          	lhu	a5,-18(s0)
    2126:	4705                	li	a4,1
    2128:	00f717b3          	sll	a5,a4,a5
    212c:	fef41623          	sh	a5,-20(s0)
E:/桌面/19th智能车/单片机培训、考核/CH32V103_Library-master/Seekfree_CH32V103R8T6_Opensource_Library/Libraries/wch_Libraries/Peripheral/ch32v10x_usart.c:722
  USARTx->STATR = (uint16_t)~itmask;
    2130:	fec45783          	lhu	a5,-20(s0)
    2134:	fff7c793          	not	a5,a5
    2138:	01079713          	slli	a4,a5,0x10
    213c:	8341                	srli	a4,a4,0x10
    213e:	fdc42783          	lw	a5,-36(s0)
    2142:	00e79023          	sh	a4,0(a5)
E:/桌面/19th智能车/单片机培训、考核/CH32V103_Library-master/Seekfree_CH32V103R8T6_Opensource_Library/Libraries/wch_Libraries/Peripheral/ch32v10x_usart.c:723
}
    2146:	0001                	nop
    2148:	5432                	lw	s0,44(sp)
    214a:	6145                	addi	sp,sp,48
    214c:	8082                	ret

0000214e <bluetooth_ch9141_uart_callback>:
bluetooth_ch9141_uart_callback():
E:/桌面/19th智能车/单片机培训、考核/CH32V103_Library-master/Seekfree_CH32V103R8T6_Opensource_Library/Libraries/seekfree_peripheral/SEEKFREE_BLUETOOTH_CH9141.c:60
//  @since      v1.0
//  Sample usage:	
//  @note       该函数在ISR文件 串口8中断程序被调用
//-------------------------------------------------------------------------------------------------------------------
void bluetooth_ch9141_uart_callback()
{
    214e:	1141                	addi	sp,sp,-16
    2150:	c606                	sw	ra,12(sp)
    2152:	c422                	sw	s0,8(sp)
    2154:	0800                	addi	s0,sp,16
E:/桌面/19th智能车/单片机培训、考核/CH32V103_Library-master/Seekfree_CH32V103R8T6_Opensource_Library/Libraries/seekfree_peripheral/SEEKFREE_BLUETOOTH_CH9141.c:62

    if(1 == at_mode)
    2156:	82a1c783          	lbu	a5,-2006(gp) # 2000009a <at_mode>
    215a:	0ff7f713          	andi	a4,a5,255
    215e:	4785                	li	a5,1
    2160:	02f71e63          	bne	a4,a5,219c <bluetooth_ch9141_uart_callback+0x4e>
E:/桌面/19th智能车/单片机培训、考核/CH32V103_Library-master/Seekfree_CH32V103R8T6_Opensource_Library/Libraries/seekfree_peripheral/SEEKFREE_BLUETOOTH_CH9141.c:65
    {
        //进入AT模式 接收应答信号 此处if语句内代码用户不要改动
        at_mode_data[at_mode_num++] = ((USART_TypeDef*)UARTN[BLUETOOTH_CH9141_UART])->DATAR & 0x01FF;;
    2164:	67a1                	lui	a5,0x8
    2166:	a9c7a783          	lw	a5,-1380(a5) # 7a9c <UARTN>
    216a:	0047d783          	lhu	a5,4(a5)
    216e:	01079613          	slli	a2,a5,0x10
    2172:	8241                	srli	a2,a2,0x10
    2174:	82b1c783          	lbu	a5,-2005(gp) # 2000009b <at_mode_num>
    2178:	0ff7f793          	andi	a5,a5,255
    217c:	00178713          	addi	a4,a5,1
    2180:	0ff77693          	andi	a3,a4,255
    2184:	82d185a3          	sb	a3,-2005(gp) # 2000009b <at_mode_num>
    2188:	86be                	mv	a3,a5
    218a:	0ff67713          	andi	a4,a2,255
    218e:	87818793          	addi	a5,gp,-1928 # 200000e8 <at_mode_data>
    2192:	97b6                	add	a5,a5,a3
    2194:	00e78023          	sb	a4,0(a5)
E:/桌面/19th智能车/单片机培训、考核/CH32V103_Library-master/Seekfree_CH32V103R8T6_Opensource_Library/Libraries/seekfree_peripheral/SEEKFREE_BLUETOOTH_CH9141.c:66
        bluetooth_ch9141_check_response();
    2198:	20b1                	jal	21e4 <bluetooth_ch9141_check_response>
E:/桌面/19th智能车/单片机培训、考核/CH32V103_Library-master/Seekfree_CH32V103R8T6_Opensource_Library/Libraries/seekfree_peripheral/SEEKFREE_BLUETOOTH_CH9141.c:84
        uart_flag = 1;
        uart_data = ((USART_TypeDef*)UARTN[BLUETOOTH_CH9141_UART])->DATAR & 0x01FF;;
    }
        

}
    219a:	a081                	j	21da <bluetooth_ch9141_uart_callback+0x8c>
E:/桌面/19th智能车/单片机培训、考核/CH32V103_Library-master/Seekfree_CH32V103R8T6_Opensource_Library/Libraries/seekfree_peripheral/SEEKFREE_BLUETOOTH_CH9141.c:68
    else if(2 == at_mode)
    219c:	82a1c783          	lbu	a5,-2006(gp) # 2000009a <at_mode>
    21a0:	0ff7f713          	andi	a4,a5,255
    21a4:	4789                	li	a5,2
    21a6:	00f71c63          	bne	a4,a5,21be <bluetooth_ch9141_uart_callback+0x70>
E:/桌面/19th智能车/单片机培训、考核/CH32V103_Library-master/Seekfree_CH32V103R8T6_Opensource_Library/Libraries/seekfree_peripheral/SEEKFREE_BLUETOOTH_CH9141.c:71
        at_mode_num++;
    21aa:	82b1c783          	lbu	a5,-2005(gp) # 2000009b <at_mode_num>
    21ae:	0ff7f793          	andi	a5,a5,255
    21b2:	0785                	addi	a5,a5,1
    21b4:	0ff7f713          	andi	a4,a5,255
    21b8:	82e185a3          	sb	a4,-2005(gp) # 2000009b <at_mode_num>
E:/桌面/19th智能车/单片机培训、考核/CH32V103_Library-master/Seekfree_CH32V103R8T6_Opensource_Library/Libraries/seekfree_peripheral/SEEKFREE_BLUETOOTH_CH9141.c:84
}
    21bc:	a839                	j	21da <bluetooth_ch9141_uart_callback+0x8c>
E:/桌面/19th智能车/单片机培训、考核/CH32V103_Library-master/Seekfree_CH32V103R8T6_Opensource_Library/Libraries/seekfree_peripheral/SEEKFREE_BLUETOOTH_CH9141.c:79
        uart_flag = 1;
    21be:	4705                	li	a4,1
    21c0:	82e18423          	sb	a4,-2008(gp) # 20000098 <uart_flag>
E:/桌面/19th智能车/单片机培训、考核/CH32V103_Library-master/Seekfree_CH32V103R8T6_Opensource_Library/Libraries/seekfree_peripheral/SEEKFREE_BLUETOOTH_CH9141.c:80
        uart_data = ((USART_TypeDef*)UARTN[BLUETOOTH_CH9141_UART])->DATAR & 0x01FF;;
    21c4:	67a1                	lui	a5,0x8
    21c6:	a9c7a783          	lw	a5,-1380(a5) # 7a9c <UARTN>
    21ca:	0047d783          	lhu	a5,4(a5)
    21ce:	07c2                	slli	a5,a5,0x10
    21d0:	83c1                	srli	a5,a5,0x10
    21d2:	0ff7f713          	andi	a4,a5,255
    21d6:	82e184a3          	sb	a4,-2007(gp) # 20000099 <uart_data>
E:/桌面/19th智能车/单片机培训、考核/CH32V103_Library-master/Seekfree_CH32V103R8T6_Opensource_Library/Libraries/seekfree_peripheral/SEEKFREE_BLUETOOTH_CH9141.c:84
}
    21da:	0001                	nop
    21dc:	40b2                	lw	ra,12(sp)
    21de:	4422                	lw	s0,8(sp)
    21e0:	0141                	addi	sp,sp,16
    21e2:	8082                	ret

000021e4 <bluetooth_ch9141_check_response>:
bluetooth_ch9141_check_response():
E:/桌面/19th智能车/单片机培训、考核/CH32V103_Library-master/Seekfree_CH32V103R8T6_Opensource_Library/Libraries/seekfree_peripheral/SEEKFREE_BLUETOOTH_CH9141.c:95
//  @since      v1.0
//  Sample usage:	
//  @note       用户无需关心
//-------------------------------------------------------------------------------------------------------------------
void bluetooth_ch9141_check_response(void)
{
    21e4:	1141                	addi	sp,sp,-16
    21e6:	c606                	sw	ra,12(sp)
    21e8:	c422                	sw	s0,8(sp)
    21ea:	0800                	addi	s0,sp,16
E:/桌面/19th智能车/单片机培训、考核/CH32V103_Library-master/Seekfree_CH32V103R8T6_Opensource_Library/Libraries/seekfree_peripheral/SEEKFREE_BLUETOOTH_CH9141.c:96
    if(4 <= at_mode_num)
    21ec:	82b1c783          	lbu	a5,-2005(gp) # 2000009b <at_mode_num>
    21f0:	0ff7f713          	andi	a4,a5,255
    21f4:	478d                	li	a5,3
    21f6:	02e7f763          	bgeu	a5,a4,2224 <bluetooth_ch9141_check_response+0x40>
E:/桌面/19th智能车/单片机培训、考核/CH32V103_Library-master/Seekfree_CH32V103R8T6_Opensource_Library/Libraries/seekfree_peripheral/SEEKFREE_BLUETOOTH_CH9141.c:98
    {
        if(0 == strncmp("OK\r\n", (int8 *)&at_mode_data[at_mode_num-4], 4))
    21fa:	82b1c783          	lbu	a5,-2005(gp) # 2000009b <at_mode_num>
    21fe:	0ff7f793          	andi	a5,a5,255
    2202:	ffc78713          	addi	a4,a5,-4
    2206:	87818793          	addi	a5,gp,-1928 # 200000e8 <at_mode_data>
    220a:	97ba                	add	a5,a5,a4
    220c:	4611                	li	a2,4
    220e:	85be                	mv	a1,a5
    2210:	679d                	lui	a5,0x7
    2212:	25878513          	addi	a0,a5,600 # 7258 <_exit+0x4>
    2216:	0be040ef          	jal	ra,62d4 <strncmp>
    221a:	87aa                	mv	a5,a0
    221c:	e781                	bnez	a5,2224 <bluetooth_ch9141_check_response+0x40>
E:/桌面/19th智能车/单片机培训、考核/CH32V103_Library-master/Seekfree_CH32V103R8T6_Opensource_Library/Libraries/seekfree_peripheral/SEEKFREE_BLUETOOTH_CH9141.c:100
        {
            at_mode_cmd_flag = 1;
    221e:	4705                	li	a4,1
    2220:	82e18623          	sb	a4,-2004(gp) # 2000009c <at_mode_cmd_flag>
E:/桌面/19th智能车/单片机培训、考核/CH32V103_Library-master/Seekfree_CH32V103R8T6_Opensource_Library/Libraries/seekfree_peripheral/SEEKFREE_BLUETOOTH_CH9141.c:103
        }
    }
}
    2224:	0001                	nop
    2226:	40b2                	lw	ra,12(sp)
    2228:	4422                	lw	s0,8(sp)
    222a:	0141                	addi	sp,sp,16
    222c:	8082                	ret

0000222e <ips114_writeIndex>:
ips114_writeIndex():
E:/桌面/19th智能车/单片机培训、考核/CH32V103_Library-master/Seekfree_CH32V103R8T6_Opensource_Library/Libraries/seekfree_peripheral/SEEKFREE_IPS114_SPI.c:50
//  @return     				
//  @since      v1.0
//  Sample usage:               
//-------------------------------------------------------------------------------------------------------------------
void ips114_writeIndex(uint8 dat)			//写命令
{	
    222e:	1101                	addi	sp,sp,-32
    2230:	ce06                	sw	ra,28(sp)
    2232:	cc22                	sw	s0,24(sp)
    2234:	1000                	addi	s0,sp,32
    2236:	87aa                	mv	a5,a0
    2238:	fef407a3          	sb	a5,-17(s0)
E:/桌面/19th智能车/单片机培训、考核/CH32V103_Library-master/Seekfree_CH32V103R8T6_Opensource_Library/Libraries/seekfree_peripheral/SEEKFREE_IPS114_SPI.c:51
    IPS114_CS(0);
    223c:	67a1                	lui	a5,0x8
    223e:	a6c78793          	addi	a5,a5,-1428 # 7a6c <GPION>
    2242:	479c                	lw	a5,8(a5)
    2244:	873e                	mv	a4,a5
    2246:	67a1                	lui	a5,0x8
    2248:	cb5c                	sw	a5,20(a4)
E:/桌面/19th智能车/单片机培训、考核/CH32V103_Library-master/Seekfree_CH32V103R8T6_Opensource_Library/Libraries/seekfree_peripheral/SEEKFREE_IPS114_SPI.c:52
    IPS114_DC(0);
    224a:	67a1                	lui	a5,0x8
    224c:	a6c78793          	addi	a5,a5,-1428 # 7a6c <GPION>
    2250:	479c                	lw	a5,8(a5)
    2252:	873e                	mv	a4,a5
    2254:	6791                	lui	a5,0x4
    2256:	cb5c                	sw	a5,20(a4)
E:/桌面/19th智能车/单片机培训、考核/CH32V103_Library-master/Seekfree_CH32V103R8T6_Opensource_Library/Libraries/seekfree_peripheral/SEEKFREE_IPS114_SPI.c:53
    spi_mosi(IPS114_SPIN, &dat, NULL, 1);
    2258:	fef40793          	addi	a5,s0,-17
    225c:	4685                	li	a3,1
    225e:	4601                	li	a2,0
    2260:	85be                	mv	a1,a5
    2262:	4501                	li	a0,0
    2264:	45d010ef          	jal	ra,3ec0 <spi_mosi>
E:/桌面/19th智能车/单片机培训、考核/CH32V103_Library-master/Seekfree_CH32V103R8T6_Opensource_Library/Libraries/seekfree_peripheral/SEEKFREE_IPS114_SPI.c:54
    IPS114_CS(1);
    2268:	67a1                	lui	a5,0x8
    226a:	a6c78793          	addi	a5,a5,-1428 # 7a6c <GPION>
    226e:	479c                	lw	a5,8(a5)
    2270:	873e                	mv	a4,a5
    2272:	67a1                	lui	a5,0x8
    2274:	cb1c                	sw	a5,16(a4)
E:/桌面/19th智能车/单片机培训、考核/CH32V103_Library-master/Seekfree_CH32V103R8T6_Opensource_Library/Libraries/seekfree_peripheral/SEEKFREE_IPS114_SPI.c:55
}
    2276:	0001                	nop
    2278:	40f2                	lw	ra,28(sp)
    227a:	4462                	lw	s0,24(sp)
    227c:	6105                	addi	sp,sp,32
    227e:	8082                	ret

00002280 <ips114_writeData>:
ips114_writeData():
E:/桌面/19th智能车/单片机培训、考核/CH32V103_Library-master/Seekfree_CH32V103R8T6_Opensource_Library/Libraries/seekfree_peripheral/SEEKFREE_IPS114_SPI.c:65
//  @return     				
//  @since      v1.0
//  Sample usage:               
//-------------------------------------------------------------------------------------------------------------------
void ips114_writeData(uint8 dat)			//写数据
{
    2280:	1101                	addi	sp,sp,-32
    2282:	ce06                	sw	ra,28(sp)
    2284:	cc22                	sw	s0,24(sp)
    2286:	1000                	addi	s0,sp,32
    2288:	87aa                	mv	a5,a0
    228a:	fef407a3          	sb	a5,-17(s0)
E:/桌面/19th智能车/单片机培训、考核/CH32V103_Library-master/Seekfree_CH32V103R8T6_Opensource_Library/Libraries/seekfree_peripheral/SEEKFREE_IPS114_SPI.c:66
    IPS114_CS(0);
    228e:	67a1                	lui	a5,0x8
    2290:	a6c78793          	addi	a5,a5,-1428 # 7a6c <GPION>
    2294:	479c                	lw	a5,8(a5)
    2296:	873e                	mv	a4,a5
    2298:	67a1                	lui	a5,0x8
    229a:	cb5c                	sw	a5,20(a4)
E:/桌面/19th智能车/单片机培训、考核/CH32V103_Library-master/Seekfree_CH32V103R8T6_Opensource_Library/Libraries/seekfree_peripheral/SEEKFREE_IPS114_SPI.c:67
    IPS114_DC(1);
    229c:	67a1                	lui	a5,0x8
    229e:	a6c78793          	addi	a5,a5,-1428 # 7a6c <GPION>
    22a2:	479c                	lw	a5,8(a5)
    22a4:	873e                	mv	a4,a5
    22a6:	6791                	lui	a5,0x4
    22a8:	cb1c                	sw	a5,16(a4)
E:/桌面/19th智能车/单片机培训、考核/CH32V103_Library-master/Seekfree_CH32V103R8T6_Opensource_Library/Libraries/seekfree_peripheral/SEEKFREE_IPS114_SPI.c:68
    spi_mosi(IPS114_SPIN, &dat, NULL, 1);
    22aa:	fef40793          	addi	a5,s0,-17
    22ae:	4685                	li	a3,1
    22b0:	4601                	li	a2,0
    22b2:	85be                	mv	a1,a5
    22b4:	4501                	li	a0,0
    22b6:	40b010ef          	jal	ra,3ec0 <spi_mosi>
E:/桌面/19th智能车/单片机培训、考核/CH32V103_Library-master/Seekfree_CH32V103R8T6_Opensource_Library/Libraries/seekfree_peripheral/SEEKFREE_IPS114_SPI.c:69
    IPS114_CS(1);
    22ba:	67a1                	lui	a5,0x8
    22bc:	a6c78793          	addi	a5,a5,-1428 # 7a6c <GPION>
    22c0:	479c                	lw	a5,8(a5)
    22c2:	873e                	mv	a4,a5
    22c4:	67a1                	lui	a5,0x8
    22c6:	cb1c                	sw	a5,16(a4)
E:/桌面/19th智能车/单片机培训、考核/CH32V103_Library-master/Seekfree_CH32V103R8T6_Opensource_Library/Libraries/seekfree_peripheral/SEEKFREE_IPS114_SPI.c:70
}
    22c8:	0001                	nop
    22ca:	40f2                	lw	ra,28(sp)
    22cc:	4462                	lw	s0,24(sp)
    22ce:	6105                	addi	sp,sp,32
    22d0:	8082                	ret

000022d2 <ips114_writedata_16bit>:
ips114_writedata_16bit():
E:/桌面/19th智能车/单片机培训、考核/CH32V103_Library-master/Seekfree_CH32V103R8T6_Opensource_Library/Libraries/seekfree_peripheral/SEEKFREE_IPS114_SPI.c:80
//  @return     				
//  @since      v1.0
//  Sample usage:               
//-------------------------------------------------------------------------------------------------------------------
void ips114_writedata_16bit(uint16 dat)	//向液晶屏写一个16位数据
{
    22d2:	7179                	addi	sp,sp,-48
    22d4:	d606                	sw	ra,44(sp)
    22d6:	d422                	sw	s0,40(sp)
    22d8:	1800                	addi	s0,sp,48
    22da:	87aa                	mv	a5,a0
    22dc:	fcf41f23          	sh	a5,-34(s0)
E:/桌面/19th智能车/单片机培训、考核/CH32V103_Library-master/Seekfree_CH32V103R8T6_Opensource_Library/Libraries/seekfree_peripheral/SEEKFREE_IPS114_SPI.c:82
    uint8 dat1[2];
    IPS114_CS(0);
    22e0:	67a1                	lui	a5,0x8
    22e2:	a6c78793          	addi	a5,a5,-1428 # 7a6c <GPION>
    22e6:	479c                	lw	a5,8(a5)
    22e8:	873e                	mv	a4,a5
    22ea:	67a1                	lui	a5,0x8
    22ec:	cb5c                	sw	a5,20(a4)
E:/桌面/19th智能车/单片机培训、考核/CH32V103_Library-master/Seekfree_CH32V103R8T6_Opensource_Library/Libraries/seekfree_peripheral/SEEKFREE_IPS114_SPI.c:83
    dat1[0] = dat >> 8;
    22ee:	fde45783          	lhu	a5,-34(s0)
    22f2:	83a1                	srli	a5,a5,0x8
    22f4:	07c2                	slli	a5,a5,0x10
    22f6:	83c1                	srli	a5,a5,0x10
    22f8:	0ff7f793          	andi	a5,a5,255
    22fc:	fef40623          	sb	a5,-20(s0)
E:/桌面/19th智能车/单片机培训、考核/CH32V103_Library-master/Seekfree_CH32V103R8T6_Opensource_Library/Libraries/seekfree_peripheral/SEEKFREE_IPS114_SPI.c:84
    dat1[1] = (uint8)dat;
    2300:	fde45783          	lhu	a5,-34(s0)
    2304:	0ff7f793          	andi	a5,a5,255
    2308:	fef406a3          	sb	a5,-19(s0)
E:/桌面/19th智能车/单片机培训、考核/CH32V103_Library-master/Seekfree_CH32V103R8T6_Opensource_Library/Libraries/seekfree_peripheral/SEEKFREE_IPS114_SPI.c:86
    
    IPS114_DC(1);
    230c:	67a1                	lui	a5,0x8
    230e:	a6c78793          	addi	a5,a5,-1428 # 7a6c <GPION>
    2312:	479c                	lw	a5,8(a5)
    2314:	873e                	mv	a4,a5
    2316:	6791                	lui	a5,0x4
    2318:	cb1c                	sw	a5,16(a4)
E:/桌面/19th智能车/单片机培训、考核/CH32V103_Library-master/Seekfree_CH32V103R8T6_Opensource_Library/Libraries/seekfree_peripheral/SEEKFREE_IPS114_SPI.c:87
    spi_mosi(IPS114_SPIN, dat1, NULL, 2); 	//写入数据  高位在前  低位在后
    231a:	fec40793          	addi	a5,s0,-20
    231e:	4689                	li	a3,2
    2320:	4601                	li	a2,0
    2322:	85be                	mv	a1,a5
    2324:	4501                	li	a0,0
    2326:	39b010ef          	jal	ra,3ec0 <spi_mosi>
E:/桌面/19th智能车/单片机培训、考核/CH32V103_Library-master/Seekfree_CH32V103R8T6_Opensource_Library/Libraries/seekfree_peripheral/SEEKFREE_IPS114_SPI.c:88
    IPS114_CS(1);
    232a:	67a1                	lui	a5,0x8
    232c:	a6c78793          	addi	a5,a5,-1428 # 7a6c <GPION>
    2330:	479c                	lw	a5,8(a5)
    2332:	873e                	mv	a4,a5
    2334:	67a1                	lui	a5,0x8
    2336:	cb1c                	sw	a5,16(a4)
E:/桌面/19th智能车/单片机培训、考核/CH32V103_Library-master/Seekfree_CH32V103R8T6_Opensource_Library/Libraries/seekfree_peripheral/SEEKFREE_IPS114_SPI.c:89
}
    2338:	0001                	nop
    233a:	50b2                	lw	ra,44(sp)
    233c:	5422                	lw	s0,40(sp)
    233e:	6145                	addi	sp,sp,48
    2340:	8082                	ret

00002342 <ips114_init>:
ips114_init():
E:/桌面/19th智能车/单片机培训、考核/CH32V103_Library-master/Seekfree_CH32V103R8T6_Opensource_Library/Libraries/seekfree_peripheral/SEEKFREE_IPS114_SPI.c:98
//  @return     void
//  @since      v1.0
//  Sample usage:               
//-------------------------------------------------------------------------------------------------------------------
void ips114_init(void)
{
    2342:	7179                	addi	sp,sp,-48
    2344:	d606                	sw	ra,44(sp)
    2346:	d422                	sw	s0,40(sp)
    2348:	d24a                	sw	s2,36(sp)
    234a:	d04e                	sw	s3,32(sp)
    234c:	ce52                	sw	s4,28(sp)
    234e:	cc56                	sw	s5,24(sp)
    2350:	ca5a                	sw	s6,20(sp)
    2352:	c85e                	sw	s7,16(sp)
    2354:	c662                	sw	s8,12(sp)
    2356:	c466                	sw	s9,8(sp)
    2358:	1800                	addi	s0,sp,48
E:/桌面/19th智能车/单片机培训、考核/CH32V103_Library-master/Seekfree_CH32V103R8T6_Opensource_Library/Libraries/seekfree_peripheral/SEEKFREE_IPS114_SPI.c:99
    spi_init(IPS114_SPIN, IPS114_SCL_PIN, IPS114_SDA_PIN, IPS114_SDA_IN_PIN, IPS114_CS_PIN, 0, FPCLK_DIV_2);//硬件SPI初始化
    235a:	4801                	li	a6,0
    235c:	4781                	li	a5,0
    235e:	04f00713          	li	a4,79
    2362:	02300693          	li	a3,35
    2366:	4605                	li	a2,1
    2368:	4581                	li	a1,0
    236a:	4501                	li	a0,0
    236c:	21d010ef          	jal	ra,3d88 <spi_init>
E:/桌面/19th智能车/单片机培训、考核/CH32V103_Library-master/Seekfree_CH32V103R8T6_Opensource_Library/Libraries/seekfree_peripheral/SEEKFREE_IPS114_SPI.c:101

    gpio_init(IPS114_BL_PIN, GPO, 1, GPIO_PIN_CONFIG);
    2370:	31000693          	li	a3,784
    2374:	4605                	li	a2,1
    2376:	4585                	li	a1,1
    2378:	08000513          	li	a0,128
    237c:	5af000ef          	jal	ra,312a <gpio_init>
E:/桌面/19th智能车/单片机培训、考核/CH32V103_Library-master/Seekfree_CH32V103R8T6_Opensource_Library/Libraries/seekfree_peripheral/SEEKFREE_IPS114_SPI.c:102
    gpio_init(IPS114_DC_PIN, GPO, 0, GPIO_PIN_CONFIG);
    2380:	31000693          	li	a3,784
    2384:	4601                	li	a2,0
    2386:	4585                	li	a1,1
    2388:	04e00513          	li	a0,78
    238c:	59f000ef          	jal	ra,312a <gpio_init>
E:/桌面/19th智能车/单片机培训、考核/CH32V103_Library-master/Seekfree_CH32V103R8T6_Opensource_Library/Libraries/seekfree_peripheral/SEEKFREE_IPS114_SPI.c:103
    gpio_init(IPS114_REST_PIN, GPO, 0, GPIO_PIN_CONFIG);
    2390:	31000693          	li	a3,784
    2394:	4601                	li	a2,0
    2396:	4585                	li	a1,1
    2398:	04d00513          	li	a0,77
    239c:	58f000ef          	jal	ra,312a <gpio_init>
E:/桌面/19th智能车/单片机培训、考核/CH32V103_Library-master/Seekfree_CH32V103R8T6_Opensource_Library/Libraries/seekfree_peripheral/SEEKFREE_IPS114_SPI.c:105

    IPS114_REST(0);
    23a0:	67a1                	lui	a5,0x8
    23a2:	a6c78793          	addi	a5,a5,-1428 # 7a6c <GPION>
    23a6:	479c                	lw	a5,8(a5)
    23a8:	873e                	mv	a4,a5
    23aa:	6789                	lui	a5,0x2
    23ac:	cb5c                	sw	a5,20(a4)
E:/桌面/19th智能车/单片机培训、考核/CH32V103_Library-master/Seekfree_CH32V103R8T6_Opensource_Library/Libraries/seekfree_peripheral/SEEKFREE_IPS114_SPI.c:106
    systick_delay_ms(200);
    23ae:	8481a703          	lw	a4,-1976(gp) # 200000b8 <sys_clk>
    23b2:	6789                	lui	a5,0x2
    23b4:	f4078793          	addi	a5,a5,-192 # 1f40 <USART_Cmd+0x16>
    23b8:	02f75733          	divu	a4,a4,a5
    23bc:	0c800793          	li	a5,200
    23c0:	02f707b3          	mul	a5,a4,a5
    23c4:	8c3e                	mv	s8,a5
    23c6:	4c81                	li	s9,0
    23c8:	8562                	mv	a0,s8
    23ca:	85e6                	mv	a1,s9
    23cc:	3b7010ef          	jal	ra,3f82 <systick_delay>
E:/桌面/19th智能车/单片机培训、考核/CH32V103_Library-master/Seekfree_CH32V103R8T6_Opensource_Library/Libraries/seekfree_peripheral/SEEKFREE_IPS114_SPI.c:108
    
    IPS114_REST(1);
    23d0:	67a1                	lui	a5,0x8
    23d2:	a6c78793          	addi	a5,a5,-1428 # 7a6c <GPION>
    23d6:	479c                	lw	a5,8(a5)
    23d8:	873e                	mv	a4,a5
    23da:	6789                	lui	a5,0x2
    23dc:	cb1c                	sw	a5,16(a4)
E:/桌面/19th智能车/单片机培训、考核/CH32V103_Library-master/Seekfree_CH32V103R8T6_Opensource_Library/Libraries/seekfree_peripheral/SEEKFREE_IPS114_SPI.c:109
    systick_delay_ms(100);
    23de:	8481a703          	lw	a4,-1976(gp) # 200000b8 <sys_clk>
    23e2:	6789                	lui	a5,0x2
    23e4:	f4078793          	addi	a5,a5,-192 # 1f40 <USART_Cmd+0x16>
    23e8:	02f75733          	divu	a4,a4,a5
    23ec:	06400793          	li	a5,100
    23f0:	02f707b3          	mul	a5,a4,a5
    23f4:	8b3e                	mv	s6,a5
    23f6:	4b81                	li	s7,0
    23f8:	855a                	mv	a0,s6
    23fa:	85de                	mv	a1,s7
    23fc:	387010ef          	jal	ra,3f82 <systick_delay>
E:/桌面/19th智能车/单片机培训、考核/CH32V103_Library-master/Seekfree_CH32V103R8T6_Opensource_Library/Libraries/seekfree_peripheral/SEEKFREE_IPS114_SPI.c:111
	
    ips114_writeIndex(0x36);
    2400:	03600513          	li	a0,54
    2404:	352d                	jal	222e <ips114_writeIndex>
E:/桌面/19th智能车/单片机培训、考核/CH32V103_Library-master/Seekfree_CH32V103R8T6_Opensource_Library/Libraries/seekfree_peripheral/SEEKFREE_IPS114_SPI.c:112
    systick_delay_ms(100);
    2406:	8481a703          	lw	a4,-1976(gp) # 200000b8 <sys_clk>
    240a:	6789                	lui	a5,0x2
    240c:	f4078793          	addi	a5,a5,-192 # 1f40 <USART_Cmd+0x16>
    2410:	02f75733          	divu	a4,a4,a5
    2414:	06400793          	li	a5,100
    2418:	02f707b3          	mul	a5,a4,a5
    241c:	8a3e                	mv	s4,a5
    241e:	4a81                	li	s5,0
    2420:	8552                	mv	a0,s4
    2422:	85d6                	mv	a1,s5
    2424:	35f010ef          	jal	ra,3f82 <systick_delay>
E:/桌面/19th智能车/单片机培训、考核/CH32V103_Library-master/Seekfree_CH32V103R8T6_Opensource_Library/Libraries/seekfree_peripheral/SEEKFREE_IPS114_SPI.c:116
    if      (IPS114_DISPLAY_DIR==0)    ips114_writeData(0x00);
    else if (IPS114_DISPLAY_DIR==1)    ips114_writeData(0xC0);
    else if (IPS114_DISPLAY_DIR==2)    ips114_writeData(0x70);
    else                            ips114_writeData(0xA0);
    2428:	0a000513          	li	a0,160
    242c:	3d91                	jal	2280 <ips114_writeData>
E:/桌面/19th智能车/单片机培训、考核/CH32V103_Library-master/Seekfree_CH32V103R8T6_Opensource_Library/Libraries/seekfree_peripheral/SEEKFREE_IPS114_SPI.c:118
    
    ips114_writeIndex(0x3A); 
    242e:	03a00513          	li	a0,58
    2432:	3bf5                	jal	222e <ips114_writeIndex>
E:/桌面/19th智能车/单片机培训、考核/CH32V103_Library-master/Seekfree_CH32V103R8T6_Opensource_Library/Libraries/seekfree_peripheral/SEEKFREE_IPS114_SPI.c:119
    ips114_writeData(0x05);
    2434:	4515                	li	a0,5
    2436:	35a9                	jal	2280 <ips114_writeData>
E:/桌面/19th智能车/单片机培训、考核/CH32V103_Library-master/Seekfree_CH32V103R8T6_Opensource_Library/Libraries/seekfree_peripheral/SEEKFREE_IPS114_SPI.c:121

    ips114_writeIndex(0xB2);
    2438:	0b200513          	li	a0,178
    243c:	3bcd                	jal	222e <ips114_writeIndex>
E:/桌面/19th智能车/单片机培训、考核/CH32V103_Library-master/Seekfree_CH32V103R8T6_Opensource_Library/Libraries/seekfree_peripheral/SEEKFREE_IPS114_SPI.c:122
    ips114_writeData(0x0C);
    243e:	4531                	li	a0,12
    2440:	3581                	jal	2280 <ips114_writeData>
E:/桌面/19th智能车/单片机培训、考核/CH32V103_Library-master/Seekfree_CH32V103R8T6_Opensource_Library/Libraries/seekfree_peripheral/SEEKFREE_IPS114_SPI.c:123
    ips114_writeData(0x0C);
    2442:	4531                	li	a0,12
    2444:	3d35                	jal	2280 <ips114_writeData>
E:/桌面/19th智能车/单片机培训、考核/CH32V103_Library-master/Seekfree_CH32V103R8T6_Opensource_Library/Libraries/seekfree_peripheral/SEEKFREE_IPS114_SPI.c:124
    ips114_writeData(0x00);
    2446:	4501                	li	a0,0
    2448:	3d25                	jal	2280 <ips114_writeData>
E:/桌面/19th智能车/单片机培训、考核/CH32V103_Library-master/Seekfree_CH32V103R8T6_Opensource_Library/Libraries/seekfree_peripheral/SEEKFREE_IPS114_SPI.c:125
    ips114_writeData(0x33);
    244a:	03300513          	li	a0,51
    244e:	3d0d                	jal	2280 <ips114_writeData>
E:/桌面/19th智能车/单片机培训、考核/CH32V103_Library-master/Seekfree_CH32V103R8T6_Opensource_Library/Libraries/seekfree_peripheral/SEEKFREE_IPS114_SPI.c:126
    ips114_writeData(0x33); 
    2450:	03300513          	li	a0,51
    2454:	3535                	jal	2280 <ips114_writeData>
E:/桌面/19th智能车/单片机培训、考核/CH32V103_Library-master/Seekfree_CH32V103R8T6_Opensource_Library/Libraries/seekfree_peripheral/SEEKFREE_IPS114_SPI.c:128

    ips114_writeIndex(0xB7); 
    2456:	0b700513          	li	a0,183
    245a:	3bd1                	jal	222e <ips114_writeIndex>
E:/桌面/19th智能车/单片机培训、考核/CH32V103_Library-master/Seekfree_CH32V103R8T6_Opensource_Library/Libraries/seekfree_peripheral/SEEKFREE_IPS114_SPI.c:129
    ips114_writeData(0x35);  
    245c:	03500513          	li	a0,53
    2460:	3505                	jal	2280 <ips114_writeData>
E:/桌面/19th智能车/单片机培训、考核/CH32V103_Library-master/Seekfree_CH32V103R8T6_Opensource_Library/Libraries/seekfree_peripheral/SEEKFREE_IPS114_SPI.c:131

    ips114_writeIndex(0xBB);
    2462:	0bb00513          	li	a0,187
    2466:	33e1                	jal	222e <ips114_writeIndex>
E:/桌面/19th智能车/单片机培训、考核/CH32V103_Library-master/Seekfree_CH32V103R8T6_Opensource_Library/Libraries/seekfree_peripheral/SEEKFREE_IPS114_SPI.c:132
    ips114_writeData(0x37);
    2468:	03700513          	li	a0,55
    246c:	3d11                	jal	2280 <ips114_writeData>
E:/桌面/19th智能车/单片机培训、考核/CH32V103_Library-master/Seekfree_CH32V103R8T6_Opensource_Library/Libraries/seekfree_peripheral/SEEKFREE_IPS114_SPI.c:134

    ips114_writeIndex(0xC0);
    246e:	0c000513          	li	a0,192
    2472:	3b75                	jal	222e <ips114_writeIndex>
E:/桌面/19th智能车/单片机培训、考核/CH32V103_Library-master/Seekfree_CH32V103R8T6_Opensource_Library/Libraries/seekfree_peripheral/SEEKFREE_IPS114_SPI.c:135
    ips114_writeData(0x2C);
    2474:	02c00513          	li	a0,44
    2478:	3521                	jal	2280 <ips114_writeData>
E:/桌面/19th智能车/单片机培训、考核/CH32V103_Library-master/Seekfree_CH32V103R8T6_Opensource_Library/Libraries/seekfree_peripheral/SEEKFREE_IPS114_SPI.c:137

    ips114_writeIndex(0xC2);
    247a:	0c200513          	li	a0,194
    247e:	3b45                	jal	222e <ips114_writeIndex>
E:/桌面/19th智能车/单片机培训、考核/CH32V103_Library-master/Seekfree_CH32V103R8T6_Opensource_Library/Libraries/seekfree_peripheral/SEEKFREE_IPS114_SPI.c:138
    ips114_writeData(0x01);
    2480:	4505                	li	a0,1
    2482:	3bfd                	jal	2280 <ips114_writeData>
E:/桌面/19th智能车/单片机培训、考核/CH32V103_Library-master/Seekfree_CH32V103R8T6_Opensource_Library/Libraries/seekfree_peripheral/SEEKFREE_IPS114_SPI.c:140

    ips114_writeIndex(0xC3);
    2484:	0c300513          	li	a0,195
    2488:	335d                	jal	222e <ips114_writeIndex>
E:/桌面/19th智能车/单片机培训、考核/CH32V103_Library-master/Seekfree_CH32V103R8T6_Opensource_Library/Libraries/seekfree_peripheral/SEEKFREE_IPS114_SPI.c:141
    ips114_writeData(0x12);   
    248a:	4549                	li	a0,18
    248c:	3bd5                	jal	2280 <ips114_writeData>
E:/桌面/19th智能车/单片机培训、考核/CH32V103_Library-master/Seekfree_CH32V103R8T6_Opensource_Library/Libraries/seekfree_peripheral/SEEKFREE_IPS114_SPI.c:143

    ips114_writeIndex(0xC4);
    248e:	0c400513          	li	a0,196
    2492:	3b71                	jal	222e <ips114_writeIndex>
E:/桌面/19th智能车/单片机培训、考核/CH32V103_Library-master/Seekfree_CH32V103R8T6_Opensource_Library/Libraries/seekfree_peripheral/SEEKFREE_IPS114_SPI.c:144
    ips114_writeData(0x20);  
    2494:	02000513          	li	a0,32
    2498:	33e5                	jal	2280 <ips114_writeData>
E:/桌面/19th智能车/单片机培训、考核/CH32V103_Library-master/Seekfree_CH32V103R8T6_Opensource_Library/Libraries/seekfree_peripheral/SEEKFREE_IPS114_SPI.c:146

    ips114_writeIndex(0xC6); 
    249a:	0c600513          	li	a0,198
    249e:	3b41                	jal	222e <ips114_writeIndex>
E:/桌面/19th智能车/单片机培训、考核/CH32V103_Library-master/Seekfree_CH32V103R8T6_Opensource_Library/Libraries/seekfree_peripheral/SEEKFREE_IPS114_SPI.c:147
    ips114_writeData(0x0F);    
    24a0:	453d                	li	a0,15
    24a2:	3bf9                	jal	2280 <ips114_writeData>
E:/桌面/19th智能车/单片机培训、考核/CH32V103_Library-master/Seekfree_CH32V103R8T6_Opensource_Library/Libraries/seekfree_peripheral/SEEKFREE_IPS114_SPI.c:149

    ips114_writeIndex(0xD0); 
    24a4:	0d000513          	li	a0,208
    24a8:	3359                	jal	222e <ips114_writeIndex>
E:/桌面/19th智能车/单片机培训、考核/CH32V103_Library-master/Seekfree_CH32V103R8T6_Opensource_Library/Libraries/seekfree_peripheral/SEEKFREE_IPS114_SPI.c:150
    ips114_writeData(0xA4);
    24aa:	0a400513          	li	a0,164
    24ae:	3bc9                	jal	2280 <ips114_writeData>
E:/桌面/19th智能车/单片机培训、考核/CH32V103_Library-master/Seekfree_CH32V103R8T6_Opensource_Library/Libraries/seekfree_peripheral/SEEKFREE_IPS114_SPI.c:151
    ips114_writeData(0xA1);
    24b0:	0a100513          	li	a0,161
    24b4:	33f1                	jal	2280 <ips114_writeData>
E:/桌面/19th智能车/单片机培训、考核/CH32V103_Library-master/Seekfree_CH32V103R8T6_Opensource_Library/Libraries/seekfree_peripheral/SEEKFREE_IPS114_SPI.c:153

    ips114_writeIndex(0xE0);
    24b6:	0e000513          	li	a0,224
    24ba:	3b95                	jal	222e <ips114_writeIndex>
E:/桌面/19th智能车/单片机培训、考核/CH32V103_Library-master/Seekfree_CH32V103R8T6_Opensource_Library/Libraries/seekfree_peripheral/SEEKFREE_IPS114_SPI.c:154
    ips114_writeData(0xD0);
    24bc:	0d000513          	li	a0,208
    24c0:	33c1                	jal	2280 <ips114_writeData>
E:/桌面/19th智能车/单片机培训、考核/CH32V103_Library-master/Seekfree_CH32V103R8T6_Opensource_Library/Libraries/seekfree_peripheral/SEEKFREE_IPS114_SPI.c:155
    ips114_writeData(0x04);
    24c2:	4511                	li	a0,4
    24c4:	3b75                	jal	2280 <ips114_writeData>
E:/桌面/19th智能车/单片机培训、考核/CH32V103_Library-master/Seekfree_CH32V103R8T6_Opensource_Library/Libraries/seekfree_peripheral/SEEKFREE_IPS114_SPI.c:156
    ips114_writeData(0x0D);
    24c6:	4535                	li	a0,13
    24c8:	3b65                	jal	2280 <ips114_writeData>
E:/桌面/19th智能车/单片机培训、考核/CH32V103_Library-master/Seekfree_CH32V103R8T6_Opensource_Library/Libraries/seekfree_peripheral/SEEKFREE_IPS114_SPI.c:157
    ips114_writeData(0x11);
    24ca:	4545                	li	a0,17
    24cc:	3b55                	jal	2280 <ips114_writeData>
E:/桌面/19th智能车/单片机培训、考核/CH32V103_Library-master/Seekfree_CH32V103R8T6_Opensource_Library/Libraries/seekfree_peripheral/SEEKFREE_IPS114_SPI.c:158
    ips114_writeData(0x13);
    24ce:	454d                	li	a0,19
    24d0:	3b45                	jal	2280 <ips114_writeData>
E:/桌面/19th智能车/单片机培训、考核/CH32V103_Library-master/Seekfree_CH32V103R8T6_Opensource_Library/Libraries/seekfree_peripheral/SEEKFREE_IPS114_SPI.c:159
    ips114_writeData(0x2B);
    24d2:	02b00513          	li	a0,43
    24d6:	336d                	jal	2280 <ips114_writeData>
E:/桌面/19th智能车/单片机培训、考核/CH32V103_Library-master/Seekfree_CH32V103R8T6_Opensource_Library/Libraries/seekfree_peripheral/SEEKFREE_IPS114_SPI.c:160
    ips114_writeData(0x3F);
    24d8:	03f00513          	li	a0,63
    24dc:	3355                	jal	2280 <ips114_writeData>
E:/桌面/19th智能车/单片机培训、考核/CH32V103_Library-master/Seekfree_CH32V103R8T6_Opensource_Library/Libraries/seekfree_peripheral/SEEKFREE_IPS114_SPI.c:161
    ips114_writeData(0x54);
    24de:	05400513          	li	a0,84
    24e2:	3b79                	jal	2280 <ips114_writeData>
E:/桌面/19th智能车/单片机培训、考核/CH32V103_Library-master/Seekfree_CH32V103R8T6_Opensource_Library/Libraries/seekfree_peripheral/SEEKFREE_IPS114_SPI.c:162
    ips114_writeData(0x4C);
    24e4:	04c00513          	li	a0,76
    24e8:	3b61                	jal	2280 <ips114_writeData>
E:/桌面/19th智能车/单片机培训、考核/CH32V103_Library-master/Seekfree_CH32V103R8T6_Opensource_Library/Libraries/seekfree_peripheral/SEEKFREE_IPS114_SPI.c:163
    ips114_writeData(0x18);
    24ea:	4561                	li	a0,24
    24ec:	3b51                	jal	2280 <ips114_writeData>
E:/桌面/19th智能车/单片机培训、考核/CH32V103_Library-master/Seekfree_CH32V103R8T6_Opensource_Library/Libraries/seekfree_peripheral/SEEKFREE_IPS114_SPI.c:164
    ips114_writeData(0x0D);
    24ee:	4535                	li	a0,13
    24f0:	3b41                	jal	2280 <ips114_writeData>
E:/桌面/19th智能车/单片机培训、考核/CH32V103_Library-master/Seekfree_CH32V103R8T6_Opensource_Library/Libraries/seekfree_peripheral/SEEKFREE_IPS114_SPI.c:165
    ips114_writeData(0x0B);
    24f2:	452d                	li	a0,11
    24f4:	3371                	jal	2280 <ips114_writeData>
E:/桌面/19th智能车/单片机培训、考核/CH32V103_Library-master/Seekfree_CH32V103R8T6_Opensource_Library/Libraries/seekfree_peripheral/SEEKFREE_IPS114_SPI.c:166
    ips114_writeData(0x1F);
    24f6:	457d                	li	a0,31
    24f8:	3361                	jal	2280 <ips114_writeData>
E:/桌面/19th智能车/单片机培训、考核/CH32V103_Library-master/Seekfree_CH32V103R8T6_Opensource_Library/Libraries/seekfree_peripheral/SEEKFREE_IPS114_SPI.c:167
    ips114_writeData(0x23);
    24fa:	02300513          	li	a0,35
    24fe:	3349                	jal	2280 <ips114_writeData>
E:/桌面/19th智能车/单片机培训、考核/CH32V103_Library-master/Seekfree_CH32V103R8T6_Opensource_Library/Libraries/seekfree_peripheral/SEEKFREE_IPS114_SPI.c:169

    ips114_writeIndex(0xE1);
    2500:	0e100513          	li	a0,225
    2504:	332d                	jal	222e <ips114_writeIndex>
E:/桌面/19th智能车/单片机培训、考核/CH32V103_Library-master/Seekfree_CH32V103R8T6_Opensource_Library/Libraries/seekfree_peripheral/SEEKFREE_IPS114_SPI.c:170
    ips114_writeData(0xD0);
    2506:	0d000513          	li	a0,208
    250a:	3b9d                	jal	2280 <ips114_writeData>
E:/桌面/19th智能车/单片机培训、考核/CH32V103_Library-master/Seekfree_CH32V103R8T6_Opensource_Library/Libraries/seekfree_peripheral/SEEKFREE_IPS114_SPI.c:171
    ips114_writeData(0x04);
    250c:	4511                	li	a0,4
    250e:	3b8d                	jal	2280 <ips114_writeData>
E:/桌面/19th智能车/单片机培训、考核/CH32V103_Library-master/Seekfree_CH32V103R8T6_Opensource_Library/Libraries/seekfree_peripheral/SEEKFREE_IPS114_SPI.c:172
    ips114_writeData(0x0C);
    2510:	4531                	li	a0,12
    2512:	33bd                	jal	2280 <ips114_writeData>
E:/桌面/19th智能车/单片机培训、考核/CH32V103_Library-master/Seekfree_CH32V103R8T6_Opensource_Library/Libraries/seekfree_peripheral/SEEKFREE_IPS114_SPI.c:173
    ips114_writeData(0x11);
    2514:	4545                	li	a0,17
    2516:	33ad                	jal	2280 <ips114_writeData>
E:/桌面/19th智能车/单片机培训、考核/CH32V103_Library-master/Seekfree_CH32V103R8T6_Opensource_Library/Libraries/seekfree_peripheral/SEEKFREE_IPS114_SPI.c:174
    ips114_writeData(0x13);
    2518:	454d                	li	a0,19
    251a:	339d                	jal	2280 <ips114_writeData>
E:/桌面/19th智能车/单片机培训、考核/CH32V103_Library-master/Seekfree_CH32V103R8T6_Opensource_Library/Libraries/seekfree_peripheral/SEEKFREE_IPS114_SPI.c:175
    ips114_writeData(0x2C);
    251c:	02c00513          	li	a0,44
    2520:	3385                	jal	2280 <ips114_writeData>
E:/桌面/19th智能车/单片机培训、考核/CH32V103_Library-master/Seekfree_CH32V103R8T6_Opensource_Library/Libraries/seekfree_peripheral/SEEKFREE_IPS114_SPI.c:176
    ips114_writeData(0x3F);
    2522:	03f00513          	li	a0,63
    2526:	3ba9                	jal	2280 <ips114_writeData>
E:/桌面/19th智能车/单片机培训、考核/CH32V103_Library-master/Seekfree_CH32V103R8T6_Opensource_Library/Libraries/seekfree_peripheral/SEEKFREE_IPS114_SPI.c:177
    ips114_writeData(0x44);
    2528:	04400513          	li	a0,68
    252c:	3b91                	jal	2280 <ips114_writeData>
E:/桌面/19th智能车/单片机培训、考核/CH32V103_Library-master/Seekfree_CH32V103R8T6_Opensource_Library/Libraries/seekfree_peripheral/SEEKFREE_IPS114_SPI.c:178
    ips114_writeData(0x51);
    252e:	05100513          	li	a0,81
    2532:	33b9                	jal	2280 <ips114_writeData>
E:/桌面/19th智能车/单片机培训、考核/CH32V103_Library-master/Seekfree_CH32V103R8T6_Opensource_Library/Libraries/seekfree_peripheral/SEEKFREE_IPS114_SPI.c:179
    ips114_writeData(0x2F);
    2534:	02f00513          	li	a0,47
    2538:	33a1                	jal	2280 <ips114_writeData>
E:/桌面/19th智能车/单片机培训、考核/CH32V103_Library-master/Seekfree_CH32V103R8T6_Opensource_Library/Libraries/seekfree_peripheral/SEEKFREE_IPS114_SPI.c:180
    ips114_writeData(0x1F);
    253a:	457d                	li	a0,31
    253c:	3391                	jal	2280 <ips114_writeData>
E:/桌面/19th智能车/单片机培训、考核/CH32V103_Library-master/Seekfree_CH32V103R8T6_Opensource_Library/Libraries/seekfree_peripheral/SEEKFREE_IPS114_SPI.c:181
    ips114_writeData(0x1F);
    253e:	457d                	li	a0,31
    2540:	3381                	jal	2280 <ips114_writeData>
E:/桌面/19th智能车/单片机培训、考核/CH32V103_Library-master/Seekfree_CH32V103R8T6_Opensource_Library/Libraries/seekfree_peripheral/SEEKFREE_IPS114_SPI.c:182
    ips114_writeData(0x20);
    2542:	02000513          	li	a0,32
    2546:	3b2d                	jal	2280 <ips114_writeData>
E:/桌面/19th智能车/单片机培训、考核/CH32V103_Library-master/Seekfree_CH32V103R8T6_Opensource_Library/Libraries/seekfree_peripheral/SEEKFREE_IPS114_SPI.c:183
    ips114_writeData(0x23);
    2548:	02300513          	li	a0,35
    254c:	3b15                	jal	2280 <ips114_writeData>
E:/桌面/19th智能车/单片机培训、考核/CH32V103_Library-master/Seekfree_CH32V103R8T6_Opensource_Library/Libraries/seekfree_peripheral/SEEKFREE_IPS114_SPI.c:185

    ips114_writeIndex(0x21); 
    254e:	02100513          	li	a0,33
    2552:	39f1                	jal	222e <ips114_writeIndex>
E:/桌面/19th智能车/单片机培训、考核/CH32V103_Library-master/Seekfree_CH32V103R8T6_Opensource_Library/Libraries/seekfree_peripheral/SEEKFREE_IPS114_SPI.c:187

    ips114_writeIndex(0x11); 
    2554:	4545                	li	a0,17
    2556:	39e1                	jal	222e <ips114_writeIndex>
E:/桌面/19th智能车/单片机培训、考核/CH32V103_Library-master/Seekfree_CH32V103R8T6_Opensource_Library/Libraries/seekfree_peripheral/SEEKFREE_IPS114_SPI.c:188
    systick_delay_ms(120); 
    2558:	8481a703          	lw	a4,-1976(gp) # 200000b8 <sys_clk>
    255c:	6789                	lui	a5,0x2
    255e:	f4078793          	addi	a5,a5,-192 # 1f40 <USART_Cmd+0x16>
    2562:	02f75733          	divu	a4,a4,a5
    2566:	87ba                	mv	a5,a4
    2568:	0792                	slli	a5,a5,0x4
    256a:	8f99                	sub	a5,a5,a4
    256c:	078e                	slli	a5,a5,0x3
    256e:	893e                	mv	s2,a5
    2570:	4981                	li	s3,0
    2572:	854a                	mv	a0,s2
    2574:	85ce                	mv	a1,s3
    2576:	20d010ef          	jal	ra,3f82 <systick_delay>
E:/桌面/19th智能车/单片机培训、考核/CH32V103_Library-master/Seekfree_CH32V103R8T6_Opensource_Library/Libraries/seekfree_peripheral/SEEKFREE_IPS114_SPI.c:190

    ips114_writeIndex(0x29);
    257a:	02900513          	li	a0,41
    257e:	3945                	jal	222e <ips114_writeIndex>
E:/桌面/19th智能车/单片机培训、考核/CH32V103_Library-master/Seekfree_CH32V103R8T6_Opensource_Library/Libraries/seekfree_peripheral/SEEKFREE_IPS114_SPI.c:191
    ips114_clear(IPS114_BGCOLOR);
    2580:	67c1                	lui	a5,0x10
    2582:	fff78513          	addi	a0,a5,-1 # ffff <_data_lma+0x82ff>
    2586:	2869                	jal	2620 <ips114_clear>
E:/桌面/19th智能车/单片机培训、考核/CH32V103_Library-master/Seekfree_CH32V103R8T6_Opensource_Library/Libraries/seekfree_peripheral/SEEKFREE_IPS114_SPI.c:192
}
    2588:	0001                	nop
    258a:	50b2                	lw	ra,44(sp)
    258c:	5422                	lw	s0,40(sp)
    258e:	5912                	lw	s2,36(sp)
    2590:	5982                	lw	s3,32(sp)
    2592:	4a72                	lw	s4,28(sp)
    2594:	4ae2                	lw	s5,24(sp)
    2596:	4b52                	lw	s6,20(sp)
    2598:	4bc2                	lw	s7,16(sp)
    259a:	4c32                	lw	s8,12(sp)
    259c:	4ca2                	lw	s9,8(sp)
    259e:	6145                	addi	sp,sp,48
    25a0:	8082                	ret

000025a2 <ips114_set_region>:
ips114_set_region():
E:/桌面/19th智能车/单片机培训、考核/CH32V103_Library-master/Seekfree_CH32V103R8T6_Opensource_Library/Libraries/seekfree_peripheral/SEEKFREE_IPS114_SPI.c:197



void ips114_set_region(uint16 x1,uint16 y1,uint16 x2,uint16 y2)
{
    25a2:	1101                	addi	sp,sp,-32
    25a4:	ce06                	sw	ra,28(sp)
    25a6:	cc22                	sw	s0,24(sp)
    25a8:	1000                	addi	s0,sp,32
    25aa:	87aa                	mv	a5,a0
    25ac:	8736                	mv	a4,a3
    25ae:	fef41723          	sh	a5,-18(s0)
    25b2:	87ae                	mv	a5,a1
    25b4:	fef41623          	sh	a5,-20(s0)
    25b8:	87b2                	mv	a5,a2
    25ba:	fef41523          	sh	a5,-22(s0)
    25be:	87ba                	mv	a5,a4
    25c0:	fef41423          	sh	a5,-24(s0)
E:/桌面/19th智能车/单片机培训、考核/CH32V103_Library-master/Seekfree_CH32V103R8T6_Opensource_Library/Libraries/seekfree_peripheral/SEEKFREE_IPS114_SPI.c:230
		ips114_writedata_16bit(y2+53);
		ips114_writeIndex(0x2c);//储存器写
	}
	else
	{
		ips114_writeIndex(0x2a);//列地址设置
    25c4:	02a00513          	li	a0,42
    25c8:	319d                	jal	222e <ips114_writeIndex>
E:/桌面/19th智能车/单片机培训、考核/CH32V103_Library-master/Seekfree_CH32V103R8T6_Opensource_Library/Libraries/seekfree_peripheral/SEEKFREE_IPS114_SPI.c:231
		ips114_writedata_16bit(x1+40);
    25ca:	fee45783          	lhu	a5,-18(s0)
    25ce:	02878793          	addi	a5,a5,40
    25d2:	07c2                	slli	a5,a5,0x10
    25d4:	83c1                	srli	a5,a5,0x10
    25d6:	853e                	mv	a0,a5
    25d8:	39ed                	jal	22d2 <ips114_writedata_16bit>
E:/桌面/19th智能车/单片机培训、考核/CH32V103_Library-master/Seekfree_CH32V103R8T6_Opensource_Library/Libraries/seekfree_peripheral/SEEKFREE_IPS114_SPI.c:232
		ips114_writedata_16bit(x2+40);
    25da:	fea45783          	lhu	a5,-22(s0)
    25de:	02878793          	addi	a5,a5,40
    25e2:	07c2                	slli	a5,a5,0x10
    25e4:	83c1                	srli	a5,a5,0x10
    25e6:	853e                	mv	a0,a5
    25e8:	31ed                	jal	22d2 <ips114_writedata_16bit>
E:/桌面/19th智能车/单片机培训、考核/CH32V103_Library-master/Seekfree_CH32V103R8T6_Opensource_Library/Libraries/seekfree_peripheral/SEEKFREE_IPS114_SPI.c:233
		ips114_writeIndex(0x2b);//行地址设置
    25ea:	02b00513          	li	a0,43
    25ee:	3181                	jal	222e <ips114_writeIndex>
E:/桌面/19th智能车/单片机培训、考核/CH32V103_Library-master/Seekfree_CH32V103R8T6_Opensource_Library/Libraries/seekfree_peripheral/SEEKFREE_IPS114_SPI.c:234
		ips114_writedata_16bit(y1+52);
    25f0:	fec45783          	lhu	a5,-20(s0)
    25f4:	03478793          	addi	a5,a5,52
    25f8:	07c2                	slli	a5,a5,0x10
    25fa:	83c1                	srli	a5,a5,0x10
    25fc:	853e                	mv	a0,a5
    25fe:	39d1                	jal	22d2 <ips114_writedata_16bit>
E:/桌面/19th智能车/单片机培训、考核/CH32V103_Library-master/Seekfree_CH32V103R8T6_Opensource_Library/Libraries/seekfree_peripheral/SEEKFREE_IPS114_SPI.c:235
		ips114_writedata_16bit(y2+52);
    2600:	fe845783          	lhu	a5,-24(s0)
    2604:	03478793          	addi	a5,a5,52
    2608:	07c2                	slli	a5,a5,0x10
    260a:	83c1                	srli	a5,a5,0x10
    260c:	853e                	mv	a0,a5
    260e:	31d1                	jal	22d2 <ips114_writedata_16bit>
E:/桌面/19th智能车/单片机培训、考核/CH32V103_Library-master/Seekfree_CH32V103R8T6_Opensource_Library/Libraries/seekfree_peripheral/SEEKFREE_IPS114_SPI.c:236
		ips114_writeIndex(0x2c);//储存器写
    2610:	02c00513          	li	a0,44
    2614:	3929                	jal	222e <ips114_writeIndex>
E:/桌面/19th智能车/单片机培训、考核/CH32V103_Library-master/Seekfree_CH32V103R8T6_Opensource_Library/Libraries/seekfree_peripheral/SEEKFREE_IPS114_SPI.c:238
	}
}
    2616:	0001                	nop
    2618:	40f2                	lw	ra,28(sp)
    261a:	4462                	lw	s0,24(sp)
    261c:	6105                	addi	sp,sp,32
    261e:	8082                	ret

00002620 <ips114_clear>:
ips114_clear():
E:/桌面/19th智能车/单片机培训、考核/CH32V103_Library-master/Seekfree_CH32V103R8T6_Opensource_Library/Libraries/seekfree_peripheral/SEEKFREE_IPS114_SPI.c:248
//  @return     void
//  @since      v1.0
//  Sample usage:               ips114_clear(YELLOW);// 全屏设置为黄色
//-------------------------------------------------------------------------------------------------------------------
void ips114_clear(uint16 color)
{
    2620:	7179                	addi	sp,sp,-48
    2622:	d606                	sw	ra,44(sp)
    2624:	d422                	sw	s0,40(sp)
    2626:	1800                	addi	s0,sp,48
    2628:	87aa                	mv	a5,a0
    262a:	fcf41f23          	sh	a5,-34(s0)
E:/桌面/19th智能车/单片机培训、考核/CH32V103_Library-master/Seekfree_CH32V103R8T6_Opensource_Library/Libraries/seekfree_peripheral/SEEKFREE_IPS114_SPI.c:250
    uint16 i,j;
	ips114_set_region(0,0,IPS114_X_MAX-1,IPS114_Y_MAX-1);
    262e:	08600693          	li	a3,134
    2632:	0ef00613          	li	a2,239
    2636:	4581                	li	a1,0
    2638:	4501                	li	a0,0
    263a:	37a5                	jal	25a2 <ips114_set_region>
E:/桌面/19th智能车/单片机培训、考核/CH32V103_Library-master/Seekfree_CH32V103R8T6_Opensource_Library/Libraries/seekfree_peripheral/SEEKFREE_IPS114_SPI.c:251
    for(i=0;i<IPS114_X_MAX;i++)
    263c:	fe041723          	sh	zero,-18(s0)
    2640:	a805                	j	2670 <ips114_clear+0x50>
E:/桌面/19th智能车/单片机培训、考核/CH32V103_Library-master/Seekfree_CH32V103R8T6_Opensource_Library/Libraries/seekfree_peripheral/SEEKFREE_IPS114_SPI.c:253
    {
        for (j=0;j<IPS114_Y_MAX;j++)
    2642:	fe041623          	sh	zero,-20(s0)
    2646:	a811                	j	265a <ips114_clear+0x3a>
E:/桌面/19th智能车/单片机培训、考核/CH32V103_Library-master/Seekfree_CH32V103R8T6_Opensource_Library/Libraries/seekfree_peripheral/SEEKFREE_IPS114_SPI.c:255 (discriminator 3)
	   	{
        	ips114_writedata_16bit(color);	 			 
    2648:	fde45783          	lhu	a5,-34(s0)
    264c:	853e                	mv	a0,a5
    264e:	3151                	jal	22d2 <ips114_writedata_16bit>
E:/桌面/19th智能车/单片机培训、考核/CH32V103_Library-master/Seekfree_CH32V103R8T6_Opensource_Library/Libraries/seekfree_peripheral/SEEKFREE_IPS114_SPI.c:253 (discriminator 3)
        for (j=0;j<IPS114_Y_MAX;j++)
    2650:	fec45783          	lhu	a5,-20(s0)
    2654:	0785                	addi	a5,a5,1
    2656:	fef41623          	sh	a5,-20(s0)
E:/桌面/19th智能车/单片机培训、考核/CH32V103_Library-master/Seekfree_CH32V103R8T6_Opensource_Library/Libraries/seekfree_peripheral/SEEKFREE_IPS114_SPI.c:253 (discriminator 1)
    265a:	fec45703          	lhu	a4,-20(s0)
    265e:	08600793          	li	a5,134
    2662:	fee7f3e3          	bgeu	a5,a4,2648 <ips114_clear+0x28>
E:/桌面/19th智能车/单片机培训、考核/CH32V103_Library-master/Seekfree_CH32V103R8T6_Opensource_Library/Libraries/seekfree_peripheral/SEEKFREE_IPS114_SPI.c:251 (discriminator 2)
    for(i=0;i<IPS114_X_MAX;i++)
    2666:	fee45783          	lhu	a5,-18(s0)
    266a:	0785                	addi	a5,a5,1
    266c:	fef41723          	sh	a5,-18(s0)
E:/桌面/19th智能车/单片机培训、考核/CH32V103_Library-master/Seekfree_CH32V103R8T6_Opensource_Library/Libraries/seekfree_peripheral/SEEKFREE_IPS114_SPI.c:251 (discriminator 1)
    2670:	fee45703          	lhu	a4,-18(s0)
    2674:	0ef00793          	li	a5,239
    2678:	fce7f5e3          	bgeu	a5,a4,2642 <ips114_clear+0x22>
E:/桌面/19th智能车/单片机培训、考核/CH32V103_Library-master/Seekfree_CH32V103R8T6_Opensource_Library/Libraries/seekfree_peripheral/SEEKFREE_IPS114_SPI.c:258
	    }
    }
}
    267c:	0001                	nop
    267e:	50b2                	lw	ra,44(sp)
    2680:	5422                	lw	s0,40(sp)
    2682:	6145                	addi	sp,sp,48
    2684:	8082                	ret

00002686 <ips114_showchar>:
ips114_showchar():
E:/桌面/19th智能车/单片机培训、考核/CH32V103_Library-master/Seekfree_CH32V103R8T6_Opensource_Library/Libraries/seekfree_peripheral/SEEKFREE_IPS114_SPI.c:287
//  @return     void
//  @since      v1.0
//  Sample usage:               ips114_showchar(0,0,'x');//坐标0,0写一个字符x
//-------------------------------------------------------------------------------------------------------------------
void ips114_showchar(uint16 x,uint16 y,const int8 dat)
{
    2686:	7179                	addi	sp,sp,-48
    2688:	d606                	sw	ra,44(sp)
    268a:	d422                	sw	s0,40(sp)
    268c:	1800                	addi	s0,sp,48
    268e:	87aa                	mv	a5,a0
    2690:	86ae                	mv	a3,a1
    2692:	8732                	mv	a4,a2
    2694:	fcf41f23          	sh	a5,-34(s0)
    2698:	87b6                	mv	a5,a3
    269a:	fcf41e23          	sh	a5,-36(s0)
    269e:	87ba                	mv	a5,a4
    26a0:	fcf40da3          	sb	a5,-37(s0)
E:/桌面/19th智能车/单片机培训、考核/CH32V103_Library-master/Seekfree_CH32V103R8T6_Opensource_Library/Libraries/seekfree_peripheral/SEEKFREE_IPS114_SPI.c:291
	uint8 i,j;
	uint8 temp;
    
	for(i=0; i<16; i++)
    26a4:	fe0407a3          	sb	zero,-17(s0)
    26a8:	a075                	j	2754 <ips114_showchar+0xce>
E:/桌面/19th智能车/单片机培训、考核/CH32V103_Library-master/Seekfree_CH32V103R8T6_Opensource_Library/Libraries/seekfree_peripheral/SEEKFREE_IPS114_SPI.c:293
	{
		ips114_set_region(x,y+i,x+7,y+i);
    26aa:	fef44783          	lbu	a5,-17(s0)
    26ae:	01079713          	slli	a4,a5,0x10
    26b2:	8341                	srli	a4,a4,0x10
    26b4:	fdc45783          	lhu	a5,-36(s0)
    26b8:	97ba                	add	a5,a5,a4
    26ba:	01079593          	slli	a1,a5,0x10
    26be:	81c1                	srli	a1,a1,0x10
    26c0:	fde45783          	lhu	a5,-34(s0)
    26c4:	079d                	addi	a5,a5,7
    26c6:	01079613          	slli	a2,a5,0x10
    26ca:	8241                	srli	a2,a2,0x10
    26cc:	fef44783          	lbu	a5,-17(s0)
    26d0:	01079713          	slli	a4,a5,0x10
    26d4:	8341                	srli	a4,a4,0x10
    26d6:	fdc45783          	lhu	a5,-36(s0)
    26da:	97ba                	add	a5,a5,a4
    26dc:	01079713          	slli	a4,a5,0x10
    26e0:	8341                	srli	a4,a4,0x10
    26e2:	fde45783          	lhu	a5,-34(s0)
    26e6:	86ba                	mv	a3,a4
    26e8:	853e                	mv	a0,a5
    26ea:	3d65                	jal	25a2 <ips114_set_region>
E:/桌面/19th智能车/单片机培训、考核/CH32V103_Library-master/Seekfree_CH32V103R8T6_Opensource_Library/Libraries/seekfree_peripheral/SEEKFREE_IPS114_SPI.c:294
		temp = tft_ascii[dat-32][i];//减32因为是取模是从空格开始取得 空格在ascii中序号是32
    26ec:	fdb40783          	lb	a5,-37(s0)
    26f0:	fe078693          	addi	a3,a5,-32
    26f4:	fef44783          	lbu	a5,-17(s0)
    26f8:	671d                	lui	a4,0x7
    26fa:	0692                	slli	a3,a3,0x4
    26fc:	47c70713          	addi	a4,a4,1148 # 747c <tft_ascii>
    2700:	9736                	add	a4,a4,a3
    2702:	97ba                	add	a5,a5,a4
    2704:	0007c783          	lbu	a5,0(a5)
    2708:	fef406a3          	sb	a5,-19(s0)
E:/桌面/19th智能车/单片机培训、考核/CH32V103_Library-master/Seekfree_CH32V103R8T6_Opensource_Library/Libraries/seekfree_peripheral/SEEKFREE_IPS114_SPI.c:295
		for(j=0; j<8; j++)
    270c:	fe040723          	sb	zero,-18(s0)
    2710:	a805                	j	2740 <ips114_showchar+0xba>
E:/桌面/19th智能车/单片机培训、考核/CH32V103_Library-master/Seekfree_CH32V103R8T6_Opensource_Library/Libraries/seekfree_peripheral/SEEKFREE_IPS114_SPI.c:297
		{
			if(temp&0x01)	
    2712:	fed44783          	lbu	a5,-19(s0)
    2716:	8b85                	andi	a5,a5,1
    2718:	c791                	beqz	a5,2724 <ips114_showchar+0x9e>
E:/桌面/19th智能车/单片机培训、考核/CH32V103_Library-master/Seekfree_CH32V103R8T6_Opensource_Library/Libraries/seekfree_peripheral/SEEKFREE_IPS114_SPI.c:299
            {
                ips114_writedata_16bit(IPS114_PENCOLOR);
    271a:	67c1                	lui	a5,0x10
    271c:	80078513          	addi	a0,a5,-2048 # f800 <_data_lma+0x7b00>
    2720:	3e4d                	jal	22d2 <ips114_writedata_16bit>
    2722:	a029                	j	272c <ips114_showchar+0xa6>
E:/桌面/19th智能车/单片机培训、考核/CH32V103_Library-master/Seekfree_CH32V103R8T6_Opensource_Library/Libraries/seekfree_peripheral/SEEKFREE_IPS114_SPI.c:301
            }
			else			ips114_writedata_16bit(IPS114_BGCOLOR);
    2724:	67c1                	lui	a5,0x10
    2726:	fff78513          	addi	a0,a5,-1 # ffff <_data_lma+0x82ff>
    272a:	3665                	jal	22d2 <ips114_writedata_16bit>
E:/桌面/19th智能车/单片机培训、考核/CH32V103_Library-master/Seekfree_CH32V103R8T6_Opensource_Library/Libraries/seekfree_peripheral/SEEKFREE_IPS114_SPI.c:302 (discriminator 2)
			temp>>=1;
    272c:	fed44783          	lbu	a5,-19(s0)
    2730:	8385                	srli	a5,a5,0x1
    2732:	fef406a3          	sb	a5,-19(s0)
E:/桌面/19th智能车/单片机培训、考核/CH32V103_Library-master/Seekfree_CH32V103R8T6_Opensource_Library/Libraries/seekfree_peripheral/SEEKFREE_IPS114_SPI.c:295 (discriminator 2)
		for(j=0; j<8; j++)
    2736:	fee44783          	lbu	a5,-18(s0)
    273a:	0785                	addi	a5,a5,1
    273c:	fef40723          	sb	a5,-18(s0)
E:/桌面/19th智能车/单片机培训、考核/CH32V103_Library-master/Seekfree_CH32V103R8T6_Opensource_Library/Libraries/seekfree_peripheral/SEEKFREE_IPS114_SPI.c:295 (discriminator 1)
    2740:	fee44703          	lbu	a4,-18(s0)
    2744:	479d                	li	a5,7
    2746:	fce7f6e3          	bgeu	a5,a4,2712 <ips114_showchar+0x8c>
E:/桌面/19th智能车/单片机培训、考核/CH32V103_Library-master/Seekfree_CH32V103R8T6_Opensource_Library/Libraries/seekfree_peripheral/SEEKFREE_IPS114_SPI.c:291 (discriminator 2)
	for(i=0; i<16; i++)
    274a:	fef44783          	lbu	a5,-17(s0)
    274e:	0785                	addi	a5,a5,1
    2750:	fef407a3          	sb	a5,-17(s0)
E:/桌面/19th智能车/单片机培训、考核/CH32V103_Library-master/Seekfree_CH32V103R8T6_Opensource_Library/Libraries/seekfree_peripheral/SEEKFREE_IPS114_SPI.c:291 (discriminator 1)
    2754:	fef44703          	lbu	a4,-17(s0)
    2758:	47bd                	li	a5,15
    275a:	f4e7f8e3          	bgeu	a5,a4,26aa <ips114_showchar+0x24>
E:/桌面/19th智能车/单片机培训、考核/CH32V103_Library-master/Seekfree_CH32V103R8T6_Opensource_Library/Libraries/seekfree_peripheral/SEEKFREE_IPS114_SPI.c:305
		}
	}
}
    275e:	0001                	nop
    2760:	50b2                	lw	ra,44(sp)
    2762:	5422                	lw	s0,40(sp)
    2764:	6145                	addi	sp,sp,48
    2766:	8082                	ret

00002768 <ips114_showstr>:
ips114_showstr():
E:/桌面/19th智能车/单片机培训、考核/CH32V103_Library-master/Seekfree_CH32V103R8T6_Opensource_Library/Libraries/seekfree_peripheral/SEEKFREE_IPS114_SPI.c:317
//  @return     void
//  @since      v1.0
//  Sample usage:               ips114_showstr(0,0,"seekfree");
//-------------------------------------------------------------------------------------------------------------------
void ips114_showstr(uint16 x,uint16 y,const int8 dat[])
{
    2768:	7179                	addi	sp,sp,-48
    276a:	d606                	sw	ra,44(sp)
    276c:	d422                	sw	s0,40(sp)
    276e:	1800                	addi	s0,sp,48
    2770:	87aa                	mv	a5,a0
    2772:	872e                	mv	a4,a1
    2774:	fcc42c23          	sw	a2,-40(s0)
    2778:	fcf41f23          	sh	a5,-34(s0)
    277c:	87ba                	mv	a5,a4
    277e:	fcf41e23          	sh	a5,-36(s0)
E:/桌面/19th智能车/单片机培训、考核/CH32V103_Library-master/Seekfree_CH32V103R8T6_Opensource_Library/Libraries/seekfree_peripheral/SEEKFREE_IPS114_SPI.c:320
	uint16 j;
	
	j = 0;
    2782:	fe041723          	sh	zero,-18(s0)
E:/桌面/19th智能车/单片机培训、考核/CH32V103_Library-master/Seekfree_CH32V103R8T6_Opensource_Library/Libraries/seekfree_peripheral/SEEKFREE_IPS114_SPI.c:321
	while(dat[j] != '\0')
    2786:	a091                	j	27ca <ips114_showstr+0x62>
E:/桌面/19th智能车/单片机培训、考核/CH32V103_Library-master/Seekfree_CH32V103R8T6_Opensource_Library/Libraries/seekfree_peripheral/SEEKFREE_IPS114_SPI.c:323
	{
		ips114_showchar(x+8*j,y*16,dat[j]);
    2788:	fee45783          	lhu	a5,-18(s0)
    278c:	078e                	slli	a5,a5,0x3
    278e:	01079713          	slli	a4,a5,0x10
    2792:	8341                	srli	a4,a4,0x10
    2794:	fde45783          	lhu	a5,-34(s0)
    2798:	97ba                	add	a5,a5,a4
    279a:	01079693          	slli	a3,a5,0x10
    279e:	82c1                	srli	a3,a3,0x10
    27a0:	fdc45783          	lhu	a5,-36(s0)
    27a4:	0792                	slli	a5,a5,0x4
    27a6:	01079593          	slli	a1,a5,0x10
    27aa:	81c1                	srli	a1,a1,0x10
    27ac:	fee45783          	lhu	a5,-18(s0)
    27b0:	fd842703          	lw	a4,-40(s0)
    27b4:	97ba                	add	a5,a5,a4
    27b6:	00078783          	lb	a5,0(a5)
    27ba:	863e                	mv	a2,a5
    27bc:	8536                	mv	a0,a3
    27be:	35e1                	jal	2686 <ips114_showchar>
E:/桌面/19th智能车/单片机培训、考核/CH32V103_Library-master/Seekfree_CH32V103R8T6_Opensource_Library/Libraries/seekfree_peripheral/SEEKFREE_IPS114_SPI.c:324
		j++;
    27c0:	fee45783          	lhu	a5,-18(s0)
    27c4:	0785                	addi	a5,a5,1
    27c6:	fef41723          	sh	a5,-18(s0)
E:/桌面/19th智能车/单片机培训、考核/CH32V103_Library-master/Seekfree_CH32V103R8T6_Opensource_Library/Libraries/seekfree_peripheral/SEEKFREE_IPS114_SPI.c:321
	while(dat[j] != '\0')
    27ca:	fee45783          	lhu	a5,-18(s0)
    27ce:	fd842703          	lw	a4,-40(s0)
    27d2:	97ba                	add	a5,a5,a4
    27d4:	00078783          	lb	a5,0(a5)
    27d8:	fbc5                	bnez	a5,2788 <ips114_showstr+0x20>
E:/桌面/19th智能车/单片机培训、考核/CH32V103_Library-master/Seekfree_CH32V103R8T6_Opensource_Library/Libraries/seekfree_peripheral/SEEKFREE_IPS114_SPI.c:326
	}
}
    27da:	0001                	nop
    27dc:	50b2                	lw	ra,44(sp)
    27de:	5422                	lw	s0,40(sp)
    27e0:	6145                	addi	sp,sp,48
    27e2:	8082                	ret

000027e4 <ips114_showint16>:
ips114_showint16():
E:/桌面/19th智能车/单片机培训、考核/CH32V103_Library-master/Seekfree_CH32V103R8T6_Opensource_Library/Libraries/seekfree_peripheral/SEEKFREE_IPS114_SPI.c:395
//  @return     void
//  @since      v1.0
//  Sample usage:               ips114_showint16(0,0,x);//x为int16类型
//-------------------------------------------------------------------------------------------------------------------
void ips114_showint16(uint16 x,uint16 y,int16 dat)
{
    27e4:	7179                	addi	sp,sp,-48
    27e6:	d606                	sw	ra,44(sp)
    27e8:	d422                	sw	s0,40(sp)
    27ea:	1800                	addi	s0,sp,48
    27ec:	87aa                	mv	a5,a0
    27ee:	86ae                	mv	a3,a1
    27f0:	8732                	mv	a4,a2
    27f2:	fcf41f23          	sh	a5,-34(s0)
    27f6:	87b6                	mv	a5,a3
    27f8:	fcf41e23          	sh	a5,-36(s0)
    27fc:	87ba                	mv	a5,a4
    27fe:	fcf41d23          	sh	a5,-38(s0)
E:/桌面/19th智能车/单片机培训、考核/CH32V103_Library-master/Seekfree_CH32V103R8T6_Opensource_Library/Libraries/seekfree_peripheral/SEEKFREE_IPS114_SPI.c:398
	uint8 a[5];
	uint8 i;
	if(dat<0)
    2802:	fda41783          	lh	a5,-38(s0)
    2806:	0207d863          	bgez	a5,2836 <ips114_showint16+0x52>
E:/桌面/19th智能车/单片机培训、考核/CH32V103_Library-master/Seekfree_CH32V103R8T6_Opensource_Library/Libraries/seekfree_peripheral/SEEKFREE_IPS114_SPI.c:400
	{
		ips114_showchar(x,y*16,'-');
    280a:	fdc45783          	lhu	a5,-36(s0)
    280e:	0792                	slli	a5,a5,0x4
    2810:	01079713          	slli	a4,a5,0x10
    2814:	8341                	srli	a4,a4,0x10
    2816:	fde45783          	lhu	a5,-34(s0)
    281a:	02d00613          	li	a2,45
    281e:	85ba                	mv	a1,a4
    2820:	853e                	mv	a0,a5
    2822:	3595                	jal	2686 <ips114_showchar>
E:/桌面/19th智能车/单片机培训、考核/CH32V103_Library-master/Seekfree_CH32V103R8T6_Opensource_Library/Libraries/seekfree_peripheral/SEEKFREE_IPS114_SPI.c:401
		dat = -dat;
    2824:	fda45783          	lhu	a5,-38(s0)
    2828:	40f007b3          	neg	a5,a5
    282c:	07c2                	slli	a5,a5,0x10
    282e:	83c1                	srli	a5,a5,0x10
    2830:	fcf41d23          	sh	a5,-38(s0)
    2834:	a831                	j	2850 <ips114_showint16+0x6c>
E:/桌面/19th智能车/单片机培训、考核/CH32V103_Library-master/Seekfree_CH32V103R8T6_Opensource_Library/Libraries/seekfree_peripheral/SEEKFREE_IPS114_SPI.c:403
	}
	else	ips114_showchar(x,y*16,' ');
    2836:	fdc45783          	lhu	a5,-36(s0)
    283a:	0792                	slli	a5,a5,0x4
    283c:	01079713          	slli	a4,a5,0x10
    2840:	8341                	srli	a4,a4,0x10
    2842:	fde45783          	lhu	a5,-34(s0)
    2846:	02000613          	li	a2,32
    284a:	85ba                	mv	a1,a4
    284c:	853e                	mv	a0,a5
    284e:	3d25                	jal	2686 <ips114_showchar>
E:/桌面/19th智能车/单片机培训、考核/CH32V103_Library-master/Seekfree_CH32V103R8T6_Opensource_Library/Libraries/seekfree_peripheral/SEEKFREE_IPS114_SPI.c:405

	a[0] = dat/10000;
    2850:	fda41703          	lh	a4,-38(s0)
    2854:	6789                	lui	a5,0x2
    2856:	71078793          	addi	a5,a5,1808 # 2710 <ips114_showchar+0x8a>
    285a:	02f747b3          	div	a5,a4,a5
    285e:	07c2                	slli	a5,a5,0x10
    2860:	87c1                	srai	a5,a5,0x10
    2862:	0ff7f793          	andi	a5,a5,255
    2866:	fef40423          	sb	a5,-24(s0)
E:/桌面/19th智能车/单片机培训、考核/CH32V103_Library-master/Seekfree_CH32V103R8T6_Opensource_Library/Libraries/seekfree_peripheral/SEEKFREE_IPS114_SPI.c:406
	a[1] = dat/1000%10;
    286a:	fda41703          	lh	a4,-38(s0)
    286e:	3e800793          	li	a5,1000
    2872:	02f747b3          	div	a5,a4,a5
    2876:	01079713          	slli	a4,a5,0x10
    287a:	8741                	srai	a4,a4,0x10
    287c:	47a9                	li	a5,10
    287e:	02f767b3          	rem	a5,a4,a5
    2882:	07c2                	slli	a5,a5,0x10
    2884:	87c1                	srai	a5,a5,0x10
    2886:	0ff7f793          	andi	a5,a5,255
    288a:	fef404a3          	sb	a5,-23(s0)
E:/桌面/19th智能车/单片机培训、考核/CH32V103_Library-master/Seekfree_CH32V103R8T6_Opensource_Library/Libraries/seekfree_peripheral/SEEKFREE_IPS114_SPI.c:407
	a[2] = dat/100%10;
    288e:	fda41703          	lh	a4,-38(s0)
    2892:	06400793          	li	a5,100
    2896:	02f747b3          	div	a5,a4,a5
    289a:	01079713          	slli	a4,a5,0x10
    289e:	8741                	srai	a4,a4,0x10
    28a0:	47a9                	li	a5,10
    28a2:	02f767b3          	rem	a5,a4,a5
    28a6:	07c2                	slli	a5,a5,0x10
    28a8:	87c1                	srai	a5,a5,0x10
    28aa:	0ff7f793          	andi	a5,a5,255
    28ae:	fef40523          	sb	a5,-22(s0)
E:/桌面/19th智能车/单片机培训、考核/CH32V103_Library-master/Seekfree_CH32V103R8T6_Opensource_Library/Libraries/seekfree_peripheral/SEEKFREE_IPS114_SPI.c:408
	a[3] = dat/10%10;
    28b2:	fda41703          	lh	a4,-38(s0)
    28b6:	47a9                	li	a5,10
    28b8:	02f747b3          	div	a5,a4,a5
    28bc:	01079713          	slli	a4,a5,0x10
    28c0:	8741                	srai	a4,a4,0x10
    28c2:	47a9                	li	a5,10
    28c4:	02f767b3          	rem	a5,a4,a5
    28c8:	07c2                	slli	a5,a5,0x10
    28ca:	87c1                	srai	a5,a5,0x10
    28cc:	0ff7f793          	andi	a5,a5,255
    28d0:	fef405a3          	sb	a5,-21(s0)
E:/桌面/19th智能车/单片机培训、考核/CH32V103_Library-master/Seekfree_CH32V103R8T6_Opensource_Library/Libraries/seekfree_peripheral/SEEKFREE_IPS114_SPI.c:409
	a[4] = dat%10;
    28d4:	fda41703          	lh	a4,-38(s0)
    28d8:	47a9                	li	a5,10
    28da:	02f767b3          	rem	a5,a4,a5
    28de:	07c2                	slli	a5,a5,0x10
    28e0:	87c1                	srai	a5,a5,0x10
    28e2:	0ff7f793          	andi	a5,a5,255
    28e6:	fef40623          	sb	a5,-20(s0)
E:/桌面/19th智能车/单片机培训、考核/CH32V103_Library-master/Seekfree_CH32V103R8T6_Opensource_Library/Libraries/seekfree_peripheral/SEEKFREE_IPS114_SPI.c:411
	
	i = 0;
    28ea:	fe0407a3          	sb	zero,-17(s0)
E:/桌面/19th智能车/单片机培训、考核/CH32V103_Library-master/Seekfree_CH32V103R8T6_Opensource_Library/Libraries/seekfree_peripheral/SEEKFREE_IPS114_SPI.c:412
	while(i<5)
    28ee:	a8a1                	j	2946 <ips114_showint16+0x162>
E:/桌面/19th智能车/单片机培训、考核/CH32V103_Library-master/Seekfree_CH32V103R8T6_Opensource_Library/Libraries/seekfree_peripheral/SEEKFREE_IPS114_SPI.c:414
	{
		ips114_showchar(x+(8*(i+1)),y*16,'0' + a[i]);
    28f0:	fef44783          	lbu	a5,-17(s0)
    28f4:	0785                	addi	a5,a5,1
    28f6:	07c2                	slli	a5,a5,0x10
    28f8:	83c1                	srli	a5,a5,0x10
    28fa:	078e                	slli	a5,a5,0x3
    28fc:	01079713          	slli	a4,a5,0x10
    2900:	8341                	srli	a4,a4,0x10
    2902:	fde45783          	lhu	a5,-34(s0)
    2906:	97ba                	add	a5,a5,a4
    2908:	01079713          	slli	a4,a5,0x10
    290c:	8341                	srli	a4,a4,0x10
    290e:	fdc45783          	lhu	a5,-36(s0)
    2912:	0792                	slli	a5,a5,0x4
    2914:	01079693          	slli	a3,a5,0x10
    2918:	82c1                	srli	a3,a3,0x10
    291a:	fef44783          	lbu	a5,-17(s0)
    291e:	ff040613          	addi	a2,s0,-16
    2922:	97b2                	add	a5,a5,a2
    2924:	ff87c783          	lbu	a5,-8(a5)
    2928:	03078793          	addi	a5,a5,48
    292c:	0ff7f793          	andi	a5,a5,255
    2930:	07e2                	slli	a5,a5,0x18
    2932:	87e1                	srai	a5,a5,0x18
    2934:	863e                	mv	a2,a5
    2936:	85b6                	mv	a1,a3
    2938:	853a                	mv	a0,a4
    293a:	33b1                	jal	2686 <ips114_showchar>
E:/桌面/19th智能车/单片机培训、考核/CH32V103_Library-master/Seekfree_CH32V103R8T6_Opensource_Library/Libraries/seekfree_peripheral/SEEKFREE_IPS114_SPI.c:415
		i++;
    293c:	fef44783          	lbu	a5,-17(s0)
    2940:	0785                	addi	a5,a5,1
    2942:	fef407a3          	sb	a5,-17(s0)
E:/桌面/19th智能车/单片机培训、考核/CH32V103_Library-master/Seekfree_CH32V103R8T6_Opensource_Library/Libraries/seekfree_peripheral/SEEKFREE_IPS114_SPI.c:412
	while(i<5)
    2946:	fef44703          	lbu	a4,-17(s0)
    294a:	4791                	li	a5,4
    294c:	fae7f2e3          	bgeu	a5,a4,28f0 <ips114_showint16+0x10c>
E:/桌面/19th智能车/单片机培训、考核/CH32V103_Library-master/Seekfree_CH32V103R8T6_Opensource_Library/Libraries/seekfree_peripheral/SEEKFREE_IPS114_SPI.c:417
	}
}
    2950:	0001                	nop
    2952:	50b2                	lw	ra,44(sp)
    2954:	5422                	lw	s0,40(sp)
    2956:	6145                	addi	sp,sp,48
    2958:	8082                	ret

0000295a <mt9v03x_uart_callback>:
mt9v03x_uart_callback():
E:/桌面/19th智能车/单片机培训、考核/CH32V103_Library-master/Seekfree_CH32V103R8T6_Opensource_Library/Libraries/seekfree_peripheral/SEEKFREE_MT9V03X.c:90
//  @since      v1.0
//  Sample usage:
//  @note       
//-------------------------------------------------------------------------------------------------------------------
void mt9v03x_uart_callback(void)
{
    295a:	1141                	addi	sp,sp,-16
    295c:	c622                	sw	s0,12(sp)
    295e:	0800                	addi	s0,sp,16
E:/桌面/19th智能车/单片机培训、考核/CH32V103_Library-master/Seekfree_CH32V103R8T6_Opensource_Library/Libraries/seekfree_peripheral/SEEKFREE_MT9V03X.c:91
    receive[receive_num] = ((USART_TypeDef*)UARTN[MT9V03X_COF_UART])->DATAR & 0x01FF;
    2960:	67a1                	lui	a5,0x8
    2962:	a9c78793          	addi	a5,a5,-1380 # 7a9c <UARTN>
    2966:	43dc                	lw	a5,4(a5)
    2968:	0047d783          	lhu	a5,4(a5)
    296c:	01079713          	slli	a4,a5,0x10
    2970:	8341                	srli	a4,a4,0x10
    2972:	8331c783          	lbu	a5,-1997(gp) # 200000a3 <receive_num>
    2976:	86be                	mv	a3,a5
    2978:	0ff77713          	andi	a4,a4,255
    297c:	83018793          	addi	a5,gp,-2000 # 200000a0 <receive>
    2980:	97b6                	add	a5,a5,a3
    2982:	00e78023          	sb	a4,0(a5)
E:/桌面/19th智能车/单片机培训、考核/CH32V103_Library-master/Seekfree_CH32V103R8T6_Opensource_Library/Libraries/seekfree_peripheral/SEEKFREE_MT9V03X.c:92
    receive_num++;
    2986:	8331c783          	lbu	a5,-1997(gp) # 200000a3 <receive_num>
    298a:	0785                	addi	a5,a5,1
    298c:	0ff7f713          	andi	a4,a5,255
    2990:	82e189a3          	sb	a4,-1997(gp) # 200000a3 <receive_num>
E:/桌面/19th智能车/单片机培训、考核/CH32V103_Library-master/Seekfree_CH32V103R8T6_Opensource_Library/Libraries/seekfree_peripheral/SEEKFREE_MT9V03X.c:94

    if(1==receive_num && 0XA5!=receive[0])  receive_num = 0;
    2994:	8331c703          	lbu	a4,-1997(gp) # 200000a3 <receive_num>
    2998:	4785                	li	a5,1
    299a:	00f71a63          	bne	a4,a5,29ae <mt9v03x_uart_callback+0x54>
E:/桌面/19th智能车/单片机培训、考核/CH32V103_Library-master/Seekfree_CH32V103R8T6_Opensource_Library/Libraries/seekfree_peripheral/SEEKFREE_MT9V03X.c:94 (discriminator 1)
    299e:	8301c703          	lbu	a4,-2000(gp) # 200000a0 <receive>
    29a2:	0a500793          	li	a5,165
    29a6:	00f70463          	beq	a4,a5,29ae <mt9v03x_uart_callback+0x54>
E:/桌面/19th智能车/单片机培训、考核/CH32V103_Library-master/Seekfree_CH32V103R8T6_Opensource_Library/Libraries/seekfree_peripheral/SEEKFREE_MT9V03X.c:94 (discriminator 2)
    29aa:	820189a3          	sb	zero,-1997(gp) # 200000a3 <receive_num>
E:/桌面/19th智能车/单片机培训、考核/CH32V103_Library-master/Seekfree_CH32V103R8T6_Opensource_Library/Libraries/seekfree_peripheral/SEEKFREE_MT9V03X.c:95
    if(3 == receive_num)
    29ae:	8331c703          	lbu	a4,-1997(gp) # 200000a3 <receive_num>
    29b2:	478d                	li	a5,3
    29b4:	00f71763          	bne	a4,a5,29c2 <mt9v03x_uart_callback+0x68>
E:/桌面/19th智能车/单片机培训、考核/CH32V103_Library-master/Seekfree_CH32V103R8T6_Opensource_Library/Libraries/seekfree_peripheral/SEEKFREE_MT9V03X.c:97
    {
        receive_num = 0;
    29b8:	820189a3          	sb	zero,-1997(gp) # 200000a3 <receive_num>
E:/桌面/19th智能车/单片机培训、考核/CH32V103_Library-master/Seekfree_CH32V103R8T6_Opensource_Library/Libraries/seekfree_peripheral/SEEKFREE_MT9V03X.c:98
        uart_receive_flag = 1;
    29bc:	4705                	li	a4,1
    29be:	82e18a23          	sb	a4,-1996(gp) # 200000a4 <uart_receive_flag>
E:/桌面/19th智能车/单片机培训、考核/CH32V103_Library-master/Seekfree_CH32V103R8T6_Opensource_Library/Libraries/seekfree_peripheral/SEEKFREE_MT9V03X.c:101
    }
    
}
    29c2:	0001                	nop
    29c4:	4432                	lw	s0,12(sp)
    29c6:	0141                	addi	sp,sp,16
    29c8:	8082                	ret

000029ca <mt9v03x_vsync>:
mt9v03x_vsync():
E:/桌面/19th智能车/单片机培训、考核/CH32V103_Library-master/Seekfree_CH32V103R8T6_Opensource_Library/Libraries/seekfree_peripheral/SEEKFREE_MT9V03X.c:376
//  @return     void
//  @since      v1.0
//  Sample usage:               在isr.c里面先创建对应的中断函数，然后调用该函数(之后别忘记清除中断标志位)
//-------------------------------------------------------------------------------------------------------------------
void mt9v03x_vsync(void)
{
    29ca:	1141                	addi	sp,sp,-16
    29cc:	c622                	sw	s0,12(sp)
    29ce:	0800                	addi	s0,sp,16
E:/桌面/19th智能车/单片机培训、考核/CH32V103_Library-master/Seekfree_CH32V103R8T6_Opensource_Library/Libraries/seekfree_peripheral/SEEKFREE_MT9V03X.c:379
//    if(mt9v03x_finish_flag == 0)                             //使用完成后,再采集
//    {
        MT9V03X_DMA_CH->CNTR = MT9V03X_H*MT9V03X_W;             //设置当前DMA传输的剩余数量，向下递减，该寄存器只能在DMA不工作时更改。
    29d0:	400207b7          	lui	a5,0x40020
    29d4:	04478793          	addi	a5,a5,68 # 40020044 <_eusrstack+0x2001b044>
    29d8:	6709                	lui	a4,0x2
    29da:	4b870713          	addi	a4,a4,1208 # 24b8 <ips114_init+0x176>
    29de:	c3d8                	sw	a4,4(a5)
E:/桌面/19th智能车/单片机培训、考核/CH32V103_Library-master/Seekfree_CH32V103R8T6_Opensource_Library/Libraries/seekfree_peripheral/SEEKFREE_MT9V03X.c:380
        MT9V03X_DMA_CH->CFGR |= DMA_CFGR1_EN;
    29e0:	400207b7          	lui	a5,0x40020
    29e4:	04478793          	addi	a5,a5,68 # 40020044 <_eusrstack+0x2001b044>
    29e8:	4398                	lw	a4,0(a5)
    29ea:	400207b7          	lui	a5,0x40020
    29ee:	04478793          	addi	a5,a5,68 # 40020044 <_eusrstack+0x2001b044>
    29f2:	00176713          	ori	a4,a4,1
    29f6:	c398                	sw	a4,0(a5)
E:/桌面/19th智能车/单片机培训、考核/CH32V103_Library-master/Seekfree_CH32V103R8T6_Opensource_Library/Libraries/seekfree_peripheral/SEEKFREE_MT9V03X.c:381
        MT9V03X_TIM->DMAINTENR |= ((uint16_t)0x4000);
    29f8:	400137b7          	lui	a5,0x40013
    29fc:	c0078793          	addi	a5,a5,-1024 # 40012c00 <_eusrstack+0x2000dc00>
    2a00:	00c7d783          	lhu	a5,12(a5)
    2a04:	01079693          	slli	a3,a5,0x10
    2a08:	82c1                	srli	a3,a3,0x10
    2a0a:	400137b7          	lui	a5,0x40013
    2a0e:	c0078793          	addi	a5,a5,-1024 # 40012c00 <_eusrstack+0x2000dc00>
    2a12:	6711                	lui	a4,0x4
    2a14:	8f55                	or	a4,a4,a3
    2a16:	0742                	slli	a4,a4,0x10
    2a18:	8341                	srli	a4,a4,0x10
    2a1a:	00e79623          	sh	a4,12(a5)
E:/桌面/19th智能车/单片机培训、考核/CH32V103_Library-master/Seekfree_CH32V103R8T6_Opensource_Library/Libraries/seekfree_peripheral/SEEKFREE_MT9V03X.c:383
//    }
}
    2a1e:	0001                	nop
    2a20:	4432                	lw	s0,12(sp)
    2a22:	0141                	addi	sp,sp,16
    2a24:	8082                	ret

00002a26 <mt9v03x_dma>:
mt9v03x_dma():
E:/桌面/19th智能车/单片机培训、考核/CH32V103_Library-master/Seekfree_CH32V103R8T6_Opensource_Library/Libraries/seekfree_peripheral/SEEKFREE_MT9V03X.c:393
//  @return     void
//  @since      v1.0
//  Sample usage:
//-------------------------------------------------------------------------------------------------------------------
void mt9v03x_dma(void)
{
    2a26:	1141                	addi	sp,sp,-16
    2a28:	c622                	sw	s0,12(sp)
    2a2a:	0800                	addi	s0,sp,16
E:/桌面/19th智能车/单片机培训、考核/CH32V103_Library-master/Seekfree_CH32V103R8T6_Opensource_Library/Libraries/seekfree_peripheral/SEEKFREE_MT9V03X.c:394
    mt9v03x_finish_flag = 1;//一副图像从采集开始到采集结束耗时3.8MS左右(50FPS、188*120分辨率)
    2a2c:	4705                	li	a4,1
    2a2e:	82e18aa3          	sb	a4,-1995(gp) # 200000a5 <mt9v03x_finish_flag>
E:/桌面/19th智能车/单片机培训、考核/CH32V103_Library-master/Seekfree_CH32V103R8T6_Opensource_Library/Libraries/seekfree_peripheral/SEEKFREE_MT9V03X.c:395
    MT9V03X_DMA_CH->CFGR &= (uint16)(~DMA_CFGR1_EN);   //关闭DMA1
    2a32:	400207b7          	lui	a5,0x40020
    2a36:	04478793          	addi	a5,a5,68 # 40020044 <_eusrstack+0x2001b044>
    2a3a:	4394                	lw	a3,0(a5)
    2a3c:	400207b7          	lui	a5,0x40020
    2a40:	04478793          	addi	a5,a5,68 # 40020044 <_eusrstack+0x2001b044>
    2a44:	6741                	lui	a4,0x10
    2a46:	1779                	addi	a4,a4,-2
    2a48:	8f75                	and	a4,a4,a3
    2a4a:	c398                	sw	a4,0(a5)
E:/桌面/19th智能车/单片机培训、考核/CH32V103_Library-master/Seekfree_CH32V103R8T6_Opensource_Library/Libraries/seekfree_peripheral/SEEKFREE_MT9V03X.c:396
    MT9V03X_TIM->DMAINTENR &= ~((uint16_t)0x4000);          //失能TIM触发DMA
    2a4c:	400137b7          	lui	a5,0x40013
    2a50:	c0078793          	addi	a5,a5,-1024 # 40012c00 <_eusrstack+0x2000dc00>
    2a54:	00c7d783          	lhu	a5,12(a5)
    2a58:	01079693          	slli	a3,a5,0x10
    2a5c:	82c1                	srli	a3,a3,0x10
    2a5e:	400137b7          	lui	a5,0x40013
    2a62:	c0078793          	addi	a5,a5,-1024 # 40012c00 <_eusrstack+0x2000dc00>
    2a66:	7771                	lui	a4,0xffffc
    2a68:	177d                	addi	a4,a4,-1
    2a6a:	8f75                	and	a4,a4,a3
    2a6c:	0742                	slli	a4,a4,0x10
    2a6e:	8341                	srli	a4,a4,0x10
    2a70:	00e79623          	sh	a4,12(a5)
E:/桌面/19th智能车/单片机培训、考核/CH32V103_Library-master/Seekfree_CH32V103R8T6_Opensource_Library/Libraries/seekfree_peripheral/SEEKFREE_MT9V03X.c:397
}
    2a74:	0001                	nop
    2a76:	4432                	lw	s0,12(sp)
    2a78:	0141                	addi	sp,sp,16
    2a7a:	8082                	ret

00002a7c <ov7725_cof_uart_interrupt>:
ov7725_cof_uart_interrupt():
E:/桌面/19th智能车/单片机培训、考核/CH32V103_Library-master/Seekfree_CH32V103R8T6_Opensource_Library/Libraries/seekfree_peripheral/SEEKFREE_UART_7725.c:81
//  Sample usage:
//  @note       该函数在ISR文件 串口3中断程序被调用
//-------------------------------------------------------------------------------------------------------------------

void ov7725_cof_uart_interrupt(void)
{
    2a7c:	1141                	addi	sp,sp,-16
    2a7e:	c622                	sw	s0,12(sp)
    2a80:	0800                	addi	s0,sp,16
E:/桌面/19th智能车/单片机培训、考核/CH32V103_Library-master/Seekfree_CH32V103R8T6_Opensource_Library/Libraries/seekfree_peripheral/SEEKFREE_UART_7725.c:83

    ov7725_uart_receive[ov7725_uart_receive_num] = ((USART_TypeDef*)UARTN[OV7725_UART_COF_UART])->DATAR & 0x01FF;
    2a82:	67a1                	lui	a5,0x8
    2a84:	a9c78793          	addi	a5,a5,-1380 # 7a9c <UARTN>
    2a88:	43dc                	lw	a5,4(a5)
    2a8a:	0047d783          	lhu	a5,4(a5)
    2a8e:	01079713          	slli	a4,a5,0x10
    2a92:	8341                	srli	a4,a4,0x10
    2a94:	83b1c783          	lbu	a5,-1989(gp) # 200000ab <ov7725_uart_receive_num>
    2a98:	86be                	mv	a3,a5
    2a9a:	0ff77713          	andi	a4,a4,255
    2a9e:	83818793          	addi	a5,gp,-1992 # 200000a8 <ov7725_uart_receive>
    2aa2:	97b6                	add	a5,a5,a3
    2aa4:	00e78023          	sb	a4,0(a5)
E:/桌面/19th智能车/单片机培训、考核/CH32V103_Library-master/Seekfree_CH32V103R8T6_Opensource_Library/Libraries/seekfree_peripheral/SEEKFREE_UART_7725.c:84
    ov7725_uart_receive_num++;
    2aa8:	83b1c783          	lbu	a5,-1989(gp) # 200000ab <ov7725_uart_receive_num>
    2aac:	0785                	addi	a5,a5,1
    2aae:	0ff7f713          	andi	a4,a5,255
    2ab2:	82e18da3          	sb	a4,-1989(gp) # 200000ab <ov7725_uart_receive_num>
E:/桌面/19th智能车/单片机培训、考核/CH32V103_Library-master/Seekfree_CH32V103R8T6_Opensource_Library/Libraries/seekfree_peripheral/SEEKFREE_UART_7725.c:86

    if(1==ov7725_uart_receive_num && 0XA5!=ov7725_uart_receive[0])  ov7725_uart_receive_num = 0;
    2ab6:	83b1c703          	lbu	a4,-1989(gp) # 200000ab <ov7725_uart_receive_num>
    2aba:	4785                	li	a5,1
    2abc:	00f71a63          	bne	a4,a5,2ad0 <ov7725_cof_uart_interrupt+0x54>
E:/桌面/19th智能车/单片机培训、考核/CH32V103_Library-master/Seekfree_CH32V103R8T6_Opensource_Library/Libraries/seekfree_peripheral/SEEKFREE_UART_7725.c:86 (discriminator 1)
    2ac0:	8381c703          	lbu	a4,-1992(gp) # 200000a8 <ov7725_uart_receive>
    2ac4:	0a500793          	li	a5,165
    2ac8:	00f70463          	beq	a4,a5,2ad0 <ov7725_cof_uart_interrupt+0x54>
E:/桌面/19th智能车/单片机培训、考核/CH32V103_Library-master/Seekfree_CH32V103R8T6_Opensource_Library/Libraries/seekfree_peripheral/SEEKFREE_UART_7725.c:86 (discriminator 2)
    2acc:	82018da3          	sb	zero,-1989(gp) # 200000ab <ov7725_uart_receive_num>
E:/桌面/19th智能车/单片机培训、考核/CH32V103_Library-master/Seekfree_CH32V103R8T6_Opensource_Library/Libraries/seekfree_peripheral/SEEKFREE_UART_7725.c:87
    if(3 == ov7725_uart_receive_num)
    2ad0:	83b1c703          	lbu	a4,-1989(gp) # 200000ab <ov7725_uart_receive_num>
    2ad4:	478d                	li	a5,3
    2ad6:	00f71763          	bne	a4,a5,2ae4 <ov7725_cof_uart_interrupt+0x68>
E:/桌面/19th智能车/单片机培训、考核/CH32V103_Library-master/Seekfree_CH32V103R8T6_Opensource_Library/Libraries/seekfree_peripheral/SEEKFREE_UART_7725.c:89
    {
        ov7725_uart_receive_num = 0;
    2ada:	82018da3          	sb	zero,-1989(gp) # 200000ab <ov7725_uart_receive_num>
E:/桌面/19th智能车/单片机培训、考核/CH32V103_Library-master/Seekfree_CH32V103R8T6_Opensource_Library/Libraries/seekfree_peripheral/SEEKFREE_UART_7725.c:90
        ov7725_uart_receive_flag = 1;
    2ade:	4705                	li	a4,1
    2ae0:	82e18e23          	sb	a4,-1988(gp) # 200000ac <ov7725_uart_receive_flag>
E:/桌面/19th智能车/单片机培训、考核/CH32V103_Library-master/Seekfree_CH32V103R8T6_Opensource_Library/Libraries/seekfree_peripheral/SEEKFREE_UART_7725.c:92
    }
}
    2ae4:	0001                	nop
    2ae6:	4432                	lw	s0,12(sp)
    2ae8:	0141                	addi	sp,sp,16
    2aea:	8082                	ret

00002aec <ov7725_uart_vsync>:
ov7725_uart_vsync():
E:/桌面/19th智能车/单片机培训、考核/CH32V103_Library-master/Seekfree_CH32V103R8T6_Opensource_Library/Libraries/seekfree_peripheral/SEEKFREE_UART_7725.c:104
//  @since      v1.0
//  Sample usage:                   在isr.c里面先创建对应的中断函数，然后调用该函数(之后别忘记清除中断标志位)
//-------------------------------------------------------------------------------------------------------------------

void ov7725_uart_vsync(void)
{
    2aec:	1141                	addi	sp,sp,-16
    2aee:	c622                	sw	s0,12(sp)
    2af0:	0800                	addi	s0,sp,16
E:/桌面/19th智能车/单片机培训、考核/CH32V103_Library-master/Seekfree_CH32V103R8T6_Opensource_Library/Libraries/seekfree_peripheral/SEEKFREE_UART_7725.c:107
//    if(ov7725_uart_finish_flag == 0)                             //使用完成后,再采集
//    {
        OV7725_UART_DMA_CH->CNTR = OV7725_UART_SIZE;             //设置当前DMA传输的剩余数量，向下递减，该寄存器只能在DMA不工作时更改。
    2af2:	400207b7          	lui	a5,0x40020
    2af6:	04478793          	addi	a5,a5,68 # 40020044 <_eusrstack+0x2001b044>
    2afa:	6705                	lui	a4,0x1
    2afc:	96070713          	addi	a4,a4,-1696 # 960 <GPIO_Init+0xa0>
    2b00:	c3d8                	sw	a4,4(a5)
E:/桌面/19th智能车/单片机培训、考核/CH32V103_Library-master/Seekfree_CH32V103R8T6_Opensource_Library/Libraries/seekfree_peripheral/SEEKFREE_UART_7725.c:108
        OV7725_UART_DMA_CH->CFGR |= DMA_CFGR1_EN;                //开启DMA1
    2b02:	400207b7          	lui	a5,0x40020
    2b06:	04478793          	addi	a5,a5,68 # 40020044 <_eusrstack+0x2001b044>
    2b0a:	4398                	lw	a4,0(a5)
    2b0c:	400207b7          	lui	a5,0x40020
    2b10:	04478793          	addi	a5,a5,68 # 40020044 <_eusrstack+0x2001b044>
    2b14:	00176713          	ori	a4,a4,1
    2b18:	c398                	sw	a4,0(a5)
E:/桌面/19th智能车/单片机培训、考核/CH32V103_Library-master/Seekfree_CH32V103R8T6_Opensource_Library/Libraries/seekfree_peripheral/SEEKFREE_UART_7725.c:109
        OV7725_UART_TIM->DMAINTENR |= TIM_DMA_Trigger;           //使能TIM触发DMA
    2b1a:	400137b7          	lui	a5,0x40013
    2b1e:	c0078793          	addi	a5,a5,-1024 # 40012c00 <_eusrstack+0x2000dc00>
    2b22:	00c7d783          	lhu	a5,12(a5)
    2b26:	01079693          	slli	a3,a5,0x10
    2b2a:	82c1                	srli	a3,a3,0x10
    2b2c:	400137b7          	lui	a5,0x40013
    2b30:	c0078793          	addi	a5,a5,-1024 # 40012c00 <_eusrstack+0x2000dc00>
    2b34:	6711                	lui	a4,0x4
    2b36:	8f55                	or	a4,a4,a3
    2b38:	0742                	slli	a4,a4,0x10
    2b3a:	8341                	srli	a4,a4,0x10
    2b3c:	00e79623          	sh	a4,12(a5)
E:/桌面/19th智能车/单片机培训、考核/CH32V103_Library-master/Seekfree_CH32V103R8T6_Opensource_Library/Libraries/seekfree_peripheral/SEEKFREE_UART_7725.c:111
//    }
}
    2b40:	0001                	nop
    2b42:	4432                	lw	s0,12(sp)
    2b44:	0141                	addi	sp,sp,16
    2b46:	8082                	ret

00002b48 <ov7725_uart_dma>:
ov7725_uart_dma():
E:/桌面/19th智能车/单片机培训、考核/CH32V103_Library-master/Seekfree_CH32V103R8T6_Opensource_Library/Libraries/seekfree_peripheral/SEEKFREE_UART_7725.c:122
//  @return     void
//  @since      v1.0
//  Sample usage:                   在isr.c里面先创建对应的中断函数，然后调用该函数(之后别忘记清除中断标志位)
//-------------------------------------------------------------------------------------------------------------------
void ov7725_uart_dma(void)
{
    2b48:	1141                	addi	sp,sp,-16
    2b4a:	c622                	sw	s0,12(sp)
    2b4c:	0800                	addi	s0,sp,16
E:/桌面/19th智能车/单片机培训、考核/CH32V103_Library-master/Seekfree_CH32V103R8T6_Opensource_Library/Libraries/seekfree_peripheral/SEEKFREE_UART_7725.c:123
    ov7725_uart_finish_flag = 1;                             //摄像头数据采集置1
    2b4e:	4705                	li	a4,1
    2b50:	82e18ea3          	sb	a4,-1987(gp) # 200000ad <ov7725_uart_finish_flag>
E:/桌面/19th智能车/单片机培训、考核/CH32V103_Library-master/Seekfree_CH32V103R8T6_Opensource_Library/Libraries/seekfree_peripheral/SEEKFREE_UART_7725.c:124
    OV7725_UART_DMA_CH->CFGR &= (uint16)(~DMA_CFGR1_EN);     //关闭DMA1
    2b54:	400207b7          	lui	a5,0x40020
    2b58:	04478793          	addi	a5,a5,68 # 40020044 <_eusrstack+0x2001b044>
    2b5c:	4394                	lw	a3,0(a5)
    2b5e:	400207b7          	lui	a5,0x40020
    2b62:	04478793          	addi	a5,a5,68 # 40020044 <_eusrstack+0x2001b044>
    2b66:	6741                	lui	a4,0x10
    2b68:	1779                	addi	a4,a4,-2
    2b6a:	8f75                	and	a4,a4,a3
    2b6c:	c398                	sw	a4,0(a5)
E:/桌面/19th智能车/单片机培训、考核/CH32V103_Library-master/Seekfree_CH32V103R8T6_Opensource_Library/Libraries/seekfree_peripheral/SEEKFREE_UART_7725.c:125
    OV7725_UART_TIM->DMAINTENR &= ~TIM_DMA_Trigger;          //失能TIM触发DMA
    2b6e:	400137b7          	lui	a5,0x40013
    2b72:	c0078793          	addi	a5,a5,-1024 # 40012c00 <_eusrstack+0x2000dc00>
    2b76:	00c7d783          	lhu	a5,12(a5)
    2b7a:	01079693          	slli	a3,a5,0x10
    2b7e:	82c1                	srli	a3,a3,0x10
    2b80:	400137b7          	lui	a5,0x40013
    2b84:	c0078793          	addi	a5,a5,-1024 # 40012c00 <_eusrstack+0x2000dc00>
    2b88:	7771                	lui	a4,0xffffc
    2b8a:	177d                	addi	a4,a4,-1
    2b8c:	8f75                	and	a4,a4,a3
    2b8e:	0742                	slli	a4,a4,0x10
    2b90:	8341                	srli	a4,a4,0x10
    2b92:	00e79623          	sh	a4,12(a5)
E:/桌面/19th智能车/单片机培训、考核/CH32V103_Library-master/Seekfree_CH32V103R8T6_Opensource_Library/Libraries/seekfree_peripheral/SEEKFREE_UART_7725.c:126
}
    2b96:	0001                	nop
    2b98:	4432                	lw	s0,12(sp)
    2b9a:	0141                	addi	sp,sp,16
    2b9c:	8082                	ret

00002b9e <wireless_uart_callback>:
wireless_uart_callback():
E:/桌面/19th智能车/单片机培训、考核/CH32V103_Library-master/Seekfree_CH32V103R8T6_Opensource_Library/Libraries/seekfree_peripheral/SEEKFREE_WIRELESS.c:48
//  @since      v1.0
//  Sample usage:
//  @note       该函数在ISR文件 串口1中断程序被调用
//-------------------------------------------------------------------------------------------------------------------
void wireless_uart_callback(void)
{
    2b9e:	1141                	addi	sp,sp,-16
    2ba0:	c622                	sw	s0,12(sp)
    2ba2:	0800                	addi	s0,sp,16
E:/桌面/19th智能车/单片机培训、考核/CH32V103_Library-master/Seekfree_CH32V103R8T6_Opensource_Library/Libraries/seekfree_peripheral/SEEKFREE_WIRELESS.c:50
    //接到一个字节后单片机将会进入此处，通过在此处读取wireless_rx_buffer可以取走数据
    wireless_rx_buffer = ((USART_TypeDef*)UARTN[WIRELESS_UART])->DATAR & 0x01FF;
    2ba4:	67a1                	lui	a5,0x8
    2ba6:	a9c78793          	addi	a5,a5,-1380 # 7a9c <UARTN>
    2baa:	479c                	lw	a5,8(a5)
    2bac:	0047d783          	lhu	a5,4(a5)
    2bb0:	07c2                	slli	a5,a5,0x10
    2bb2:	83c1                	srli	a5,a5,0x10
    2bb4:	0ff7f713          	andi	a4,a5,255
    2bb8:	82e18f23          	sb	a4,-1986(gp) # 200000ae <wireless_rx_buffer>
E:/桌面/19th智能车/单片机培训、考核/CH32V103_Library-master/Seekfree_CH32V103R8T6_Opensource_Library/Libraries/seekfree_peripheral/SEEKFREE_WIRELESS.c:51
}
    2bbc:	0001                	nop
    2bbe:	4432                	lw	s0,12(sp)
    2bc0:	0141                	addi	sp,sp,16
    2bc2:	8082                	ret

00002bc4 <board_init>:
board_init():
E:/桌面/19th智能车/单片机培训、考核/CH32V103_Library-master/Seekfree_CH32V103R8T6_Opensource_Library/Libraries/seekfree_libraries/board.c:9
#include "ch32v10x_gpio.h"



void board_init(void)
{
    2bc4:	1141                	addi	sp,sp,-16
    2bc6:	c606                	sw	ra,12(sp)
    2bc8:	c422                	sw	s0,8(sp)
    2bca:	0800                	addi	s0,sp,16
E:/桌面/19th智能车/单片机培训、考核/CH32V103_Library-master/Seekfree_CH32V103R8T6_Opensource_Library/Libraries/seekfree_libraries/board.c:10
    GPIO_DeInit(GPIOA);
    2bcc:	400117b7          	lui	a5,0x40011
    2bd0:	80078513          	addi	a0,a5,-2048 # 40010800 <_eusrstack+0x2000b800>
    2bd4:	bfffd0ef          	jal	ra,7d2 <GPIO_DeInit>
E:/桌面/19th智能车/单片机培训、考核/CH32V103_Library-master/Seekfree_CH32V103R8T6_Opensource_Library/Libraries/seekfree_libraries/board.c:11
    GPIO_DeInit(GPIOB);
    2bd8:	400117b7          	lui	a5,0x40011
    2bdc:	c0078513          	addi	a0,a5,-1024 # 40010c00 <_eusrstack+0x2000bc00>
    2be0:	bf3fd0ef          	jal	ra,7d2 <GPIO_DeInit>
E:/桌面/19th智能车/单片机培训、考核/CH32V103_Library-master/Seekfree_CH32V103R8T6_Opensource_Library/Libraries/seekfree_libraries/board.c:12
    GPIO_DeInit(GPIOC);
    2be4:	40011537          	lui	a0,0x40011
    2be8:	bebfd0ef          	jal	ra,7d2 <GPIO_DeInit>
E:/桌面/19th智能车/单片机培训、考核/CH32V103_Library-master/Seekfree_CH32V103R8T6_Opensource_Library/Libraries/seekfree_libraries/board.c:13
    GPIO_DeInit(GPIOD);
    2bec:	400117b7          	lui	a5,0x40011
    2bf0:	40078513          	addi	a0,a5,1024 # 40011400 <_eusrstack+0x2000c400>
    2bf4:	bdffd0ef          	jal	ra,7d2 <GPIO_DeInit>
E:/桌面/19th智能车/单片机培训、考核/CH32V103_Library-master/Seekfree_CH32V103R8T6_Opensource_Library/Libraries/seekfree_libraries/board.c:16

    //获取系统主频
    sys_clk = 8000000 * (((RCC->CFGR0 >> 18)&0x0F) + 2);
    2bf8:	400217b7          	lui	a5,0x40021
    2bfc:	43dc                	lw	a5,4(a5)
    2bfe:	83c9                	srli	a5,a5,0x12
    2c00:	00f7f713          	andi	a4,a5,15
    2c04:	007a17b7          	lui	a5,0x7a1
    2c08:	20078793          	addi	a5,a5,512 # 7a1200 <_data_lma+0x799500>
    2c0c:	02f70733          	mul	a4,a4,a5
    2c10:	00f427b7          	lui	a5,0xf42
    2c14:	40078793          	addi	a5,a5,1024 # f42400 <_data_lma+0xf3a700>
    2c18:	973e                	add	a4,a4,a5
    2c1a:	84e1a423          	sw	a4,-1976(gp) # 200000b8 <sys_clk>
E:/桌面/19th智能车/单片机培训、考核/CH32V103_Library-master/Seekfree_CH32V103R8T6_Opensource_Library/Libraries/seekfree_libraries/board.c:18
    //初始化DEBUG串口
    uart_init(DEBUG_UART, DEBUG_UART_BAUD, DEBUG_UART_TX_PIN, DEBUG_UART_RX_PIN);
    2c1e:	4685                	li	a3,1
    2c20:	4601                	li	a2,0
    2c22:	67f1                	lui	a5,0x1c
    2c24:	20078593          	addi	a1,a5,512 # 1c200 <_data_lma+0x14500>
    2c28:	4501                	li	a0,0
    2c2a:	7f8010ef          	jal	ra,4422 <uart_init>
E:/桌面/19th智能车/单片机培训、考核/CH32V103_Library-master/Seekfree_CH32V103R8T6_Opensource_Library/Libraries/seekfree_libraries/board.c:19
}
    2c2e:	0001                	nop
    2c30:	40b2                	lw	ra,12(sp)
    2c32:	4422                	lw	s0,8(sp)
    2c34:	0141                	addi	sp,sp,16
    2c36:	8082                	ret

00002c38 <_write>:
_write():
E:/桌面/19th智能车/单片机培训、考核/CH32V103_Library-master/Seekfree_CH32V103R8T6_Opensource_Library/Libraries/seekfree_libraries/board.c:30
//  @since      v1.0
//  Sample usage:              重定向printf到DEBUG串口上
//-------------------------------------------------------------------------------------------------------------------
#if (1 == PRINTF_ENABLE)
int _write(int fd, char *buf, int size)
{
    2c38:	7179                	addi	sp,sp,-48
    2c3a:	d606                	sw	ra,44(sp)
    2c3c:	d422                	sw	s0,40(sp)
    2c3e:	1800                	addi	s0,sp,48
    2c40:	fca42e23          	sw	a0,-36(s0)
    2c44:	fcb42c23          	sw	a1,-40(s0)
    2c48:	fcc42a23          	sw	a2,-44(s0)
E:/桌面/19th智能车/单片机培训、考核/CH32V103_Library-master/Seekfree_CH32V103R8T6_Opensource_Library/Libraries/seekfree_libraries/board.c:32
    int i;
    for(i=0; i<size; i++)
    2c4c:	fe042623          	sw	zero,-20(s0)
    2c50:	a099                	j	2c96 <_write+0x5e>
E:/桌面/19th智能车/单片机培训、考核/CH32V103_Library-master/Seekfree_CH32V103R8T6_Opensource_Library/Libraries/seekfree_libraries/board.c:34
    {
        while (USART_GetFlagStatus((USART_TypeDef*)UARTN[DEBUG_UART], USART_FLAG_TC) == RESET);
    2c52:	0001                	nop
E:/桌面/19th智能车/单片机培训、考核/CH32V103_Library-master/Seekfree_CH32V103R8T6_Opensource_Library/Libraries/seekfree_libraries/board.c:34 (discriminator 1)
    2c54:	67a1                	lui	a5,0x8
    2c56:	a9c7a783          	lw	a5,-1380(a5) # 7a9c <UARTN>
    2c5a:	04000593          	li	a1,64
    2c5e:	853e                	mv	a0,a5
    2c60:	b58ff0ef          	jal	ra,1fb8 <USART_GetFlagStatus>
    2c64:	87aa                	mv	a5,a0
    2c66:	d7fd                	beqz	a5,2c54 <_write+0x1c>
E:/桌面/19th智能车/单片机培训、考核/CH32V103_Library-master/Seekfree_CH32V103R8T6_Opensource_Library/Libraries/seekfree_libraries/board.c:35 (discriminator 2)
        USART_SendData((USART_TypeDef*)UARTN[DEBUG_UART], *buf++);
    2c68:	67a1                	lui	a5,0x8
    2c6a:	a9c7a783          	lw	a5,-1380(a5) # 7a9c <UARTN>
    2c6e:	86be                	mv	a3,a5
    2c70:	fd842783          	lw	a5,-40(s0)
    2c74:	00178713          	addi	a4,a5,1
    2c78:	fce42c23          	sw	a4,-40(s0)
    2c7c:	00078783          	lb	a5,0(a5)
    2c80:	07c2                	slli	a5,a5,0x10
    2c82:	83c1                	srli	a5,a5,0x10
    2c84:	85be                	mv	a1,a5
    2c86:	8536                	mv	a0,a3
    2c88:	b02ff0ef          	jal	ra,1f8a <USART_SendData>
E:/桌面/19th智能车/单片机培训、考核/CH32V103_Library-master/Seekfree_CH32V103R8T6_Opensource_Library/Libraries/seekfree_libraries/board.c:32 (discriminator 2)
    for(i=0; i<size; i++)
    2c8c:	fec42783          	lw	a5,-20(s0)
    2c90:	0785                	addi	a5,a5,1
    2c92:	fef42623          	sw	a5,-20(s0)
E:/桌面/19th智能车/单片机培训、考核/CH32V103_Library-master/Seekfree_CH32V103R8T6_Opensource_Library/Libraries/seekfree_libraries/board.c:32 (discriminator 1)
    2c96:	fec42703          	lw	a4,-20(s0)
    2c9a:	fd442783          	lw	a5,-44(s0)
    2c9e:	faf74ae3          	blt	a4,a5,2c52 <_write+0x1a>
E:/桌面/19th智能车/单片机培训、考核/CH32V103_Library-master/Seekfree_CH32V103R8T6_Opensource_Library/Libraries/seekfree_libraries/board.c:37
    }
    return size;
    2ca2:	fd442783          	lw	a5,-44(s0)
E:/桌面/19th智能车/单片机培训、考核/CH32V103_Library-master/Seekfree_CH32V103R8T6_Opensource_Library/Libraries/seekfree_libraries/board.c:38
}
    2ca6:	853e                	mv	a0,a5
    2ca8:	50b2                	lw	ra,44(sp)
    2caa:	5422                	lw	s0,40(sp)
    2cac:	6145                	addi	sp,sp,48
    2cae:	8082                	ret

00002cb0 <SetSysClock>:
SetSysClock():
E:/桌面/19th智能车/单片机培训、考核/CH32V103_Library-master/Seekfree_CH32V103R8T6_Opensource_Library/Libraries/seekfree_libraries/clock_config.c:11
* Description    : Sets System clock frequency to 72MHz and configure HCLK, PCLK2 and PCLK1 prescalers.
* Input          : None
* Return         : None
*******************************************************************************************/
static void SetSysClock(void)
{
    2cb0:	1101                	addi	sp,sp,-32
    2cb2:	ce22                	sw	s0,28(sp)
    2cb4:	1000                	addi	s0,sp,32
E:/桌面/19th智能车/单片机培训、考核/CH32V103_Library-master/Seekfree_CH32V103R8T6_Opensource_Library/Libraries/seekfree_libraries/clock_config.c:12
    __IO uint32_t StartUpCounter = 0, HSEStatus = 0;
    2cb6:	fe042623          	sw	zero,-20(s0)
    2cba:	fe042423          	sw	zero,-24(s0)
E:/桌面/19th智能车/单片机培训、考核/CH32V103_Library-master/Seekfree_CH32V103R8T6_Opensource_Library/Libraries/seekfree_libraries/clock_config.c:14

    RCC->CTLR |= ((uint32_t)RCC_HSEON);
    2cbe:	400217b7          	lui	a5,0x40021
    2cc2:	4394                	lw	a3,0(a5)
    2cc4:	400217b7          	lui	a5,0x40021
    2cc8:	6741                	lui	a4,0x10
    2cca:	8f55                	or	a4,a4,a3
    2ccc:	c398                	sw	a4,0(a5)
E:/桌面/19th智能车/单片机培训、考核/CH32V103_Library-master/Seekfree_CH32V103R8T6_Opensource_Library/Libraries/seekfree_libraries/clock_config.c:19 (discriminator 2)

    /* Wait till HSE is ready and if Time out is reached exit */
    do
    {
        HSEStatus = RCC->CTLR & RCC_HSERDY;
    2cce:	400217b7          	lui	a5,0x40021
    2cd2:	4398                	lw	a4,0(a5)
    2cd4:	000207b7          	lui	a5,0x20
    2cd8:	8ff9                	and	a5,a5,a4
    2cda:	fef42423          	sw	a5,-24(s0)
E:/桌面/19th智能车/单片机培训、考核/CH32V103_Library-master/Seekfree_CH32V103R8T6_Opensource_Library/Libraries/seekfree_libraries/clock_config.c:20 (discriminator 2)
        StartUpCounter++;
    2cde:	fec42783          	lw	a5,-20(s0)
    2ce2:	0785                	addi	a5,a5,1
    2ce4:	fef42623          	sw	a5,-20(s0)
E:/桌面/19th智能车/单片机培训、考核/CH32V103_Library-master/Seekfree_CH32V103R8T6_Opensource_Library/Libraries/seekfree_libraries/clock_config.c:21 (discriminator 2)
    } while((HSEStatus == 0) && (StartUpCounter != HSE_STARTUP_TIMEOUT));
    2ce8:	fe842783          	lw	a5,-24(s0)
    2cec:	e799                	bnez	a5,2cfa <SetSysClock+0x4a>
E:/桌面/19th智能车/单片机培训、考核/CH32V103_Library-master/Seekfree_CH32V103R8T6_Opensource_Library/Libraries/seekfree_libraries/clock_config.c:21 (discriminator 1)
    2cee:	fec42703          	lw	a4,-20(s0)
    2cf2:	50000793          	li	a5,1280
    2cf6:	fcf71ce3          	bne	a4,a5,2cce <SetSysClock+0x1e>
E:/桌面/19th智能车/单片机培训、考核/CH32V103_Library-master/Seekfree_CH32V103R8T6_Opensource_Library/Libraries/seekfree_libraries/clock_config.c:23

    if ((RCC->CTLR & RCC_HSERDY) != RESET)
    2cfa:	400217b7          	lui	a5,0x40021
    2cfe:	4398                	lw	a4,0(a5)
    2d00:	000207b7          	lui	a5,0x20
    2d04:	8ff9                	and	a5,a5,a4
    2d06:	c789                	beqz	a5,2d10 <SetSysClock+0x60>
E:/桌面/19th智能车/单片机培训、考核/CH32V103_Library-master/Seekfree_CH32V103R8T6_Opensource_Library/Libraries/seekfree_libraries/clock_config.c:25
    {
        HSEStatus = (uint32_t)0x01;
    2d08:	4785                	li	a5,1
    2d0a:	fef42423          	sw	a5,-24(s0)
    2d0e:	a019                	j	2d14 <SetSysClock+0x64>
E:/桌面/19th智能车/单片机培训、考核/CH32V103_Library-master/Seekfree_CH32V103R8T6_Opensource_Library/Libraries/seekfree_libraries/clock_config.c:29
    }
    else
    {
        HSEStatus = (uint32_t)0x00;
    2d10:	fe042423          	sw	zero,-24(s0)
E:/桌面/19th智能车/单片机培训、考核/CH32V103_Library-master/Seekfree_CH32V103R8T6_Opensource_Library/Libraries/seekfree_libraries/clock_config.c:32
    }

    if (HSEStatus == (uint32_t)0x01)
    2d14:	fe842703          	lw	a4,-24(s0)
    2d18:	4785                	li	a5,1
    2d1a:	0cf71763          	bne	a4,a5,2de8 <SetSysClock+0x138>
E:/桌面/19th智能车/单片机培训、考核/CH32V103_Library-master/Seekfree_CH32V103R8T6_Opensource_Library/Libraries/seekfree_libraries/clock_config.c:35
    {
        /* Enable Prefetch Buffer */
        FLASH->ACTLR |= FLASH_ACTLR_PRFTBE;
    2d1e:	400227b7          	lui	a5,0x40022
    2d22:	4398                	lw	a4,0(a5)
    2d24:	400227b7          	lui	a5,0x40022
    2d28:	01076713          	ori	a4,a4,16
    2d2c:	c398                	sw	a4,0(a5)
E:/桌面/19th智能车/单片机培训、考核/CH32V103_Library-master/Seekfree_CH32V103R8T6_Opensource_Library/Libraries/seekfree_libraries/clock_config.c:38

        /* Flash 2 wait state */
        FLASH->ACTLR &= (uint32_t)((uint32_t)~FLASH_ACTLR_LATENCY);
    2d2e:	400227b7          	lui	a5,0x40022
    2d32:	4398                	lw	a4,0(a5)
    2d34:	400227b7          	lui	a5,0x40022
    2d38:	9b71                	andi	a4,a4,-4
    2d3a:	c398                	sw	a4,0(a5)
E:/桌面/19th智能车/单片机培训、考核/CH32V103_Library-master/Seekfree_CH32V103R8T6_Opensource_Library/Libraries/seekfree_libraries/clock_config.c:39
        FLASH->ACTLR |= (uint32_t)FLASH_ACTLR_LATENCY_2;
    2d3c:	400227b7          	lui	a5,0x40022
    2d40:	4398                	lw	a4,0(a5)
    2d42:	400227b7          	lui	a5,0x40022
    2d46:	00276713          	ori	a4,a4,2
    2d4a:	c398                	sw	a4,0(a5)
E:/桌面/19th智能车/单片机培训、考核/CH32V103_Library-master/Seekfree_CH32V103R8T6_Opensource_Library/Libraries/seekfree_libraries/clock_config.c:42

        /* HCLK = SYSCLK */
        RCC->CFGR0 |= (uint32_t)RCC_HPRE_DIV1;
    2d4c:	40021737          	lui	a4,0x40021
    2d50:	400217b7          	lui	a5,0x40021
    2d54:	4358                	lw	a4,4(a4)
    2d56:	c3d8                	sw	a4,4(a5)
E:/桌面/19th智能车/单片机培训、考核/CH32V103_Library-master/Seekfree_CH32V103R8T6_Opensource_Library/Libraries/seekfree_libraries/clock_config.c:44
        /* PCLK2 = HCLK */
        RCC->CFGR0 |= (uint32_t)RCC_PPRE2_DIV1;
    2d58:	40021737          	lui	a4,0x40021
    2d5c:	400217b7          	lui	a5,0x40021
    2d60:	4358                	lw	a4,4(a4)
    2d62:	c3d8                	sw	a4,4(a5)
E:/桌面/19th智能车/单片机培训、考核/CH32V103_Library-master/Seekfree_CH32V103R8T6_Opensource_Library/Libraries/seekfree_libraries/clock_config.c:46
        /* PCLK1 = HCLK */
        RCC->CFGR0 |= (uint32_t)RCC_PPRE1_DIV1;
    2d64:	40021737          	lui	a4,0x40021
    2d68:	400217b7          	lui	a5,0x40021
    2d6c:	4358                	lw	a4,4(a4)
    2d6e:	c3d8                	sw	a4,4(a5)
E:/桌面/19th智能车/单片机培训、考核/CH32V103_Library-master/Seekfree_CH32V103R8T6_Opensource_Library/Libraries/seekfree_libraries/clock_config.c:49


        RCC->CFGR0 &= (uint32_t)((uint32_t)~(RCC_PLLSRC | RCC_PLLXTPRE |
    2d70:	400217b7          	lui	a5,0x40021
    2d74:	43d4                	lw	a3,4(a5)
    2d76:	400217b7          	lui	a5,0x40021
    2d7a:	ffc10737          	lui	a4,0xffc10
    2d7e:	177d                	addi	a4,a4,-1
    2d80:	8f75                	and	a4,a4,a3
    2d82:	c3d8                	sw	a4,4(a5)
E:/桌面/19th智能车/单片机培训、考核/CH32V103_Library-master/Seekfree_CH32V103R8T6_Opensource_Library/Libraries/seekfree_libraries/clock_config.c:52
                                            RCC_PLLMULL));
        /*  PLL configuration: PLLCLK = HSE * ?  */
        RCC->CFGR0 |= (uint32_t)(RCC_PLLSRC_HSE | RCC_PLLMULL11);
    2d84:	400217b7          	lui	a5,0x40021
    2d88:	43d4                	lw	a3,4(a5)
    2d8a:	400217b7          	lui	a5,0x40021
    2d8e:	00250737          	lui	a4,0x250
    2d92:	8f55                	or	a4,a4,a3
    2d94:	c3d8                	sw	a4,4(a5)
E:/桌面/19th智能车/单片机培训、考核/CH32V103_Library-master/Seekfree_CH32V103R8T6_Opensource_Library/Libraries/seekfree_libraries/clock_config.c:54
        /* Enable PLL */
        RCC->CTLR |= RCC_PLLON;
    2d96:	400217b7          	lui	a5,0x40021
    2d9a:	4394                	lw	a3,0(a5)
    2d9c:	400217b7          	lui	a5,0x40021
    2da0:	01000737          	lui	a4,0x1000
    2da4:	8f55                	or	a4,a4,a3
    2da6:	c398                	sw	a4,0(a5)
E:/桌面/19th智能车/单片机培训、考核/CH32V103_Library-master/Seekfree_CH32V103R8T6_Opensource_Library/Libraries/seekfree_libraries/clock_config.c:56
        /* Wait till PLL is ready */
        while((RCC->CTLR & RCC_PLLRDY) == 0)
    2da8:	0001                	nop
E:/桌面/19th智能车/单片机培训、考核/CH32V103_Library-master/Seekfree_CH32V103R8T6_Opensource_Library/Libraries/seekfree_libraries/clock_config.c:56 (discriminator 1)
    2daa:	400217b7          	lui	a5,0x40021
    2dae:	4398                	lw	a4,0(a5)
    2db0:	020007b7          	lui	a5,0x2000
    2db4:	8ff9                	and	a5,a5,a4
    2db6:	dbf5                	beqz	a5,2daa <SetSysClock+0xfa>
E:/桌面/19th智能车/单片机培训、考核/CH32V103_Library-master/Seekfree_CH32V103R8T6_Opensource_Library/Libraries/seekfree_libraries/clock_config.c:60
        {
        }
        /* Select PLL as system clock source */
        RCC->CFGR0 &= (uint32_t)((uint32_t)~(RCC_SW));
    2db8:	400217b7          	lui	a5,0x40021
    2dbc:	43d8                	lw	a4,4(a5)
    2dbe:	400217b7          	lui	a5,0x40021
    2dc2:	9b71                	andi	a4,a4,-4
    2dc4:	c3d8                	sw	a4,4(a5)
E:/桌面/19th智能车/单片机培训、考核/CH32V103_Library-master/Seekfree_CH32V103R8T6_Opensource_Library/Libraries/seekfree_libraries/clock_config.c:61
        RCC->CFGR0 |= (uint32_t)RCC_SW_PLL;
    2dc6:	400217b7          	lui	a5,0x40021
    2dca:	43d8                	lw	a4,4(a5)
    2dcc:	400217b7          	lui	a5,0x40021
    2dd0:	00276713          	ori	a4,a4,2
    2dd4:	c3d8                	sw	a4,4(a5)
E:/桌面/19th智能车/单片机培训、考核/CH32V103_Library-master/Seekfree_CH32V103R8T6_Opensource_Library/Libraries/seekfree_libraries/clock_config.c:63
        /* Wait till PLL is used as system clock source */
        while ((RCC->CFGR0 & (uint32_t)RCC_SWS) != (uint32_t)0x08)
    2dd6:	0001                	nop
E:/桌面/19th智能车/单片机培训、考核/CH32V103_Library-master/Seekfree_CH32V103R8T6_Opensource_Library/Libraries/seekfree_libraries/clock_config.c:63 (discriminator 1)
    2dd8:	400217b7          	lui	a5,0x40021
    2ddc:	43dc                	lw	a5,4(a5)
    2dde:	00c7f713          	andi	a4,a5,12
    2de2:	47a1                	li	a5,8
    2de4:	fef71ae3          	bne	a4,a5,2dd8 <SetSysClock+0x128>
E:/桌面/19th智能车/单片机培训、考核/CH32V103_Library-master/Seekfree_CH32V103R8T6_Opensource_Library/Libraries/seekfree_libraries/clock_config.c:74
        /*
         * If HSE fails to start-up, the application will have wrong clock
     * configuration. User can add here some code to deal with this error
         */
    }
}
    2de8:	0001                	nop
    2dea:	4472                	lw	s0,28(sp)
    2dec:	6105                	addi	sp,sp,32
    2dee:	8082                	ret

00002df0 <SystemInit>:
SystemInit():
E:/桌面/19th智能车/单片机培训、考核/CH32V103_Library-master/Seekfree_CH32V103R8T6_Opensource_Library/Libraries/seekfree_libraries/clock_config.c:84
*                  the PLL and update the SystemCoreClock variable.
* Input          : None
* Return         : None
*******************************************************************************************/
void SystemInit (void)
{
    2df0:	1141                	addi	sp,sp,-16
    2df2:	c606                	sw	ra,12(sp)
    2df4:	c422                	sw	s0,8(sp)
    2df6:	0800                	addi	s0,sp,16
E:/桌面/19th智能车/单片机培训、考核/CH32V103_Library-master/Seekfree_CH32V103R8T6_Opensource_Library/Libraries/seekfree_libraries/clock_config.c:85
    RCC->CTLR |= (uint32_t)0x00000001;
    2df8:	400217b7          	lui	a5,0x40021
    2dfc:	4398                	lw	a4,0(a5)
    2dfe:	400217b7          	lui	a5,0x40021
    2e02:	00176713          	ori	a4,a4,1
    2e06:	c398                	sw	a4,0(a5)
E:/桌面/19th智能车/单片机培训、考核/CH32V103_Library-master/Seekfree_CH32V103R8T6_Opensource_Library/Libraries/seekfree_libraries/clock_config.c:86
    RCC->CFGR0 &= (uint32_t)0xF8FF0000;
    2e08:	400217b7          	lui	a5,0x40021
    2e0c:	43d4                	lw	a3,4(a5)
    2e0e:	400217b7          	lui	a5,0x40021
    2e12:	f8ff0737          	lui	a4,0xf8ff0
    2e16:	8f75                	and	a4,a4,a3
    2e18:	c3d8                	sw	a4,4(a5)
E:/桌面/19th智能车/单片机培训、考核/CH32V103_Library-master/Seekfree_CH32V103R8T6_Opensource_Library/Libraries/seekfree_libraries/clock_config.c:87
    RCC->CTLR &= (uint32_t)0xFEF6FFFF;
    2e1a:	400217b7          	lui	a5,0x40021
    2e1e:	4394                	lw	a3,0(a5)
    2e20:	400217b7          	lui	a5,0x40021
    2e24:	fef70737          	lui	a4,0xfef70
    2e28:	177d                	addi	a4,a4,-1
    2e2a:	8f75                	and	a4,a4,a3
    2e2c:	c398                	sw	a4,0(a5)
E:/桌面/19th智能车/单片机培训、考核/CH32V103_Library-master/Seekfree_CH32V103R8T6_Opensource_Library/Libraries/seekfree_libraries/clock_config.c:88
    RCC->CTLR &= (uint32_t)0xFFFBFFFF;
    2e2e:	400217b7          	lui	a5,0x40021
    2e32:	4394                	lw	a3,0(a5)
    2e34:	400217b7          	lui	a5,0x40021
    2e38:	fffc0737          	lui	a4,0xfffc0
    2e3c:	177d                	addi	a4,a4,-1
    2e3e:	8f75                	and	a4,a4,a3
    2e40:	c398                	sw	a4,0(a5)
E:/桌面/19th智能车/单片机培训、考核/CH32V103_Library-master/Seekfree_CH32V103R8T6_Opensource_Library/Libraries/seekfree_libraries/clock_config.c:89
    RCC->CFGR0 &= (uint32_t)0xFF80FFFF;
    2e42:	400217b7          	lui	a5,0x40021
    2e46:	43d4                	lw	a3,4(a5)
    2e48:	400217b7          	lui	a5,0x40021
    2e4c:	ff810737          	lui	a4,0xff810
    2e50:	177d                	addi	a4,a4,-1
    2e52:	8f75                	and	a4,a4,a3
    2e54:	c3d8                	sw	a4,4(a5)
E:/桌面/19th智能车/单片机培训、考核/CH32V103_Library-master/Seekfree_CH32V103R8T6_Opensource_Library/Libraries/seekfree_libraries/clock_config.c:90
    RCC->INTR = 0x009F0000;
    2e56:	400217b7          	lui	a5,0x40021
    2e5a:	009f0737          	lui	a4,0x9f0
    2e5e:	c798                	sw	a4,8(a5)
E:/桌面/19th智能车/单片机培训、考核/CH32V103_Library-master/Seekfree_CH32V103R8T6_Opensource_Library/Libraries/seekfree_libraries/clock_config.c:91
    SetSysClock();
    2e60:	3d81                	jal	2cb0 <SetSysClock>
E:/桌面/19th智能车/单片机培训、考核/CH32V103_Library-master/Seekfree_CH32V103R8T6_Opensource_Library/Libraries/seekfree_libraries/clock_config.c:92
}
    2e62:	0001                	nop
    2e64:	40b2                	lw	ra,12(sp)
    2e66:	4422                	lw	s0,8(sp)
    2e68:	0141                	addi	sp,sp,16
    2e6a:	8082                	ret

00002e6c <adc_gpio_init>:
adc_gpio_init():
E:/桌面/19th智能车/单片机培训、考核/CH32V103_Library-master/Seekfree_CH32V103R8T6_Opensource_Library/Libraries/seekfree_libraries/zf_adc.c:35
//  @param      ch          ch通道(可选择范围由zf_adc.h内ADCCH_enum枚举值确定)
//  @return     void
//  Sample usage:           内部使用  用户无需关心
//-------------------------------------------------------------------------------------------------------------------
void adc_gpio_init(ADCCH_enum ch)
{
    2e6c:	1101                	addi	sp,sp,-32
    2e6e:	ce06                	sw	ra,28(sp)
    2e70:	cc22                	sw	s0,24(sp)
    2e72:	1000                	addi	s0,sp,32
    2e74:	fea42623          	sw	a0,-20(s0)
E:/桌面/19th智能车/单片机培训、考核/CH32V103_Library-master/Seekfree_CH32V103R8T6_Opensource_Library/Libraries/seekfree_libraries/zf_adc.c:36
    if(ADC_IN0_A0 == ch)            gpio_init(A0, GPI, 0, IN_AIN);
    2e78:	fec42783          	lw	a5,-20(s0)
    2e7c:	e799                	bnez	a5,2e8a <adc_gpio_init+0x1e>
E:/桌面/19th智能车/单片机培训、考核/CH32V103_Library-master/Seekfree_CH32V103R8T6_Opensource_Library/Libraries/seekfree_libraries/zf_adc.c:36 (discriminator 1)
    2e7e:	4681                	li	a3,0
    2e80:	4601                	li	a2,0
    2e82:	4581                	li	a1,0
    2e84:	4501                	li	a0,0
    2e86:	2455                	jal	312a <gpio_init>
E:/桌面/19th智能车/单片机培训、考核/CH32V103_Library-master/Seekfree_CH32V103R8T6_Opensource_Library/Libraries/seekfree_libraries/zf_adc.c:52 (discriminator 1)
    else if(ADC_IN11_C1 == ch)      gpio_init(C1, GPI, 0, IN_AIN);
    else if(ADC_IN12_C2 == ch)      gpio_init(C2, GPI, 0, IN_AIN);
    else if(ADC_IN13_C3 == ch)      gpio_init(C3, GPI, 0, IN_AIN);
    else if(ADC_IN14_C4 == ch)      gpio_init(C4, GPI, 0, IN_AIN);
    else if(ADC_IN15_C5 == ch)      gpio_init(C5, GPI, 0, IN_AIN);
}
    2e88:	aaa9                	j	2fe2 <adc_gpio_init+0x176>
E:/桌面/19th智能车/单片机培训、考核/CH32V103_Library-master/Seekfree_CH32V103R8T6_Opensource_Library/Libraries/seekfree_libraries/zf_adc.c:37
    else if(ADC_IN1_A1 == ch)       gpio_init(A1, GPI, 0, IN_AIN);
    2e8a:	fec42703          	lw	a4,-20(s0)
    2e8e:	4785                	li	a5,1
    2e90:	00f71863          	bne	a4,a5,2ea0 <adc_gpio_init+0x34>
E:/桌面/19th智能车/单片机培训、考核/CH32V103_Library-master/Seekfree_CH32V103R8T6_Opensource_Library/Libraries/seekfree_libraries/zf_adc.c:37 (discriminator 1)
    2e94:	4681                	li	a3,0
    2e96:	4601                	li	a2,0
    2e98:	4581                	li	a1,0
    2e9a:	4505                	li	a0,1
    2e9c:	2479                	jal	312a <gpio_init>
E:/桌面/19th智能车/单片机培训、考核/CH32V103_Library-master/Seekfree_CH32V103R8T6_Opensource_Library/Libraries/seekfree_libraries/zf_adc.c:52 (discriminator 1)
}
    2e9e:	a291                	j	2fe2 <adc_gpio_init+0x176>
E:/桌面/19th智能车/单片机培训、考核/CH32V103_Library-master/Seekfree_CH32V103R8T6_Opensource_Library/Libraries/seekfree_libraries/zf_adc.c:38
    else if(ADC_IN2_A2 == ch)       gpio_init(A2, GPI, 0, IN_AIN);
    2ea0:	fec42703          	lw	a4,-20(s0)
    2ea4:	4789                	li	a5,2
    2ea6:	00f71863          	bne	a4,a5,2eb6 <adc_gpio_init+0x4a>
E:/桌面/19th智能车/单片机培训、考核/CH32V103_Library-master/Seekfree_CH32V103R8T6_Opensource_Library/Libraries/seekfree_libraries/zf_adc.c:38 (discriminator 1)
    2eaa:	4681                	li	a3,0
    2eac:	4601                	li	a2,0
    2eae:	4581                	li	a1,0
    2eb0:	4509                	li	a0,2
    2eb2:	2ca5                	jal	312a <gpio_init>
E:/桌面/19th智能车/单片机培训、考核/CH32V103_Library-master/Seekfree_CH32V103R8T6_Opensource_Library/Libraries/seekfree_libraries/zf_adc.c:52 (discriminator 1)
}
    2eb4:	a23d                	j	2fe2 <adc_gpio_init+0x176>
E:/桌面/19th智能车/单片机培训、考核/CH32V103_Library-master/Seekfree_CH32V103R8T6_Opensource_Library/Libraries/seekfree_libraries/zf_adc.c:39
    else if(ADC_IN3_A3 == ch)       gpio_init(A3, GPI, 0, IN_AIN);
    2eb6:	fec42703          	lw	a4,-20(s0)
    2eba:	478d                	li	a5,3
    2ebc:	00f71863          	bne	a4,a5,2ecc <adc_gpio_init+0x60>
E:/桌面/19th智能车/单片机培训、考核/CH32V103_Library-master/Seekfree_CH32V103R8T6_Opensource_Library/Libraries/seekfree_libraries/zf_adc.c:39 (discriminator 1)
    2ec0:	4681                	li	a3,0
    2ec2:	4601                	li	a2,0
    2ec4:	4581                	li	a1,0
    2ec6:	450d                	li	a0,3
    2ec8:	248d                	jal	312a <gpio_init>
E:/桌面/19th智能车/单片机培训、考核/CH32V103_Library-master/Seekfree_CH32V103R8T6_Opensource_Library/Libraries/seekfree_libraries/zf_adc.c:52 (discriminator 1)
}
    2eca:	aa21                	j	2fe2 <adc_gpio_init+0x176>
E:/桌面/19th智能车/单片机培训、考核/CH32V103_Library-master/Seekfree_CH32V103R8T6_Opensource_Library/Libraries/seekfree_libraries/zf_adc.c:40
    else if(ADC_IN4_A4 == ch)       gpio_init(A4, GPI, 0, IN_AIN);
    2ecc:	fec42703          	lw	a4,-20(s0)
    2ed0:	4791                	li	a5,4
    2ed2:	00f71863          	bne	a4,a5,2ee2 <adc_gpio_init+0x76>
E:/桌面/19th智能车/单片机培训、考核/CH32V103_Library-master/Seekfree_CH32V103R8T6_Opensource_Library/Libraries/seekfree_libraries/zf_adc.c:40 (discriminator 1)
    2ed6:	4681                	li	a3,0
    2ed8:	4601                	li	a2,0
    2eda:	4581                	li	a1,0
    2edc:	4511                	li	a0,4
    2ede:	24b1                	jal	312a <gpio_init>
E:/桌面/19th智能车/单片机培训、考核/CH32V103_Library-master/Seekfree_CH32V103R8T6_Opensource_Library/Libraries/seekfree_libraries/zf_adc.c:52 (discriminator 1)
}
    2ee0:	a209                	j	2fe2 <adc_gpio_init+0x176>
E:/桌面/19th智能车/单片机培训、考核/CH32V103_Library-master/Seekfree_CH32V103R8T6_Opensource_Library/Libraries/seekfree_libraries/zf_adc.c:41
    else if(ADC_IN5_A5 == ch)       gpio_init(A5, GPI, 0, IN_AIN);
    2ee2:	fec42703          	lw	a4,-20(s0)
    2ee6:	4795                	li	a5,5
    2ee8:	00f71863          	bne	a4,a5,2ef8 <adc_gpio_init+0x8c>
E:/桌面/19th智能车/单片机培训、考核/CH32V103_Library-master/Seekfree_CH32V103R8T6_Opensource_Library/Libraries/seekfree_libraries/zf_adc.c:41 (discriminator 1)
    2eec:	4681                	li	a3,0
    2eee:	4601                	li	a2,0
    2ef0:	4581                	li	a1,0
    2ef2:	4515                	li	a0,5
    2ef4:	2c1d                	jal	312a <gpio_init>
E:/桌面/19th智能车/单片机培训、考核/CH32V103_Library-master/Seekfree_CH32V103R8T6_Opensource_Library/Libraries/seekfree_libraries/zf_adc.c:52 (discriminator 1)
}
    2ef6:	a0f5                	j	2fe2 <adc_gpio_init+0x176>
E:/桌面/19th智能车/单片机培训、考核/CH32V103_Library-master/Seekfree_CH32V103R8T6_Opensource_Library/Libraries/seekfree_libraries/zf_adc.c:42
    else if(ADC_IN6_A6 == ch)       gpio_init(A6, GPI, 0, IN_AIN);
    2ef8:	fec42703          	lw	a4,-20(s0)
    2efc:	4799                	li	a5,6
    2efe:	00f71863          	bne	a4,a5,2f0e <adc_gpio_init+0xa2>
E:/桌面/19th智能车/单片机培训、考核/CH32V103_Library-master/Seekfree_CH32V103R8T6_Opensource_Library/Libraries/seekfree_libraries/zf_adc.c:42 (discriminator 1)
    2f02:	4681                	li	a3,0
    2f04:	4601                	li	a2,0
    2f06:	4581                	li	a1,0
    2f08:	4519                	li	a0,6
    2f0a:	2405                	jal	312a <gpio_init>
E:/桌面/19th智能车/单片机培训、考核/CH32V103_Library-master/Seekfree_CH32V103R8T6_Opensource_Library/Libraries/seekfree_libraries/zf_adc.c:52 (discriminator 1)
}
    2f0c:	a8d9                	j	2fe2 <adc_gpio_init+0x176>
E:/桌面/19th智能车/单片机培训、考核/CH32V103_Library-master/Seekfree_CH32V103R8T6_Opensource_Library/Libraries/seekfree_libraries/zf_adc.c:43
    else if(ADC_IN7_A7 == ch)       gpio_init(A7, GPI, 0, IN_AIN);
    2f0e:	fec42703          	lw	a4,-20(s0)
    2f12:	479d                	li	a5,7
    2f14:	00f71863          	bne	a4,a5,2f24 <adc_gpio_init+0xb8>
E:/桌面/19th智能车/单片机培训、考核/CH32V103_Library-master/Seekfree_CH32V103R8T6_Opensource_Library/Libraries/seekfree_libraries/zf_adc.c:43 (discriminator 1)
    2f18:	4681                	li	a3,0
    2f1a:	4601                	li	a2,0
    2f1c:	4581                	li	a1,0
    2f1e:	451d                	li	a0,7
    2f20:	2429                	jal	312a <gpio_init>
E:/桌面/19th智能车/单片机培训、考核/CH32V103_Library-master/Seekfree_CH32V103R8T6_Opensource_Library/Libraries/seekfree_libraries/zf_adc.c:52 (discriminator 1)
}
    2f22:	a0c1                	j	2fe2 <adc_gpio_init+0x176>
E:/桌面/19th智能车/单片机培训、考核/CH32V103_Library-master/Seekfree_CH32V103R8T6_Opensource_Library/Libraries/seekfree_libraries/zf_adc.c:44
    else if(ADC_IN8_B0 == ch)       gpio_init(B0, GPI, 0, IN_AIN);
    2f24:	fec42703          	lw	a4,-20(s0)
    2f28:	47a1                	li	a5,8
    2f2a:	00f71963          	bne	a4,a5,2f3c <adc_gpio_init+0xd0>
E:/桌面/19th智能车/单片机培训、考核/CH32V103_Library-master/Seekfree_CH32V103R8T6_Opensource_Library/Libraries/seekfree_libraries/zf_adc.c:44 (discriminator 1)
    2f2e:	4681                	li	a3,0
    2f30:	4601                	li	a2,0
    2f32:	4581                	li	a1,0
    2f34:	02000513          	li	a0,32
    2f38:	2acd                	jal	312a <gpio_init>
E:/桌面/19th智能车/单片机培训、考核/CH32V103_Library-master/Seekfree_CH32V103R8T6_Opensource_Library/Libraries/seekfree_libraries/zf_adc.c:52 (discriminator 1)
}
    2f3a:	a065                	j	2fe2 <adc_gpio_init+0x176>
E:/桌面/19th智能车/单片机培训、考核/CH32V103_Library-master/Seekfree_CH32V103R8T6_Opensource_Library/Libraries/seekfree_libraries/zf_adc.c:45
    else if(ADC_IN9_B1 == ch)       gpio_init(B1, GPI, 0, IN_AIN);
    2f3c:	fec42703          	lw	a4,-20(s0)
    2f40:	47a5                	li	a5,9
    2f42:	00f71963          	bne	a4,a5,2f54 <adc_gpio_init+0xe8>
E:/桌面/19th智能车/单片机培训、考核/CH32V103_Library-master/Seekfree_CH32V103R8T6_Opensource_Library/Libraries/seekfree_libraries/zf_adc.c:45 (discriminator 1)
    2f46:	4681                	li	a3,0
    2f48:	4601                	li	a2,0
    2f4a:	4581                	li	a1,0
    2f4c:	02100513          	li	a0,33
    2f50:	2ae9                	jal	312a <gpio_init>
E:/桌面/19th智能车/单片机培训、考核/CH32V103_Library-master/Seekfree_CH32V103R8T6_Opensource_Library/Libraries/seekfree_libraries/zf_adc.c:52 (discriminator 1)
}
    2f52:	a841                	j	2fe2 <adc_gpio_init+0x176>
E:/桌面/19th智能车/单片机培训、考核/CH32V103_Library-master/Seekfree_CH32V103R8T6_Opensource_Library/Libraries/seekfree_libraries/zf_adc.c:46
    else if(ADC_IN10_C0 == ch)      gpio_init(C0, GPI, 0, IN_AIN);
    2f54:	fec42703          	lw	a4,-20(s0)
    2f58:	47a9                	li	a5,10
    2f5a:	00f71963          	bne	a4,a5,2f6c <adc_gpio_init+0x100>
E:/桌面/19th智能车/单片机培训、考核/CH32V103_Library-master/Seekfree_CH32V103R8T6_Opensource_Library/Libraries/seekfree_libraries/zf_adc.c:46 (discriminator 1)
    2f5e:	4681                	li	a3,0
    2f60:	4601                	li	a2,0
    2f62:	4581                	li	a1,0
    2f64:	04000513          	li	a0,64
    2f68:	22c9                	jal	312a <gpio_init>
E:/桌面/19th智能车/单片机培训、考核/CH32V103_Library-master/Seekfree_CH32V103R8T6_Opensource_Library/Libraries/seekfree_libraries/zf_adc.c:52 (discriminator 1)
}
    2f6a:	a8a5                	j	2fe2 <adc_gpio_init+0x176>
E:/桌面/19th智能车/单片机培训、考核/CH32V103_Library-master/Seekfree_CH32V103R8T6_Opensource_Library/Libraries/seekfree_libraries/zf_adc.c:47
    else if(ADC_IN11_C1 == ch)      gpio_init(C1, GPI, 0, IN_AIN);
    2f6c:	fec42703          	lw	a4,-20(s0)
    2f70:	47ad                	li	a5,11
    2f72:	00f71963          	bne	a4,a5,2f84 <adc_gpio_init+0x118>
E:/桌面/19th智能车/单片机培训、考核/CH32V103_Library-master/Seekfree_CH32V103R8T6_Opensource_Library/Libraries/seekfree_libraries/zf_adc.c:47 (discriminator 1)
    2f76:	4681                	li	a3,0
    2f78:	4601                	li	a2,0
    2f7a:	4581                	li	a1,0
    2f7c:	04100513          	li	a0,65
    2f80:	226d                	jal	312a <gpio_init>
E:/桌面/19th智能车/单片机培训、考核/CH32V103_Library-master/Seekfree_CH32V103R8T6_Opensource_Library/Libraries/seekfree_libraries/zf_adc.c:52 (discriminator 1)
}
    2f82:	a085                	j	2fe2 <adc_gpio_init+0x176>
E:/桌面/19th智能车/单片机培训、考核/CH32V103_Library-master/Seekfree_CH32V103R8T6_Opensource_Library/Libraries/seekfree_libraries/zf_adc.c:48
    else if(ADC_IN12_C2 == ch)      gpio_init(C2, GPI, 0, IN_AIN);
    2f84:	fec42703          	lw	a4,-20(s0)
    2f88:	47b1                	li	a5,12
    2f8a:	00f71963          	bne	a4,a5,2f9c <adc_gpio_init+0x130>
E:/桌面/19th智能车/单片机培训、考核/CH32V103_Library-master/Seekfree_CH32V103R8T6_Opensource_Library/Libraries/seekfree_libraries/zf_adc.c:48 (discriminator 1)
    2f8e:	4681                	li	a3,0
    2f90:	4601                	li	a2,0
    2f92:	4581                	li	a1,0
    2f94:	04200513          	li	a0,66
    2f98:	2a49                	jal	312a <gpio_init>
E:/桌面/19th智能车/单片机培训、考核/CH32V103_Library-master/Seekfree_CH32V103R8T6_Opensource_Library/Libraries/seekfree_libraries/zf_adc.c:52 (discriminator 1)
}
    2f9a:	a0a1                	j	2fe2 <adc_gpio_init+0x176>
E:/桌面/19th智能车/单片机培训、考核/CH32V103_Library-master/Seekfree_CH32V103R8T6_Opensource_Library/Libraries/seekfree_libraries/zf_adc.c:49
    else if(ADC_IN13_C3 == ch)      gpio_init(C3, GPI, 0, IN_AIN);
    2f9c:	fec42703          	lw	a4,-20(s0)
    2fa0:	47b5                	li	a5,13
    2fa2:	00f71963          	bne	a4,a5,2fb4 <adc_gpio_init+0x148>
E:/桌面/19th智能车/单片机培训、考核/CH32V103_Library-master/Seekfree_CH32V103R8T6_Opensource_Library/Libraries/seekfree_libraries/zf_adc.c:49 (discriminator 1)
    2fa6:	4681                	li	a3,0
    2fa8:	4601                	li	a2,0
    2faa:	4581                	li	a1,0
    2fac:	04300513          	li	a0,67
    2fb0:	2aad                	jal	312a <gpio_init>
E:/桌面/19th智能车/单片机培训、考核/CH32V103_Library-master/Seekfree_CH32V103R8T6_Opensource_Library/Libraries/seekfree_libraries/zf_adc.c:52 (discriminator 1)
}
    2fb2:	a805                	j	2fe2 <adc_gpio_init+0x176>
E:/桌面/19th智能车/单片机培训、考核/CH32V103_Library-master/Seekfree_CH32V103R8T6_Opensource_Library/Libraries/seekfree_libraries/zf_adc.c:50
    else if(ADC_IN14_C4 == ch)      gpio_init(C4, GPI, 0, IN_AIN);
    2fb4:	fec42703          	lw	a4,-20(s0)
    2fb8:	47b9                	li	a5,14
    2fba:	00f71963          	bne	a4,a5,2fcc <adc_gpio_init+0x160>
E:/桌面/19th智能车/单片机培训、考核/CH32V103_Library-master/Seekfree_CH32V103R8T6_Opensource_Library/Libraries/seekfree_libraries/zf_adc.c:50 (discriminator 1)
    2fbe:	4681                	li	a3,0
    2fc0:	4601                	li	a2,0
    2fc2:	4581                	li	a1,0
    2fc4:	04400513          	li	a0,68
    2fc8:	228d                	jal	312a <gpio_init>
E:/桌面/19th智能车/单片机培训、考核/CH32V103_Library-master/Seekfree_CH32V103R8T6_Opensource_Library/Libraries/seekfree_libraries/zf_adc.c:52 (discriminator 1)
}
    2fca:	a821                	j	2fe2 <adc_gpio_init+0x176>
E:/桌面/19th智能车/单片机培训、考核/CH32V103_Library-master/Seekfree_CH32V103R8T6_Opensource_Library/Libraries/seekfree_libraries/zf_adc.c:51
    else if(ADC_IN15_C5 == ch)      gpio_init(C5, GPI, 0, IN_AIN);
    2fcc:	fec42703          	lw	a4,-20(s0)
    2fd0:	47bd                	li	a5,15
    2fd2:	00f71863          	bne	a4,a5,2fe2 <adc_gpio_init+0x176>
E:/桌面/19th智能车/单片机培训、考核/CH32V103_Library-master/Seekfree_CH32V103R8T6_Opensource_Library/Libraries/seekfree_libraries/zf_adc.c:51 (discriminator 1)
    2fd6:	4681                	li	a3,0
    2fd8:	4601                	li	a2,0
    2fda:	4581                	li	a1,0
    2fdc:	04500513          	li	a0,69
    2fe0:	22a9                	jal	312a <gpio_init>
E:/桌面/19th智能车/单片机培训、考核/CH32V103_Library-master/Seekfree_CH32V103R8T6_Opensource_Library/Libraries/seekfree_libraries/zf_adc.c:52
}
    2fe2:	0001                	nop
    2fe4:	40f2                	lw	ra,28(sp)
    2fe6:	4462                	lw	s0,24(sp)
    2fe8:	6105                	addi	sp,sp,32
    2fea:	8082                	ret

00002fec <adc_init>:
adc_init():
E:/桌面/19th智能车/单片机培训、考核/CH32V103_Library-master/Seekfree_CH32V103R8T6_Opensource_Library/Libraries/seekfree_libraries/zf_adc.c:61
//  @param      ch              选择ADC通道
//  @return     void
//  Sample usage:               adc_init(ADC_IN0_A0);//初始化A0引脚为ADC功能
//-------------------------------------------------------------------------------------------------------------------
void adc_init(ADCCH_enum ch)
{
    2fec:	7139                	addi	sp,sp,-64
    2fee:	de06                	sw	ra,60(sp)
    2ff0:	dc22                	sw	s0,56(sp)
    2ff2:	0080                	addi	s0,sp,64
    2ff4:	fca42623          	sw	a0,-52(s0)
E:/桌面/19th智能车/单片机培训、考核/CH32V103_Library-master/Seekfree_CH32V103R8T6_Opensource_Library/Libraries/seekfree_libraries/zf_adc.c:64
    ADC_InitTypeDef ADC_InitStructure;

    RCC_APB2PeriphClockCmd(RCC_APB2Periph_GPIOA |RCC_APB2Periph_ADC1 , ENABLE );   //使能ADC1通道时钟
    2ff8:	4585                	li	a1,1
    2ffa:	20400513          	li	a0,516
    2ffe:	ec1fd0ef          	jal	ra,ebe <RCC_APB2PeriphClockCmd>
E:/桌面/19th智能车/单片机培训、考核/CH32V103_Library-master/Seekfree_CH32V103R8T6_Opensource_Library/Libraries/seekfree_libraries/zf_adc.c:66

    adc_gpio_init(ch);
    3002:	fcc42503          	lw	a0,-52(s0)
    3006:	359d                	jal	2e6c <adc_gpio_init>
E:/桌面/19th智能车/单片机培训、考核/CH32V103_Library-master/Seekfree_CH32V103R8T6_Opensource_Library/Libraries/seekfree_libraries/zf_adc.c:68

    if(sys_clk > 84000000)  RCC_ADCCLKConfig(RCC_PCLK2_Div8);           //设置ADC分频因子，ADC最大速率不能超过14M
    3008:	8481a703          	lw	a4,-1976(gp) # 200000b8 <sys_clk>
    300c:	0501c7b7          	lui	a5,0x501c
    3010:	d0078793          	addi	a5,a5,-768 # 501bd00 <_data_lma+0x5014000>
    3014:	00e7f663          	bgeu	a5,a4,3020 <adc_init+0x34>
E:/桌面/19th智能车/单片机培训、考核/CH32V103_Library-master/Seekfree_CH32V103R8T6_Opensource_Library/Libraries/seekfree_libraries/zf_adc.c:68 (discriminator 1)
    3018:	6531                	lui	a0,0xc
    301a:	c45fd0ef          	jal	ra,c5e <RCC_ADCCLKConfig>
    301e:	a021                	j	3026 <adc_init+0x3a>
E:/桌面/19th智能车/单片机培训、考核/CH32V103_Library-master/Seekfree_CH32V103R8T6_Opensource_Library/Libraries/seekfree_libraries/zf_adc.c:69
    else RCC_ADCCLKConfig(RCC_PCLK2_Div6);
    3020:	6521                	lui	a0,0x8
    3022:	c3dfd0ef          	jal	ra,c5e <RCC_ADCCLKConfig>
E:/桌面/19th智能车/单片机培训、考核/CH32V103_Library-master/Seekfree_CH32V103R8T6_Opensource_Library/Libraries/seekfree_libraries/zf_adc.c:71

    ADC_DeInit(ADC1);                                                   //复位ADC1
    3026:	400127b7          	lui	a5,0x40012
    302a:	40078513          	addi	a0,a5,1024 # 40012400 <_eusrstack+0x2000d400>
    302e:	a44fd0ef          	jal	ra,272 <ADC_DeInit>
E:/桌面/19th智能车/单片机培训、考核/CH32V103_Library-master/Seekfree_CH32V103R8T6_Opensource_Library/Libraries/seekfree_libraries/zf_adc.c:73

    ADC_InitStructure.ADC_Mode = ADC_Mode_Independent;                  //ADC工作模式:ADC1工作在独立模式
    3032:	fc042c23          	sw	zero,-40(s0)
E:/桌面/19th智能车/单片机培训、考核/CH32V103_Library-master/Seekfree_CH32V103R8T6_Opensource_Library/Libraries/seekfree_libraries/zf_adc.c:74
    ADC_InitStructure.ADC_ScanConvMode = DISABLE;                       //模数转换工作在单通道模式
    3036:	fc042e23          	sw	zero,-36(s0)
E:/桌面/19th智能车/单片机培训、考核/CH32V103_Library-master/Seekfree_CH32V103R8T6_Opensource_Library/Libraries/seekfree_libraries/zf_adc.c:75
    ADC_InitStructure.ADC_ContinuousConvMode = DISABLE;                 //模数转换工作在单次转换模式
    303a:	fe042023          	sw	zero,-32(s0)
E:/桌面/19th智能车/单片机培训、考核/CH32V103_Library-master/Seekfree_CH32V103R8T6_Opensource_Library/Libraries/seekfree_libraries/zf_adc.c:76
    ADC_InitStructure.ADC_ExternalTrigConv = ADC_ExternalTrigConv_None; //转换由软件而不是外部触发启动
    303e:	000e07b7          	lui	a5,0xe0
    3042:	fef42223          	sw	a5,-28(s0)
E:/桌面/19th智能车/单片机培训、考核/CH32V103_Library-master/Seekfree_CH32V103R8T6_Opensource_Library/Libraries/seekfree_libraries/zf_adc.c:77
    ADC_InitStructure.ADC_DataAlign = ADC_DataAlign_Right;              //ADC数据右对齐
    3046:	fe042423          	sw	zero,-24(s0)
E:/桌面/19th智能车/单片机培训、考核/CH32V103_Library-master/Seekfree_CH32V103R8T6_Opensource_Library/Libraries/seekfree_libraries/zf_adc.c:78
    ADC_InitStructure.ADC_NbrOfChannel = 1;                             //顺序进行规则转换的ADC通道的数目
    304a:	4785                	li	a5,1
    304c:	fef40623          	sb	a5,-20(s0)
E:/桌面/19th智能车/单片机培训、考核/CH32V103_Library-master/Seekfree_CH32V103R8T6_Opensource_Library/Libraries/seekfree_libraries/zf_adc.c:79
    ADC_Init(ADC1, &ADC_InitStructure);                                 //根据ADC_InitStruct中指定的参数初始化外设ADCx的寄存器
    3050:	fd840793          	addi	a5,s0,-40
    3054:	85be                	mv	a1,a5
    3056:	400127b7          	lui	a5,0x40012
    305a:	40078513          	addi	a0,a5,1024 # 40012400 <_eusrstack+0x2000d400>
    305e:	a4efd0ef          	jal	ra,2ac <ADC_Init>
E:/桌面/19th智能车/单片机培训、考核/CH32V103_Library-master/Seekfree_CH32V103R8T6_Opensource_Library/Libraries/seekfree_libraries/zf_adc.c:81

    ADC_Cmd(ADC1, ENABLE);                                              //使能指定的ADC1
    3062:	4585                	li	a1,1
    3064:	400127b7          	lui	a5,0x40012
    3068:	40078513          	addi	a0,a5,1024 # 40012400 <_eusrstack+0x2000d400>
    306c:	b32fd0ef          	jal	ra,39e <ADC_Cmd>
E:/桌面/19th智能车/单片机培训、考核/CH32V103_Library-master/Seekfree_CH32V103R8T6_Opensource_Library/Libraries/seekfree_libraries/zf_adc.c:82
    ADC_ResetCalibration(ADC1);                                         //使能复位校准
    3070:	400127b7          	lui	a5,0x40012
    3074:	40078513          	addi	a0,a5,1024 # 40012400 <_eusrstack+0x2000d400>
    3078:	b64fd0ef          	jal	ra,3dc <ADC_ResetCalibration>
E:/桌面/19th智能车/单片机培训、考核/CH32V103_Library-master/Seekfree_CH32V103R8T6_Opensource_Library/Libraries/seekfree_libraries/zf_adc.c:83
    while(ADC_GetResetCalibrationStatus(ADC1));                         //等待复位校准结束
    307c:	0001                	nop
E:/桌面/19th智能车/单片机培训、考核/CH32V103_Library-master/Seekfree_CH32V103R8T6_Opensource_Library/Libraries/seekfree_libraries/zf_adc.c:83 (discriminator 1)
    307e:	400127b7          	lui	a5,0x40012
    3082:	40078513          	addi	a0,a5,1024 # 40012400 <_eusrstack+0x2000d400>
    3086:	b78fd0ef          	jal	ra,3fe <ADC_GetResetCalibrationStatus>
    308a:	87aa                	mv	a5,a0
    308c:	fbed                	bnez	a5,307e <adc_init+0x92>
E:/桌面/19th智能车/单片机培训、考核/CH32V103_Library-master/Seekfree_CH32V103R8T6_Opensource_Library/Libraries/seekfree_libraries/zf_adc.c:84
    ADC_StartCalibration(ADC1);                                         //开启AD校准
    308e:	400127b7          	lui	a5,0x40012
    3092:	40078513          	addi	a0,a5,1024 # 40012400 <_eusrstack+0x2000d400>
    3096:	b98fd0ef          	jal	ra,42e <ADC_StartCalibration>
E:/桌面/19th智能车/单片机培训、考核/CH32V103_Library-master/Seekfree_CH32V103R8T6_Opensource_Library/Libraries/seekfree_libraries/zf_adc.c:85
    while(ADC_GetCalibrationStatus(ADC1));                              //等待校准结束
    309a:	0001                	nop
E:/桌面/19th智能车/单片机培训、考核/CH32V103_Library-master/Seekfree_CH32V103R8T6_Opensource_Library/Libraries/seekfree_libraries/zf_adc.c:85 (discriminator 1)
    309c:	400127b7          	lui	a5,0x40012
    30a0:	40078513          	addi	a0,a5,1024 # 40012400 <_eusrstack+0x2000d400>
    30a4:	bacfd0ef          	jal	ra,450 <ADC_GetCalibrationStatus>
    30a8:	87aa                	mv	a5,a0
    30aa:	fbed                	bnez	a5,309c <adc_init+0xb0>
E:/桌面/19th智能车/单片机培训、考核/CH32V103_Library-master/Seekfree_CH32V103R8T6_Opensource_Library/Libraries/seekfree_libraries/zf_adc.c:87

}
    30ac:	0001                	nop
    30ae:	50f2                	lw	ra,60(sp)
    30b0:	5462                	lw	s0,56(sp)
    30b2:	6121                	addi	sp,sp,64
    30b4:	8082                	ret

000030b6 <adc_convert>:
adc_convert():
E:/桌面/19th智能车/单片机培训、考核/CH32V103_Library-master/Seekfree_CH32V103R8T6_Opensource_Library/Libraries/seekfree_libraries/zf_adc.c:97
//  @param      resolution      分辨率(8位 10位 12位)
//  @return     void
//  Sample usage:               adc_convert(ADC_IN0_A0, ADC_8BIT);  //采集A0端口返回8位分辨率的AD值
//-------------------------------------------------------------------------------------------------------------------
uint16 adc_convert(ADCCH_enum ch, ADCRES_enum resolution)
{
    30b6:	1101                	addi	sp,sp,-32
    30b8:	ce06                	sw	ra,28(sp)
    30ba:	cc22                	sw	s0,24(sp)
    30bc:	1000                	addi	s0,sp,32
    30be:	fea42623          	sw	a0,-20(s0)
    30c2:	feb42423          	sw	a1,-24(s0)
E:/桌面/19th智能车/单片机培训、考核/CH32V103_Library-master/Seekfree_CH32V103R8T6_Opensource_Library/Libraries/seekfree_libraries/zf_adc.c:99
    //设置指定ADC的规则组通道，一个序列，采样时间
    ADC_RegularChannelConfig(ADC1, (uint8)ch, 1, ADC_SampleTime_1Cycles5);  //ADC1,ADC通道,采样时间为1.5周期
    30c6:	fec42783          	lw	a5,-20(s0)
    30ca:	0ff7f793          	andi	a5,a5,255
    30ce:	4681                	li	a3,0
    30d0:	4605                	li	a2,1
    30d2:	85be                	mv	a1,a5
    30d4:	400127b7          	lui	a5,0x40012
    30d8:	40078513          	addi	a0,a5,1024 # 40012400 <_eusrstack+0x2000d400>
    30dc:	ba4fd0ef          	jal	ra,480 <ADC_RegularChannelConfig>
E:/桌面/19th智能车/单片机培训、考核/CH32V103_Library-master/Seekfree_CH32V103R8T6_Opensource_Library/Libraries/seekfree_libraries/zf_adc.c:100
    ADC1->CTLR2 |= ((uint32_t)0x00500000);                                  //使能指定的ADC1的软件转换启动功能
    30e0:	400127b7          	lui	a5,0x40012
    30e4:	40078793          	addi	a5,a5,1024 # 40012400 <_eusrstack+0x2000d400>
    30e8:	4794                	lw	a3,8(a5)
    30ea:	400127b7          	lui	a5,0x40012
    30ee:	40078793          	addi	a5,a5,1024 # 40012400 <_eusrstack+0x2000d400>
    30f2:	00500737          	lui	a4,0x500
    30f6:	8f55                	or	a4,a4,a3
    30f8:	c798                	sw	a4,8(a5)
E:/桌面/19th智能车/单片机培训、考核/CH32V103_Library-master/Seekfree_CH32V103R8T6_Opensource_Library/Libraries/seekfree_libraries/zf_adc.c:101
    while((ADC1->STATR & ADC_FLAG_EOC) == (uint8_t)RESET);                  //等待转换结束
    30fa:	0001                	nop
E:/桌面/19th智能车/单片机培训、考核/CH32V103_Library-master/Seekfree_CH32V103R8T6_Opensource_Library/Libraries/seekfree_libraries/zf_adc.c:101 (discriminator 1)
    30fc:	400127b7          	lui	a5,0x40012
    3100:	40078793          	addi	a5,a5,1024 # 40012400 <_eusrstack+0x2000d400>
    3104:	439c                	lw	a5,0(a5)
    3106:	8b89                	andi	a5,a5,2
    3108:	dbf5                	beqz	a5,30fc <adc_convert+0x46>
E:/桌面/19th智能车/单片机培训、考核/CH32V103_Library-master/Seekfree_CH32V103R8T6_Opensource_Library/Libraries/seekfree_libraries/zf_adc.c:102
    return ((ADC1->RDATAR)>>resolution);                                    //返回最近一次ADC1规则组的转换结果
    310a:	400127b7          	lui	a5,0x40012
    310e:	40078793          	addi	a5,a5,1024 # 40012400 <_eusrstack+0x2000d400>
    3112:	47f8                	lw	a4,76(a5)
    3114:	fe842783          	lw	a5,-24(s0)
    3118:	00f757b3          	srl	a5,a4,a5
    311c:	07c2                	slli	a5,a5,0x10
    311e:	83c1                	srli	a5,a5,0x10
E:/桌面/19th智能车/单片机培训、考核/CH32V103_Library-master/Seekfree_CH32V103R8T6_Opensource_Library/Libraries/seekfree_libraries/zf_adc.c:103
}
    3120:	853e                	mv	a0,a5
    3122:	40f2                	lw	ra,28(sp)
    3124:	4462                	lw	s0,24(sp)
    3126:	6105                	addi	sp,sp,32
    3128:	8082                	ret

0000312a <gpio_init>:
gpio_init():
E:/桌面/19th智能车/单片机培训、考核/CH32V103_Library-master/Seekfree_CH32V103R8T6_Opensource_Library/Libraries/seekfree_libraries/zf_gpio.c:40
//  @param      pinconf     引脚配置（可设置参数由zf_gpio.h文件内GPIOSPEED_enum与GPIOMODE_enum枚举值确定，多个条件使用 | 相或）
//  @return     void
//  Sample usage:           gpio_init(D0, GPO, 1, GPIO_PIN_CONFIG);//D0初始化为GPIO功能、输出模式、输出高电平、速度100MHZ 推挽输出
//-------------------------------------------------------------------------------------------------------------------
void gpio_init(PIN_enum pin, GPIODIR_enum dir, uint8 dat, uint32 pinconf)
{
    312a:	7179                	addi	sp,sp,-48
    312c:	d606                	sw	ra,44(sp)
    312e:	d422                	sw	s0,40(sp)
    3130:	1800                	addi	s0,sp,48
    3132:	fca42e23          	sw	a0,-36(s0)
    3136:	fcb42c23          	sw	a1,-40(s0)
    313a:	87b2                	mv	a5,a2
    313c:	fcd42823          	sw	a3,-48(s0)
    3140:	fcf40ba3          	sb	a5,-41(s0)
E:/桌面/19th智能车/单片机培训、考核/CH32V103_Library-master/Seekfree_CH32V103R8T6_Opensource_Library/Libraries/seekfree_libraries/zf_gpio.c:42
    GPIO_InitTypeDef GPIO_InitStructure;
    uint8 io_group = (pin & 0xE0) >> 5;
    3144:	fdc42783          	lw	a5,-36(s0)
    3148:	8395                	srli	a5,a5,0x5
    314a:	0ff7f793          	andi	a5,a5,255
    314e:	8b9d                	andi	a5,a5,7
    3150:	fef407a3          	sb	a5,-17(s0)
E:/桌面/19th智能车/单片机培训、考核/CH32V103_Library-master/Seekfree_CH32V103R8T6_Opensource_Library/Libraries/seekfree_libraries/zf_gpio.c:43
    uint8 io_pin = pin & 0x1F;
    3154:	fdc42783          	lw	a5,-36(s0)
    3158:	0ff7f793          	andi	a5,a5,255
    315c:	8bfd                	andi	a5,a5,31
    315e:	fef40723          	sb	a5,-18(s0)
E:/桌面/19th智能车/单片机培训、考核/CH32V103_Library-master/Seekfree_CH32V103R8T6_Opensource_Library/Libraries/seekfree_libraries/zf_gpio.c:46


    if(PIN_NULL == pin) return;
    3162:	fdc42703          	lw	a4,-36(s0)
    3166:	08000793          	li	a5,128
    316a:	14f70d63          	beq	a4,a5,32c4 <gpio_init+0x19a>
E:/桌面/19th智能车/单片机培训、考核/CH32V103_Library-master/Seekfree_CH32V103R8T6_Opensource_Library/Libraries/seekfree_libraries/zf_gpio.c:48
    //GPIO总线使能
    if(0 == (pin >> 5))      RCC_APB2PeriphClockCmd(RCC_APB2Periph_GPIOA, ENABLE);
    316e:	fdc42783          	lw	a5,-36(s0)
    3172:	8395                	srli	a5,a5,0x5
    3174:	e791                	bnez	a5,3180 <gpio_init+0x56>
E:/桌面/19th智能车/单片机培训、考核/CH32V103_Library-master/Seekfree_CH32V103R8T6_Opensource_Library/Libraries/seekfree_libraries/zf_gpio.c:48 (discriminator 1)
    3176:	4585                	li	a1,1
    3178:	4511                	li	a0,4
    317a:	d45fd0ef          	jal	ra,ebe <RCC_APB2PeriphClockCmd>
    317e:	a861                	j	3216 <gpio_init+0xec>
E:/桌面/19th智能车/单片机培训、考核/CH32V103_Library-master/Seekfree_CH32V103R8T6_Opensource_Library/Libraries/seekfree_libraries/zf_gpio.c:49
    else if(1 == (pin >> 5)) RCC_APB2PeriphClockCmd(RCC_APB2Periph_GPIOB, ENABLE);
    3180:	fdc42783          	lw	a5,-36(s0)
    3184:	0057d713          	srli	a4,a5,0x5
    3188:	4785                	li	a5,1
    318a:	00f71763          	bne	a4,a5,3198 <gpio_init+0x6e>
E:/桌面/19th智能车/单片机培训、考核/CH32V103_Library-master/Seekfree_CH32V103R8T6_Opensource_Library/Libraries/seekfree_libraries/zf_gpio.c:49 (discriminator 1)
    318e:	4585                	li	a1,1
    3190:	4521                	li	a0,8
    3192:	d2dfd0ef          	jal	ra,ebe <RCC_APB2PeriphClockCmd>
    3196:	a041                	j	3216 <gpio_init+0xec>
E:/桌面/19th智能车/单片机培训、考核/CH32V103_Library-master/Seekfree_CH32V103R8T6_Opensource_Library/Libraries/seekfree_libraries/zf_gpio.c:50
    else if(2 == (pin >> 5)) RCC_APB2PeriphClockCmd(RCC_APB2Periph_GPIOC, ENABLE);
    3198:	fdc42783          	lw	a5,-36(s0)
    319c:	0057d713          	srli	a4,a5,0x5
    31a0:	4789                	li	a5,2
    31a2:	00f71763          	bne	a4,a5,31b0 <gpio_init+0x86>
E:/桌面/19th智能车/单片机培训、考核/CH32V103_Library-master/Seekfree_CH32V103R8T6_Opensource_Library/Libraries/seekfree_libraries/zf_gpio.c:50 (discriminator 1)
    31a6:	4585                	li	a1,1
    31a8:	4541                	li	a0,16
    31aa:	d15fd0ef          	jal	ra,ebe <RCC_APB2PeriphClockCmd>
    31ae:	a0a5                	j	3216 <gpio_init+0xec>
E:/桌面/19th智能车/单片机培训、考核/CH32V103_Library-master/Seekfree_CH32V103R8T6_Opensource_Library/Libraries/seekfree_libraries/zf_gpio.c:51
    else if(3 == (pin >> 5)) RCC_APB2PeriphClockCmd(RCC_APB2Periph_GPIOD, ENABLE);
    31b0:	fdc42783          	lw	a5,-36(s0)
    31b4:	0057d713          	srli	a4,a5,0x5
    31b8:	478d                	li	a5,3
    31ba:	00f71863          	bne	a4,a5,31ca <gpio_init+0xa0>
E:/桌面/19th智能车/单片机培训、考核/CH32V103_Library-master/Seekfree_CH32V103R8T6_Opensource_Library/Libraries/seekfree_libraries/zf_gpio.c:51 (discriminator 1)
    31be:	4585                	li	a1,1
    31c0:	02000513          	li	a0,32
    31c4:	cfbfd0ef          	jal	ra,ebe <RCC_APB2PeriphClockCmd>
    31c8:	a0b9                	j	3216 <gpio_init+0xec>
E:/桌面/19th智能车/单片机培训、考核/CH32V103_Library-master/Seekfree_CH32V103R8T6_Opensource_Library/Libraries/seekfree_libraries/zf_gpio.c:52
    else if(4 == (pin >> 5)) RCC_APB2PeriphClockCmd(RCC_APB2Periph_GPIOE, ENABLE);
    31ca:	fdc42783          	lw	a5,-36(s0)
    31ce:	0057d713          	srli	a4,a5,0x5
    31d2:	4791                	li	a5,4
    31d4:	00f71863          	bne	a4,a5,31e4 <gpio_init+0xba>
E:/桌面/19th智能车/单片机培训、考核/CH32V103_Library-master/Seekfree_CH32V103R8T6_Opensource_Library/Libraries/seekfree_libraries/zf_gpio.c:52 (discriminator 1)
    31d8:	4585                	li	a1,1
    31da:	04000513          	li	a0,64
    31de:	ce1fd0ef          	jal	ra,ebe <RCC_APB2PeriphClockCmd>
    31e2:	a815                	j	3216 <gpio_init+0xec>
E:/桌面/19th智能车/单片机培训、考核/CH32V103_Library-master/Seekfree_CH32V103R8T6_Opensource_Library/Libraries/seekfree_libraries/zf_gpio.c:53
    else if(5 == (pin >> 5)) RCC_APB2PeriphClockCmd(RCC_APB2Periph_GPIOF, ENABLE);
    31e4:	fdc42783          	lw	a5,-36(s0)
    31e8:	0057d713          	srli	a4,a5,0x5
    31ec:	4795                	li	a5,5
    31ee:	00f71863          	bne	a4,a5,31fe <gpio_init+0xd4>
E:/桌面/19th智能车/单片机培训、考核/CH32V103_Library-master/Seekfree_CH32V103R8T6_Opensource_Library/Libraries/seekfree_libraries/zf_gpio.c:53 (discriminator 1)
    31f2:	4585                	li	a1,1
    31f4:	08000513          	li	a0,128
    31f8:	cc7fd0ef          	jal	ra,ebe <RCC_APB2PeriphClockCmd>
    31fc:	a829                	j	3216 <gpio_init+0xec>
E:/桌面/19th智能车/单片机培训、考核/CH32V103_Library-master/Seekfree_CH32V103R8T6_Opensource_Library/Libraries/seekfree_libraries/zf_gpio.c:54
    else if(6 == (pin >> 5)) RCC_APB2PeriphClockCmd(RCC_APB2Periph_GPIOG, ENABLE);
    31fe:	fdc42783          	lw	a5,-36(s0)
    3202:	0057d713          	srli	a4,a5,0x5
    3206:	4799                	li	a5,6
    3208:	00f71763          	bne	a4,a5,3216 <gpio_init+0xec>
E:/桌面/19th智能车/单片机培训、考核/CH32V103_Library-master/Seekfree_CH32V103R8T6_Opensource_Library/Libraries/seekfree_libraries/zf_gpio.c:54 (discriminator 1)
    320c:	4585                	li	a1,1
    320e:	10000513          	li	a0,256
    3212:	cadfd0ef          	jal	ra,ebe <RCC_APB2PeriphClockCmd>
E:/桌面/19th智能车/单片机培训、考核/CH32V103_Library-master/Seekfree_CH32V103R8T6_Opensource_Library/Libraries/seekfree_libraries/zf_gpio.c:58


    //设置引脚号
    GPIO_InitStructure.GPIO_Pin = (uint16)(1 << io_pin);
    3216:	fee44783          	lbu	a5,-18(s0)
    321a:	4705                	li	a4,1
    321c:	00f717b3          	sll	a5,a4,a5
    3220:	07c2                	slli	a5,a5,0x10
    3222:	83c1                	srli	a5,a5,0x10
    3224:	fef41023          	sh	a5,-32(s0)
E:/桌面/19th智能车/单片机培训、考核/CH32V103_Library-master/Seekfree_CH32V103R8T6_Opensource_Library/Libraries/seekfree_libraries/zf_gpio.c:60

    if(GPO == dir)
    3228:	fd842703          	lw	a4,-40(s0)
    322c:	4785                	li	a5,1
    322e:	02f71763          	bne	a4,a5,325c <gpio_init+0x132>
E:/桌面/19th智能车/单片机培训、考核/CH32V103_Library-master/Seekfree_CH32V103R8T6_Opensource_Library/Libraries/seekfree_libraries/zf_gpio.c:63
    {
        //只有输出需要设置速度
        if((uint16)pinconf >> 8 == 0) GPIO_InitStructure.GPIO_Speed = (GPIOSpeed_TypeDef)(GPIO_Speed_50MHz);  //防止没有填写这个参数,默认设置50Mhz
    3232:	fd042783          	lw	a5,-48(s0)
    3236:	07c2                	slli	a5,a5,0x10
    3238:	83c1                	srli	a5,a5,0x10
    323a:	83a1                	srli	a5,a5,0x8
    323c:	07c2                	slli	a5,a5,0x10
    323e:	83c1                	srli	a5,a5,0x10
    3240:	e789                	bnez	a5,324a <gpio_init+0x120>
E:/桌面/19th智能车/单片机培训、考核/CH32V103_Library-master/Seekfree_CH32V103R8T6_Opensource_Library/Libraries/seekfree_libraries/zf_gpio.c:63 (discriminator 1)
    3242:	478d                	li	a5,3
    3244:	fef42223          	sw	a5,-28(s0)
    3248:	a811                	j	325c <gpio_init+0x132>
E:/桌面/19th智能车/单片机培训、考核/CH32V103_Library-master/Seekfree_CH32V103R8T6_Opensource_Library/Libraries/seekfree_libraries/zf_gpio.c:64
        else GPIO_InitStructure.GPIO_Speed = (GPIOSpeed_TypeDef)((uint16)pinconf >> 8);                       //已经填写了该参数。根据值来设置
    324a:	fd042783          	lw	a5,-48(s0)
    324e:	07c2                	slli	a5,a5,0x10
    3250:	83c1                	srli	a5,a5,0x10
    3252:	83a1                	srli	a5,a5,0x8
    3254:	07c2                	slli	a5,a5,0x10
    3256:	83c1                	srli	a5,a5,0x10
    3258:	fef42223          	sw	a5,-28(s0)
E:/桌面/19th智能车/单片机培训、考核/CH32V103_Library-master/Seekfree_CH32V103R8T6_Opensource_Library/Libraries/seekfree_libraries/zf_gpio.c:68
    }

    //设置模式
    GPIO_InitStructure.GPIO_Mode = (GPIOMode_TypeDef)((uint16)pinconf & 0xff);
    325c:	fd042783          	lw	a5,-48(s0)
    3260:	07c2                	slli	a5,a5,0x10
    3262:	83c1                	srli	a5,a5,0x10
    3264:	0ff7f793          	andi	a5,a5,255
    3268:	fef42423          	sw	a5,-24(s0)
E:/桌面/19th智能车/单片机培训、考核/CH32V103_Library-master/Seekfree_CH32V103R8T6_Opensource_Library/Libraries/seekfree_libraries/zf_gpio.c:69
    GPIO_Init((GPIO_TypeDef *)(GPION[io_group]), &GPIO_InitStructure);
    326c:	fef44703          	lbu	a4,-17(s0)
    3270:	67a1                	lui	a5,0x8
    3272:	070a                	slli	a4,a4,0x2
    3274:	a6c78793          	addi	a5,a5,-1428 # 7a6c <GPION>
    3278:	97ba                	add	a5,a5,a4
    327a:	439c                	lw	a5,0(a5)
    327c:	873e                	mv	a4,a5
    327e:	fe040793          	addi	a5,s0,-32
    3282:	85be                	mv	a1,a5
    3284:	853a                	mv	a0,a4
    3286:	e3afd0ef          	jal	ra,8c0 <GPIO_Init>
E:/桌面/19th智能车/单片机培训、考核/CH32V103_Library-master/Seekfree_CH32V103R8T6_Opensource_Library/Libraries/seekfree_libraries/zf_gpio.c:71

    if(GPO == dir)
    328a:	fd842703          	lw	a4,-40(s0)
    328e:	4785                	li	a5,1
    3290:	02f71b63          	bne	a4,a5,32c6 <gpio_init+0x19c>
E:/桌面/19th智能车/单片机培训、考核/CH32V103_Library-master/Seekfree_CH32V103R8T6_Opensource_Library/Libraries/seekfree_libraries/zf_gpio.c:74
    {
        //只有输出需要设置引脚状态
        GPIO_WriteBit((GPIO_TypeDef *)(GPION[io_group]), (uint16)(1 << io_pin), dat);
    3294:	fef44703          	lbu	a4,-17(s0)
    3298:	67a1                	lui	a5,0x8
    329a:	070a                	slli	a4,a4,0x2
    329c:	a6c78793          	addi	a5,a5,-1428 # 7a6c <GPION>
    32a0:	97ba                	add	a5,a5,a4
    32a2:	439c                	lw	a5,0(a5)
    32a4:	86be                	mv	a3,a5
    32a6:	fee44783          	lbu	a5,-18(s0)
    32aa:	4705                	li	a4,1
    32ac:	00f717b3          	sll	a5,a4,a5
    32b0:	07c2                	slli	a5,a5,0x10
    32b2:	83c1                	srli	a5,a5,0x10
    32b4:	fd744703          	lbu	a4,-41(s0)
    32b8:	863a                	mv	a2,a4
    32ba:	85be                	mv	a1,a5
    32bc:	8536                	mv	a0,a3
    32be:	82dfd0ef          	jal	ra,aea <GPIO_WriteBit>
    32c2:	a011                	j	32c6 <gpio_init+0x19c>
E:/桌面/19th智能车/单片机培训、考核/CH32V103_Library-master/Seekfree_CH32V103R8T6_Opensource_Library/Libraries/seekfree_libraries/zf_gpio.c:46
    if(PIN_NULL == pin) return;
    32c4:	0001                	nop
E:/桌面/19th智能车/单片机培训、考核/CH32V103_Library-master/Seekfree_CH32V103R8T6_Opensource_Library/Libraries/seekfree_libraries/zf_gpio.c:76
    }
}
    32c6:	50b2                	lw	ra,44(sp)
    32c8:	5422                	lw	s0,40(sp)
    32ca:	6145                	addi	sp,sp,48
    32cc:	8082                	ret

000032ce <gpio_set>:
gpio_set():
E:/桌面/19th智能车/单片机培训、考核/CH32V103_Library-master/Seekfree_CH32V103R8T6_Opensource_Library/Libraries/seekfree_libraries/zf_gpio.c:86
//  @param      dat         引脚的电平状态，输出时有效 0：低电平 1：高电平
//  @return     void
//  Sample usage:           gpio_set(D0, 0);//D0输出低电平
//-------------------------------------------------------------------------------------------------------------------
void gpio_set(PIN_enum pin, uint8 dat)
{
    32ce:	7179                	addi	sp,sp,-48
    32d0:	d622                	sw	s0,44(sp)
    32d2:	1800                	addi	s0,sp,48
    32d4:	fca42e23          	sw	a0,-36(s0)
    32d8:	87ae                	mv	a5,a1
    32da:	fcf40da3          	sb	a5,-37(s0)
E:/桌面/19th智能车/单片机培训、考核/CH32V103_Library-master/Seekfree_CH32V103R8T6_Opensource_Library/Libraries/seekfree_libraries/zf_gpio.c:87
    uint8 io_group = (pin & 0xE0) >> 5;
    32de:	fdc42783          	lw	a5,-36(s0)
    32e2:	8395                	srli	a5,a5,0x5
    32e4:	0ff7f793          	andi	a5,a5,255
    32e8:	8b9d                	andi	a5,a5,7
    32ea:	fef407a3          	sb	a5,-17(s0)
E:/桌面/19th智能车/单片机培训、考核/CH32V103_Library-master/Seekfree_CH32V103R8T6_Opensource_Library/Libraries/seekfree_libraries/zf_gpio.c:88
    uint8 io_pin = pin & 0x1F;
    32ee:	fdc42783          	lw	a5,-36(s0)
    32f2:	0ff7f793          	andi	a5,a5,255
    32f6:	8bfd                	andi	a5,a5,31
    32f8:	fef40723          	sb	a5,-18(s0)
E:/桌面/19th智能车/单片机培训、考核/CH32V103_Library-master/Seekfree_CH32V103R8T6_Opensource_Library/Libraries/seekfree_libraries/zf_gpio.c:90

    if (dat == 1)
    32fc:	fdb44703          	lbu	a4,-37(s0)
    3300:	4785                	li	a5,1
    3302:	02f71263          	bne	a4,a5,3326 <gpio_set+0x58>
E:/桌面/19th智能车/单片机培训、考核/CH32V103_Library-master/Seekfree_CH32V103R8T6_Opensource_Library/Libraries/seekfree_libraries/zf_gpio.c:91
         ((GPIO_TypeDef *)(GPION[io_group]))->BSHR = 1 << io_pin;
    3306:	fee44783          	lbu	a5,-18(s0)
    330a:	4705                	li	a4,1
    330c:	00f716b3          	sll	a3,a4,a5
    3310:	fef44703          	lbu	a4,-17(s0)
    3314:	67a1                	lui	a5,0x8
    3316:	070a                	slli	a4,a4,0x2
    3318:	a6c78793          	addi	a5,a5,-1428 # 7a6c <GPION>
    331c:	97ba                	add	a5,a5,a4
    331e:	439c                	lw	a5,0(a5)
    3320:	8736                	mv	a4,a3
    3322:	cb98                	sw	a4,16(a5)
E:/桌面/19th智能车/单片机培训、考核/CH32V103_Library-master/Seekfree_CH32V103R8T6_Opensource_Library/Libraries/seekfree_libraries/zf_gpio.c:94
    else
         ((GPIO_TypeDef *)(GPION[io_group]))->BCR = 1 << io_pin;
}
    3324:	a005                	j	3344 <gpio_set+0x76>
E:/桌面/19th智能车/单片机培训、考核/CH32V103_Library-master/Seekfree_CH32V103R8T6_Opensource_Library/Libraries/seekfree_libraries/zf_gpio.c:93
         ((GPIO_TypeDef *)(GPION[io_group]))->BCR = 1 << io_pin;
    3326:	fee44783          	lbu	a5,-18(s0)
    332a:	4705                	li	a4,1
    332c:	00f716b3          	sll	a3,a4,a5
    3330:	fef44703          	lbu	a4,-17(s0)
    3334:	67a1                	lui	a5,0x8
    3336:	070a                	slli	a4,a4,0x2
    3338:	a6c78793          	addi	a5,a5,-1428 # 7a6c <GPION>
    333c:	97ba                	add	a5,a5,a4
    333e:	439c                	lw	a5,0(a5)
    3340:	8736                	mv	a4,a3
    3342:	cbd8                	sw	a4,20(a5)
E:/桌面/19th智能车/单片机培训、考核/CH32V103_Library-master/Seekfree_CH32V103R8T6_Opensource_Library/Libraries/seekfree_libraries/zf_gpio.c:94
}
    3344:	0001                	nop
    3346:	5432                	lw	s0,44(sp)
    3348:	6145                	addi	sp,sp,48
    334a:	8082                	ret

0000334c <gpio_get>:
gpio_get():
E:/桌面/19th智能车/单片机培训、考核/CH32V103_Library-master/Seekfree_CH32V103R8T6_Opensource_Library/Libraries/seekfree_libraries/zf_gpio.c:103
//  @param      pin         选择的引脚 (可选择范围由 common.h 内PIN_enum枚举值确定)
//  @return     uint8       0：低电平 1：高电平
//  Sample usage:           uint8 status = gpio_get(D0);//获取D0引脚电平
//-------------------------------------------------------------------------------------------------------------------
uint8 gpio_get(PIN_enum pin)
{
    334c:	7179                	addi	sp,sp,-48
    334e:	d622                	sw	s0,44(sp)
    3350:	1800                	addi	s0,sp,48
    3352:	fca42e23          	sw	a0,-36(s0)
E:/桌面/19th智能车/单片机培训、考核/CH32V103_Library-master/Seekfree_CH32V103R8T6_Opensource_Library/Libraries/seekfree_libraries/zf_gpio.c:104
    uint8 io_group = (pin & 0xE0) >> 5;
    3356:	fdc42783          	lw	a5,-36(s0)
    335a:	8395                	srli	a5,a5,0x5
    335c:	0ff7f793          	andi	a5,a5,255
    3360:	8b9d                	andi	a5,a5,7
    3362:	fef407a3          	sb	a5,-17(s0)
E:/桌面/19th智能车/单片机培训、考核/CH32V103_Library-master/Seekfree_CH32V103R8T6_Opensource_Library/Libraries/seekfree_libraries/zf_gpio.c:105
    uint8 io_pin = pin & 0x1F;
    3366:	fdc42783          	lw	a5,-36(s0)
    336a:	0ff7f793          	andi	a5,a5,255
    336e:	8bfd                	andi	a5,a5,31
    3370:	fef40723          	sb	a5,-18(s0)
E:/桌面/19th智能车/单片机培训、考核/CH32V103_Library-master/Seekfree_CH32V103R8T6_Opensource_Library/Libraries/seekfree_libraries/zf_gpio.c:107

    if((((GPIO_TypeDef *)(GPION[io_group]))->INDR & (1 << io_pin)) != 0)
    3374:	fef44703          	lbu	a4,-17(s0)
    3378:	67a1                	lui	a5,0x8
    337a:	070a                	slli	a4,a4,0x2
    337c:	a6c78793          	addi	a5,a5,-1428 # 7a6c <GPION>
    3380:	97ba                	add	a5,a5,a4
    3382:	439c                	lw	a5,0(a5)
    3384:	479c                	lw	a5,8(a5)
    3386:	fee44703          	lbu	a4,-18(s0)
    338a:	4685                	li	a3,1
    338c:	00e69733          	sll	a4,a3,a4
    3390:	8ff9                	and	a5,a5,a4
    3392:	c399                	beqz	a5,3398 <gpio_get+0x4c>
E:/桌面/19th智能车/单片机培训、考核/CH32V103_Library-master/Seekfree_CH32V103R8T6_Opensource_Library/Libraries/seekfree_libraries/zf_gpio.c:109
    {
        return 1;
    3394:	4785                	li	a5,1
    3396:	a011                	j	339a <gpio_get+0x4e>
E:/桌面/19th智能车/单片机培训、考核/CH32V103_Library-master/Seekfree_CH32V103R8T6_Opensource_Library/Libraries/seekfree_libraries/zf_gpio.c:111
    }
    return 0;
    3398:	4781                	li	a5,0
E:/桌面/19th智能车/单片机培训、考核/CH32V103_Library-master/Seekfree_CH32V103R8T6_Opensource_Library/Libraries/seekfree_libraries/zf_gpio.c:114


}
    339a:	853e                	mv	a0,a5
    339c:	5432                	lw	s0,44(sp)
    339e:	6145                	addi	sp,sp,48
    33a0:	8082                	ret

000033a2 <DisableGlobalIRQ>:
DisableGlobalIRQ():
E:/桌面/19th智能车/单片机培训、考核/CH32V103_Library-master/Seekfree_CH32V103R8T6_Opensource_Library/Libraries/seekfree_libraries/zf_nvic.c:89
//  @return     void
//  @since      v1.0
//  Sample usage:
//-------------------------------------------------------------------------------------------------------------------
uint32 DisableGlobalIRQ(void)
{
    33a2:	1141                	addi	sp,sp,-16
    33a4:	c606                	sw	ra,12(sp)
    33a6:	c422                	sw	s0,8(sp)
    33a8:	0800                	addi	s0,sp,16
E:/桌面/19th智能车/单片机培训、考核/CH32V103_Library-master/Seekfree_CH32V103R8T6_Opensource_Library/Libraries/seekfree_libraries/zf_nvic.c:99
//    close_all_irq();
//    return state;

    extern uint32 interrupt_disable();
    //返回当前mstatus寄存器的值
    return interrupt_disable();
    33aa:	d97fc0ef          	jal	ra,140 <interrupt_disable>
    33ae:	87aa                	mv	a5,a0
E:/桌面/19th智能车/单片机培训、考核/CH32V103_Library-master/Seekfree_CH32V103R8T6_Opensource_Library/Libraries/seekfree_libraries/zf_nvic.c:100
}
    33b0:	853e                	mv	a0,a5
    33b2:	40b2                	lw	ra,12(sp)
    33b4:	4422                	lw	s0,8(sp)
    33b6:	0141                	addi	sp,sp,16
    33b8:	8082                	ret

000033ba <EnableGlobalIRQ>:
EnableGlobalIRQ():
E:/桌面/19th智能车/单片机培训、考核/CH32V103_Library-master/Seekfree_CH32V103R8T6_Opensource_Library/Libraries/seekfree_libraries/zf_nvic.c:110
//  @return     void
//  @since      v1.0
//  Sample usage:
//-------------------------------------------------------------------------------------------------------------------
void EnableGlobalIRQ(uint8 state)
{
    33ba:	1101                	addi	sp,sp,-32
    33bc:	ce06                	sw	ra,28(sp)
    33be:	cc22                	sw	s0,24(sp)
    33c0:	1000                	addi	s0,sp,32
    33c2:	87aa                	mv	a5,a0
    33c4:	fef407a3          	sb	a5,-17(s0)
E:/桌面/19th智能车/单片机培训、考核/CH32V103_Library-master/Seekfree_CH32V103R8T6_Opensource_Library/Libraries/seekfree_libraries/zf_nvic.c:116
//    if(state == 0)
//    {
//        irq_status.flag = 0;
//        sys_recover_irq();
//    }
    if(state == 0)
    33c8:	fef44783          	lbu	a5,-17(s0)
    33cc:	e789                	bnez	a5,33d6 <EnableGlobalIRQ+0x1c>
E:/桌面/19th智能车/单片机培训、考核/CH32V103_Library-master/Seekfree_CH32V103R8T6_Opensource_Library/Libraries/seekfree_libraries/zf_nvic.c:119
    {
        extern void interrupt_enable(long);
        interrupt_enable(0x88);
    33ce:	08800513          	li	a0,136
    33d2:	d75fc0ef          	jal	ra,146 <interrupt_enable>
E:/桌面/19th智能车/单片机培训、考核/CH32V103_Library-master/Seekfree_CH32V103R8T6_Opensource_Library/Libraries/seekfree_libraries/zf_nvic.c:121
    }
}
    33d6:	0001                	nop
    33d8:	40f2                	lw	ra,28(sp)
    33da:	4462                	lw	s0,24(sp)
    33dc:	6105                	addi	sp,sp,32
    33de:	8082                	ret

000033e0 <timer_pwm_gpio_init>:
timer_pwm_gpio_init():
E:/桌面/19th智能车/单片机培训、考核/CH32V103_Library-master/Seekfree_CH32V103R8T6_Opensource_Library/Libraries/seekfree_libraries/zf_pwm.c:35
//  @param      pwmch       PWM通道(可选择范围由zf_pwm.h内PWMCH_enum枚举值确定)
//  @return     void
//  Sample usage:           内部使用  用户无需关心
//-------------------------------------------------------------------------------------------------------------------
void timer_pwm_gpio_init(PWMCH_enum pwmch)
{
    33e0:	1101                	addi	sp,sp,-32
    33e2:	ce06                	sw	ra,28(sp)
    33e4:	cc22                	sw	s0,24(sp)
    33e6:	1000                	addi	s0,sp,32
    33e8:	fea42623          	sw	a0,-20(s0)
    33ec:	fec42703          	lw	a4,-20(s0)
    33f0:	20000793          	li	a5,512
    33f4:	24f70763          	beq	a4,a5,3642 <timer_pwm_gpio_init+0x262>
    33f8:	fec42703          	lw	a4,-20(s0)
    33fc:	20000793          	li	a5,512
    3400:	0ae7ea63          	bltu	a5,a4,34b4 <timer_pwm_gpio_init+0xd4>
    3404:	fec42703          	lw	a4,-20(s0)
    3408:	10100793          	li	a5,257
    340c:	1cf70063          	beq	a4,a5,35cc <timer_pwm_gpio_init+0x1ec>
    3410:	fec42703          	lw	a4,-20(s0)
    3414:	10100793          	li	a5,257
    3418:	04e7e263          	bltu	a5,a4,345c <timer_pwm_gpio_init+0x7c>
    341c:	fec42703          	lw	a4,-20(s0)
    3420:	4789                	li	a5,2
    3422:	16f70d63          	beq	a4,a5,359c <timer_pwm_gpio_init+0x1bc>
    3426:	fec42703          	lw	a4,-20(s0)
    342a:	4789                	li	a5,2
    342c:	00e7ec63          	bltu	a5,a4,3444 <timer_pwm_gpio_init+0x64>
    3430:	fec42783          	lw	a5,-20(s0)
    3434:	14078463          	beqz	a5,357c <timer_pwm_gpio_init+0x19c>
    3438:	fec42703          	lw	a4,-20(s0)
    343c:	4785                	li	a5,1
    343e:	14f70763          	beq	a4,a5,358c <timer_pwm_gpio_init+0x1ac>
E:/桌面/19th智能车/单片机培训、考核/CH32V103_Library-master/Seekfree_CH32V103R8T6_Opensource_Library/Libraries/seekfree_libraries/zf_pwm.c:145
        case PWM4_CH4_B9:
            gpio_init(B9, GPO, 0, SPEED_50MHZ|OUT_AF_PP);
            break;
        default:
            //断言
            break;
    3442:	ace5                	j	373a <timer_pwm_gpio_init+0x35a>
    3444:	fec42703          	lw	a4,-20(s0)
    3448:	478d                	li	a5,3
    344a:	16f70163          	beq	a4,a5,35ac <timer_pwm_gpio_init+0x1cc>
    344e:	fec42703          	lw	a4,-20(s0)
    3452:	10000793          	li	a5,256
    3456:	16f70363          	beq	a4,a5,35bc <timer_pwm_gpio_init+0x1dc>
    345a:	a4c5                	j	373a <timer_pwm_gpio_init+0x35a>
    345c:	fec42703          	lw	a4,-20(s0)
    3460:	11000793          	li	a5,272
    3464:	18f70c63          	beq	a4,a5,35fc <timer_pwm_gpio_init+0x21c>
    3468:	fec42703          	lw	a4,-20(s0)
    346c:	11000793          	li	a5,272
    3470:	00e7ef63          	bltu	a5,a4,348e <timer_pwm_gpio_init+0xae>
    3474:	fec42703          	lw	a4,-20(s0)
    3478:	10200793          	li	a5,258
    347c:	16f70063          	beq	a4,a5,35dc <timer_pwm_gpio_init+0x1fc>
    3480:	fec42703          	lw	a4,-20(s0)
    3484:	10300793          	li	a5,259
    3488:	16f70263          	beq	a4,a5,35ec <timer_pwm_gpio_init+0x20c>
    348c:	a47d                	j	373a <timer_pwm_gpio_init+0x35a>
    348e:	fec42703          	lw	a4,-20(s0)
    3492:	11200793          	li	a5,274
    3496:	18f70463          	beq	a4,a5,361e <timer_pwm_gpio_init+0x23e>
    349a:	fec42703          	lw	a4,-20(s0)
    349e:	11200793          	li	a5,274
    34a2:	16f76563          	bltu	a4,a5,360c <timer_pwm_gpio_init+0x22c>
    34a6:	fec42703          	lw	a4,-20(s0)
    34aa:	11300793          	li	a5,275
    34ae:	18f70163          	beq	a4,a5,3630 <timer_pwm_gpio_init+0x250>
    34b2:	a461                	j	373a <timer_pwm_gpio_init+0x35a>
    34b4:	fec42703          	lw	a4,-20(s0)
    34b8:	21300793          	li	a5,531
    34bc:	20f70063          	beq	a4,a5,36bc <timer_pwm_gpio_init+0x2dc>
    34c0:	fec42703          	lw	a4,-20(s0)
    34c4:	21300793          	li	a5,531
    34c8:	04e7ee63          	bltu	a5,a4,3524 <timer_pwm_gpio_init+0x144>
    34cc:	fec42703          	lw	a4,-20(s0)
    34d0:	20300793          	li	a5,515
    34d4:	1af70063          	beq	a4,a5,3674 <timer_pwm_gpio_init+0x294>
    34d8:	fec42703          	lw	a4,-20(s0)
    34dc:	20300793          	li	a5,515
    34e0:	00e7ef63          	bltu	a5,a4,34fe <timer_pwm_gpio_init+0x11e>
    34e4:	fec42703          	lw	a4,-20(s0)
    34e8:	20100793          	li	a5,513
    34ec:	16f70363          	beq	a4,a5,3652 <timer_pwm_gpio_init+0x272>
    34f0:	fec42703          	lw	a4,-20(s0)
    34f4:	20200793          	li	a5,514
    34f8:	16f70563          	beq	a4,a5,3662 <timer_pwm_gpio_init+0x282>
    34fc:	ac3d                	j	373a <timer_pwm_gpio_init+0x35a>
    34fe:	fec42703          	lw	a4,-20(s0)
    3502:	21100793          	li	a5,529
    3506:	18f70963          	beq	a4,a5,3698 <timer_pwm_gpio_init+0x2b8>
    350a:	fec42703          	lw	a4,-20(s0)
    350e:	21100793          	li	a5,529
    3512:	18e7ec63          	bltu	a5,a4,36aa <timer_pwm_gpio_init+0x2ca>
    3516:	fec42703          	lw	a4,-20(s0)
    351a:	21000793          	li	a5,528
    351e:	16f70463          	beq	a4,a5,3686 <timer_pwm_gpio_init+0x2a6>
    3522:	ac21                	j	373a <timer_pwm_gpio_init+0x35a>
    3524:	fec42703          	lw	a4,-20(s0)
    3528:	30000793          	li	a5,768
    352c:	1cf70363          	beq	a4,a5,36f2 <timer_pwm_gpio_init+0x312>
    3530:	fec42703          	lw	a4,-20(s0)
    3534:	30000793          	li	a5,768
    3538:	00e7ef63          	bltu	a5,a4,3556 <timer_pwm_gpio_init+0x176>
    353c:	fec42703          	lw	a4,-20(s0)
    3540:	22000793          	li	a5,544
    3544:	18f70563          	beq	a4,a5,36ce <timer_pwm_gpio_init+0x2ee>
    3548:	fec42703          	lw	a4,-20(s0)
    354c:	22100793          	li	a5,545
    3550:	18f70863          	beq	a4,a5,36e0 <timer_pwm_gpio_init+0x300>
    3554:	a2dd                	j	373a <timer_pwm_gpio_init+0x35a>
    3556:	fec42703          	lw	a4,-20(s0)
    355a:	30200793          	li	a5,770
    355e:	1af70c63          	beq	a4,a5,3716 <timer_pwm_gpio_init+0x336>
    3562:	fec42703          	lw	a4,-20(s0)
    3566:	30200793          	li	a5,770
    356a:	18f76d63          	bltu	a4,a5,3704 <timer_pwm_gpio_init+0x324>
    356e:	fec42703          	lw	a4,-20(s0)
    3572:	30300793          	li	a5,771
    3576:	1af70963          	beq	a4,a5,3728 <timer_pwm_gpio_init+0x348>
    357a:	a2c1                	j	373a <timer_pwm_gpio_init+0x35a>
E:/桌面/19th智能车/单片机培训、考核/CH32V103_Library-master/Seekfree_CH32V103R8T6_Opensource_Library/Libraries/seekfree_libraries/zf_pwm.c:40
            gpio_init(A8, GPO, 0, SPEED_50MHZ|OUT_AF_PP);
    357c:	31800693          	li	a3,792
    3580:	4601                	li	a2,0
    3582:	4585                	li	a1,1
    3584:	4521                	li	a0,8
    3586:	ba5ff0ef          	jal	ra,312a <gpio_init>
E:/桌面/19th智能车/单片机培训、考核/CH32V103_Library-master/Seekfree_CH32V103R8T6_Opensource_Library/Libraries/seekfree_libraries/zf_pwm.c:41
            break;
    358a:	aa45                	j	373a <timer_pwm_gpio_init+0x35a>
E:/桌面/19th智能车/单片机培训、考核/CH32V103_Library-master/Seekfree_CH32V103R8T6_Opensource_Library/Libraries/seekfree_libraries/zf_pwm.c:43
            gpio_init(A9, GPO, 0, SPEED_50MHZ|OUT_AF_PP);
    358c:	31800693          	li	a3,792
    3590:	4601                	li	a2,0
    3592:	4585                	li	a1,1
    3594:	4525                	li	a0,9
    3596:	b95ff0ef          	jal	ra,312a <gpio_init>
E:/桌面/19th智能车/单片机培训、考核/CH32V103_Library-master/Seekfree_CH32V103R8T6_Opensource_Library/Libraries/seekfree_libraries/zf_pwm.c:44
            break;
    359a:	a245                	j	373a <timer_pwm_gpio_init+0x35a>
E:/桌面/19th智能车/单片机培训、考核/CH32V103_Library-master/Seekfree_CH32V103R8T6_Opensource_Library/Libraries/seekfree_libraries/zf_pwm.c:46
            gpio_init(A10, GPO, 0, SPEED_50MHZ|OUT_AF_PP);
    359c:	31800693          	li	a3,792
    35a0:	4601                	li	a2,0
    35a2:	4585                	li	a1,1
    35a4:	4529                	li	a0,10
    35a6:	b85ff0ef          	jal	ra,312a <gpio_init>
E:/桌面/19th智能车/单片机培训、考核/CH32V103_Library-master/Seekfree_CH32V103R8T6_Opensource_Library/Libraries/seekfree_libraries/zf_pwm.c:47
            break;
    35aa:	aa41                	j	373a <timer_pwm_gpio_init+0x35a>
E:/桌面/19th智能车/单片机培训、考核/CH32V103_Library-master/Seekfree_CH32V103R8T6_Opensource_Library/Libraries/seekfree_libraries/zf_pwm.c:49
            gpio_init(A11, GPO, 0, SPEED_50MHZ|OUT_AF_PP);
    35ac:	31800693          	li	a3,792
    35b0:	4601                	li	a2,0
    35b2:	4585                	li	a1,1
    35b4:	452d                	li	a0,11
    35b6:	b75ff0ef          	jal	ra,312a <gpio_init>
E:/桌面/19th智能车/单片机培训、考核/CH32V103_Library-master/Seekfree_CH32V103R8T6_Opensource_Library/Libraries/seekfree_libraries/zf_pwm.c:50
            break;
    35ba:	a241                	j	373a <timer_pwm_gpio_init+0x35a>
E:/桌面/19th智能车/单片机培训、考核/CH32V103_Library-master/Seekfree_CH32V103R8T6_Opensource_Library/Libraries/seekfree_libraries/zf_pwm.c:73
            gpio_init(A0, GPO, 0, SPEED_50MHZ|OUT_AF_PP);
    35bc:	31800693          	li	a3,792
    35c0:	4601                	li	a2,0
    35c2:	4585                	li	a1,1
    35c4:	4501                	li	a0,0
    35c6:	b65ff0ef          	jal	ra,312a <gpio_init>
E:/桌面/19th智能车/单片机培训、考核/CH32V103_Library-master/Seekfree_CH32V103R8T6_Opensource_Library/Libraries/seekfree_libraries/zf_pwm.c:74
            break;
    35ca:	aa85                	j	373a <timer_pwm_gpio_init+0x35a>
E:/桌面/19th智能车/单片机培训、考核/CH32V103_Library-master/Seekfree_CH32V103R8T6_Opensource_Library/Libraries/seekfree_libraries/zf_pwm.c:76
            gpio_init(A1, GPO, 0, SPEED_50MHZ|OUT_AF_PP);
    35cc:	31800693          	li	a3,792
    35d0:	4601                	li	a2,0
    35d2:	4585                	li	a1,1
    35d4:	4505                	li	a0,1
    35d6:	b55ff0ef          	jal	ra,312a <gpio_init>
E:/桌面/19th智能车/单片机培训、考核/CH32V103_Library-master/Seekfree_CH32V103R8T6_Opensource_Library/Libraries/seekfree_libraries/zf_pwm.c:77
            break;
    35da:	a285                	j	373a <timer_pwm_gpio_init+0x35a>
E:/桌面/19th智能车/单片机培训、考核/CH32V103_Library-master/Seekfree_CH32V103R8T6_Opensource_Library/Libraries/seekfree_libraries/zf_pwm.c:79
            gpio_init(A2, GPO, 0, SPEED_50MHZ|OUT_AF_PP);
    35dc:	31800693          	li	a3,792
    35e0:	4601                	li	a2,0
    35e2:	4585                	li	a1,1
    35e4:	4509                	li	a0,2
    35e6:	b45ff0ef          	jal	ra,312a <gpio_init>
E:/桌面/19th智能车/单片机培训、考核/CH32V103_Library-master/Seekfree_CH32V103R8T6_Opensource_Library/Libraries/seekfree_libraries/zf_pwm.c:80
            break;
    35ea:	aa81                	j	373a <timer_pwm_gpio_init+0x35a>
E:/桌面/19th智能车/单片机培训、考核/CH32V103_Library-master/Seekfree_CH32V103R8T6_Opensource_Library/Libraries/seekfree_libraries/zf_pwm.c:82
            gpio_init(A3, GPO, 0, SPEED_50MHZ|OUT_AF_PP);
    35ec:	31800693          	li	a3,792
    35f0:	4601                	li	a2,0
    35f2:	4585                	li	a1,1
    35f4:	450d                	li	a0,3
    35f6:	b35ff0ef          	jal	ra,312a <gpio_init>
E:/桌面/19th智能车/单片机培训、考核/CH32V103_Library-master/Seekfree_CH32V103R8T6_Opensource_Library/Libraries/seekfree_libraries/zf_pwm.c:83
            break;
    35fa:	a281                	j	373a <timer_pwm_gpio_init+0x35a>
E:/桌面/19th智能车/单片机培训、考核/CH32V103_Library-master/Seekfree_CH32V103R8T6_Opensource_Library/Libraries/seekfree_libraries/zf_pwm.c:86
            gpio_init(A15, GPO, 0, SPEED_50MHZ|OUT_AF_PP);
    35fc:	31800693          	li	a3,792
    3600:	4601                	li	a2,0
    3602:	4585                	li	a1,1
    3604:	453d                	li	a0,15
    3606:	b25ff0ef          	jal	ra,312a <gpio_init>
E:/桌面/19th智能车/单片机培训、考核/CH32V103_Library-master/Seekfree_CH32V103R8T6_Opensource_Library/Libraries/seekfree_libraries/zf_pwm.c:87
            break;
    360a:	aa05                	j	373a <timer_pwm_gpio_init+0x35a>
E:/桌面/19th智能车/单片机培训、考核/CH32V103_Library-master/Seekfree_CH32V103R8T6_Opensource_Library/Libraries/seekfree_libraries/zf_pwm.c:89
            gpio_init(B3, GPO, 0, SPEED_50MHZ|OUT_AF_PP);
    360c:	31800693          	li	a3,792
    3610:	4601                	li	a2,0
    3612:	4585                	li	a1,1
    3614:	02300513          	li	a0,35
    3618:	b13ff0ef          	jal	ra,312a <gpio_init>
E:/桌面/19th智能车/单片机培训、考核/CH32V103_Library-master/Seekfree_CH32V103R8T6_Opensource_Library/Libraries/seekfree_libraries/zf_pwm.c:90
            break;
    361c:	aa39                	j	373a <timer_pwm_gpio_init+0x35a>
E:/桌面/19th智能车/单片机培训、考核/CH32V103_Library-master/Seekfree_CH32V103R8T6_Opensource_Library/Libraries/seekfree_libraries/zf_pwm.c:92
            gpio_init(B10, GPO, 0, SPEED_50MHZ|OUT_AF_PP);
    361e:	31800693          	li	a3,792
    3622:	4601                	li	a2,0
    3624:	4585                	li	a1,1
    3626:	02a00513          	li	a0,42
    362a:	b01ff0ef          	jal	ra,312a <gpio_init>
E:/桌面/19th智能车/单片机培训、考核/CH32V103_Library-master/Seekfree_CH32V103R8T6_Opensource_Library/Libraries/seekfree_libraries/zf_pwm.c:93
            break;
    362e:	a231                	j	373a <timer_pwm_gpio_init+0x35a>
E:/桌面/19th智能车/单片机培训、考核/CH32V103_Library-master/Seekfree_CH32V103R8T6_Opensource_Library/Libraries/seekfree_libraries/zf_pwm.c:95
            gpio_init(B11, GPO, 0, SPEED_50MHZ|OUT_AF_PP);
    3630:	31800693          	li	a3,792
    3634:	4601                	li	a2,0
    3636:	4585                	li	a1,1
    3638:	02b00513          	li	a0,43
    363c:	aefff0ef          	jal	ra,312a <gpio_init>
E:/桌面/19th智能车/单片机培训、考核/CH32V103_Library-master/Seekfree_CH32V103R8T6_Opensource_Library/Libraries/seekfree_libraries/zf_pwm.c:96
            break;
    3640:	a8ed                	j	373a <timer_pwm_gpio_init+0x35a>
E:/桌面/19th智能车/单片机培训、考核/CH32V103_Library-master/Seekfree_CH32V103R8T6_Opensource_Library/Libraries/seekfree_libraries/zf_pwm.c:99
            gpio_init(A6, GPO, 0, SPEED_50MHZ|OUT_AF_PP);
    3642:	31800693          	li	a3,792
    3646:	4601                	li	a2,0
    3648:	4585                	li	a1,1
    364a:	4519                	li	a0,6
    364c:	adfff0ef          	jal	ra,312a <gpio_init>
E:/桌面/19th智能车/单片机培训、考核/CH32V103_Library-master/Seekfree_CH32V103R8T6_Opensource_Library/Libraries/seekfree_libraries/zf_pwm.c:100
            break;
    3650:	a0ed                	j	373a <timer_pwm_gpio_init+0x35a>
E:/桌面/19th智能车/单片机培训、考核/CH32V103_Library-master/Seekfree_CH32V103R8T6_Opensource_Library/Libraries/seekfree_libraries/zf_pwm.c:102
            gpio_init(A7, GPO, 0, SPEED_50MHZ|OUT_AF_PP);
    3652:	31800693          	li	a3,792
    3656:	4601                	li	a2,0
    3658:	4585                	li	a1,1
    365a:	451d                	li	a0,7
    365c:	acfff0ef          	jal	ra,312a <gpio_init>
E:/桌面/19th智能车/单片机培训、考核/CH32V103_Library-master/Seekfree_CH32V103R8T6_Opensource_Library/Libraries/seekfree_libraries/zf_pwm.c:103
            break;
    3660:	a8e9                	j	373a <timer_pwm_gpio_init+0x35a>
E:/桌面/19th智能车/单片机培训、考核/CH32V103_Library-master/Seekfree_CH32V103R8T6_Opensource_Library/Libraries/seekfree_libraries/zf_pwm.c:105
            gpio_init(B0, GPO, 0, SPEED_50MHZ|OUT_AF_PP);
    3662:	31800693          	li	a3,792
    3666:	4601                	li	a2,0
    3668:	4585                	li	a1,1
    366a:	02000513          	li	a0,32
    366e:	abdff0ef          	jal	ra,312a <gpio_init>
E:/桌面/19th智能车/单片机培训、考核/CH32V103_Library-master/Seekfree_CH32V103R8T6_Opensource_Library/Libraries/seekfree_libraries/zf_pwm.c:106
            break;
    3672:	a0e1                	j	373a <timer_pwm_gpio_init+0x35a>
E:/桌面/19th智能车/单片机培训、考核/CH32V103_Library-master/Seekfree_CH32V103R8T6_Opensource_Library/Libraries/seekfree_libraries/zf_pwm.c:108
            gpio_init(B1, GPO, 0, SPEED_50MHZ|OUT_AF_PP);
    3674:	31800693          	li	a3,792
    3678:	4601                	li	a2,0
    367a:	4585                	li	a1,1
    367c:	02100513          	li	a0,33
    3680:	aabff0ef          	jal	ra,312a <gpio_init>
E:/桌面/19th智能车/单片机培训、考核/CH32V103_Library-master/Seekfree_CH32V103R8T6_Opensource_Library/Libraries/seekfree_libraries/zf_pwm.c:109
            break;
    3684:	a85d                	j	373a <timer_pwm_gpio_init+0x35a>
E:/桌面/19th智能车/单片机培训、考核/CH32V103_Library-master/Seekfree_CH32V103R8T6_Opensource_Library/Libraries/seekfree_libraries/zf_pwm.c:112
            gpio_init(C6, GPO, 0, SPEED_50MHZ|OUT_AF_PP);
    3686:	31800693          	li	a3,792
    368a:	4601                	li	a2,0
    368c:	4585                	li	a1,1
    368e:	04600513          	li	a0,70
    3692:	a99ff0ef          	jal	ra,312a <gpio_init>
E:/桌面/19th智能车/单片机培训、考核/CH32V103_Library-master/Seekfree_CH32V103R8T6_Opensource_Library/Libraries/seekfree_libraries/zf_pwm.c:113
            break;
    3696:	a055                	j	373a <timer_pwm_gpio_init+0x35a>
E:/桌面/19th智能车/单片机培训、考核/CH32V103_Library-master/Seekfree_CH32V103R8T6_Opensource_Library/Libraries/seekfree_libraries/zf_pwm.c:115
            gpio_init(C7, GPO, 0, SPEED_50MHZ|OUT_AF_PP);
    3698:	31800693          	li	a3,792
    369c:	4601                	li	a2,0
    369e:	4585                	li	a1,1
    36a0:	04700513          	li	a0,71
    36a4:	a87ff0ef          	jal	ra,312a <gpio_init>
E:/桌面/19th智能车/单片机培训、考核/CH32V103_Library-master/Seekfree_CH32V103R8T6_Opensource_Library/Libraries/seekfree_libraries/zf_pwm.c:116
            break;
    36a8:	a849                	j	373a <timer_pwm_gpio_init+0x35a>
E:/桌面/19th智能车/单片机培训、考核/CH32V103_Library-master/Seekfree_CH32V103R8T6_Opensource_Library/Libraries/seekfree_libraries/zf_pwm.c:118
            gpio_init(C8, GPO, 0, SPEED_50MHZ|OUT_AF_PP);
    36aa:	31800693          	li	a3,792
    36ae:	4601                	li	a2,0
    36b0:	4585                	li	a1,1
    36b2:	04800513          	li	a0,72
    36b6:	a75ff0ef          	jal	ra,312a <gpio_init>
E:/桌面/19th智能车/单片机培训、考核/CH32V103_Library-master/Seekfree_CH32V103R8T6_Opensource_Library/Libraries/seekfree_libraries/zf_pwm.c:119
            break;
    36ba:	a041                	j	373a <timer_pwm_gpio_init+0x35a>
E:/桌面/19th智能车/单片机培训、考核/CH32V103_Library-master/Seekfree_CH32V103R8T6_Opensource_Library/Libraries/seekfree_libraries/zf_pwm.c:121
            gpio_init(C9, GPO, 0, SPEED_50MHZ|OUT_AF_PP);
    36bc:	31800693          	li	a3,792
    36c0:	4601                	li	a2,0
    36c2:	4585                	li	a1,1
    36c4:	04900513          	li	a0,73
    36c8:	a63ff0ef          	jal	ra,312a <gpio_init>
E:/桌面/19th智能车/单片机培训、考核/CH32V103_Library-master/Seekfree_CH32V103R8T6_Opensource_Library/Libraries/seekfree_libraries/zf_pwm.c:122
            break;
    36cc:	a0bd                	j	373a <timer_pwm_gpio_init+0x35a>
E:/桌面/19th智能车/单片机培训、考核/CH32V103_Library-master/Seekfree_CH32V103R8T6_Opensource_Library/Libraries/seekfree_libraries/zf_pwm.c:125
            gpio_init(B4, GPO, 0, SPEED_50MHZ|OUT_AF_PP);
    36ce:	31800693          	li	a3,792
    36d2:	4601                	li	a2,0
    36d4:	4585                	li	a1,1
    36d6:	02400513          	li	a0,36
    36da:	a51ff0ef          	jal	ra,312a <gpio_init>
E:/桌面/19th智能车/单片机培训、考核/CH32V103_Library-master/Seekfree_CH32V103R8T6_Opensource_Library/Libraries/seekfree_libraries/zf_pwm.c:126
            break;
    36de:	a8b1                	j	373a <timer_pwm_gpio_init+0x35a>
E:/桌面/19th智能车/单片机培训、考核/CH32V103_Library-master/Seekfree_CH32V103R8T6_Opensource_Library/Libraries/seekfree_libraries/zf_pwm.c:128
            gpio_init(B5, GPO, 0, SPEED_50MHZ|OUT_AF_PP);
    36e0:	31800693          	li	a3,792
    36e4:	4601                	li	a2,0
    36e6:	4585                	li	a1,1
    36e8:	02500513          	li	a0,37
    36ec:	a3fff0ef          	jal	ra,312a <gpio_init>
E:/桌面/19th智能车/单片机培训、考核/CH32V103_Library-master/Seekfree_CH32V103R8T6_Opensource_Library/Libraries/seekfree_libraries/zf_pwm.c:129
            break;
    36f0:	a0a9                	j	373a <timer_pwm_gpio_init+0x35a>
E:/桌面/19th智能车/单片机培训、考核/CH32V103_Library-master/Seekfree_CH32V103R8T6_Opensource_Library/Libraries/seekfree_libraries/zf_pwm.c:132
            gpio_init(B6, GPO, 0, SPEED_50MHZ|OUT_AF_PP);
    36f2:	31800693          	li	a3,792
    36f6:	4601                	li	a2,0
    36f8:	4585                	li	a1,1
    36fa:	02600513          	li	a0,38
    36fe:	a2dff0ef          	jal	ra,312a <gpio_init>
E:/桌面/19th智能车/单片机培训、考核/CH32V103_Library-master/Seekfree_CH32V103R8T6_Opensource_Library/Libraries/seekfree_libraries/zf_pwm.c:133
            break;
    3702:	a825                	j	373a <timer_pwm_gpio_init+0x35a>
E:/桌面/19th智能车/单片机培训、考核/CH32V103_Library-master/Seekfree_CH32V103R8T6_Opensource_Library/Libraries/seekfree_libraries/zf_pwm.c:135
            gpio_init(B7, GPO, 0, SPEED_50MHZ|OUT_AF_PP);
    3704:	31800693          	li	a3,792
    3708:	4601                	li	a2,0
    370a:	4585                	li	a1,1
    370c:	02700513          	li	a0,39
    3710:	a1bff0ef          	jal	ra,312a <gpio_init>
E:/桌面/19th智能车/单片机培训、考核/CH32V103_Library-master/Seekfree_CH32V103R8T6_Opensource_Library/Libraries/seekfree_libraries/zf_pwm.c:136
            break;
    3714:	a01d                	j	373a <timer_pwm_gpio_init+0x35a>
E:/桌面/19th智能车/单片机培训、考核/CH32V103_Library-master/Seekfree_CH32V103R8T6_Opensource_Library/Libraries/seekfree_libraries/zf_pwm.c:138
            gpio_init(B8, GPO, 0, SPEED_50MHZ|OUT_AF_PP);
    3716:	31800693          	li	a3,792
    371a:	4601                	li	a2,0
    371c:	4585                	li	a1,1
    371e:	02800513          	li	a0,40
    3722:	a09ff0ef          	jal	ra,312a <gpio_init>
E:/桌面/19th智能车/单片机培训、考核/CH32V103_Library-master/Seekfree_CH32V103R8T6_Opensource_Library/Libraries/seekfree_libraries/zf_pwm.c:139
            break;
    3726:	a811                	j	373a <timer_pwm_gpio_init+0x35a>
E:/桌面/19th智能车/单片机培训、考核/CH32V103_Library-master/Seekfree_CH32V103R8T6_Opensource_Library/Libraries/seekfree_libraries/zf_pwm.c:141
            gpio_init(B9, GPO, 0, SPEED_50MHZ|OUT_AF_PP);
    3728:	31800693          	li	a3,792
    372c:	4601                	li	a2,0
    372e:	4585                	li	a1,1
    3730:	02900513          	li	a0,41
    3734:	9f7ff0ef          	jal	ra,312a <gpio_init>
E:/桌面/19th智能车/单片机培训、考核/CH32V103_Library-master/Seekfree_CH32V103R8T6_Opensource_Library/Libraries/seekfree_libraries/zf_pwm.c:142
            break;
    3738:	0001                	nop
E:/桌面/19th智能车/单片机培训、考核/CH32V103_Library-master/Seekfree_CH32V103R8T6_Opensource_Library/Libraries/seekfree_libraries/zf_pwm.c:147
    }
}
    373a:	0001                	nop
    373c:	40f2                	lw	ra,28(sp)
    373e:	4462                	lw	s0,24(sp)
    3740:	6105                	addi	sp,sp,32
    3742:	8082                	ret

00003744 <timer_pwm_init>:
timer_pwm_init():
E:/桌面/19th智能车/单片机培训、考核/CH32V103_Library-master/Seekfree_CH32V103R8T6_Opensource_Library/Libraries/seekfree_libraries/zf_pwm.c:165
//  @return     void
//  Sample usage:               pwm_init(PWM1_CH1_A8, 50, 5000);   //初始化PWM1 通道1 使用引脚A8  输出PWM频率50HZ   占空比为百分之 5000/PWM_DUTY_MAX*100
//                              PWM_DUTY_MAX在zf_pwm.h文件中 默认为10000
//-------------------------------------------------------------------------------------------------------------------
void timer_pwm_init(PWMCH_enum pwmch, uint32 freq, uint32 duty)
{
    3744:	7139                	addi	sp,sp,-64
    3746:	de06                	sw	ra,60(sp)
    3748:	dc22                	sw	s0,56(sp)
    374a:	0080                	addi	s0,sp,64
    374c:	fca42623          	sw	a0,-52(s0)
    3750:	fcb42423          	sw	a1,-56(s0)
    3754:	fcc42223          	sw	a2,-60(s0)
E:/桌面/19th智能车/单片机培训、考核/CH32V103_Library-master/Seekfree_CH32V103R8T6_Opensource_Library/Libraries/seekfree_libraries/zf_pwm.c:170
    TIM_TimeBaseInitTypeDef  TIM_TimeBaseStructure;
    TIM_OCInitTypeDef  TIM_OCInitStructure;
    uint16 match_temp;                                          //占空比值
    uint16 period_temp;                                         //周期值
    uint16 freq_div = 0;                                        //分频值
    3758:	fe041723          	sh	zero,-18(s0)
E:/桌面/19th智能车/单片机培训、考核/CH32V103_Library-master/Seekfree_CH32V103R8T6_Opensource_Library/Libraries/seekfree_libraries/zf_pwm.c:172

    timer_pwm_gpio_init(pwmch);                                       //PWM引脚初始化
    375c:	fcc42503          	lw	a0,-52(s0)
    3760:	c81ff0ef          	jal	ra,33e0 <timer_pwm_gpio_init>
E:/桌面/19th智能车/单片机培训、考核/CH32V103_Library-master/Seekfree_CH32V103R8T6_Opensource_Library/Libraries/seekfree_libraries/zf_pwm.c:174

    if((pwmch >> 8) == 0x00)
    3764:	fcc42783          	lw	a5,-52(s0)
    3768:	83a1                	srli	a5,a5,0x8
    376a:	eb81                	bnez	a5,377a <timer_pwm_init+0x36>
E:/桌面/19th智能车/单片机培训、考核/CH32V103_Library-master/Seekfree_CH32V103R8T6_Opensource_Library/Libraries/seekfree_libraries/zf_pwm.c:175
        RCC_APB2PeriphClockCmd(RCC_APB2Periph_TIM1, ENABLE);    //使能定时器1时钟
    376c:	4585                	li	a1,1
    376e:	6785                	lui	a5,0x1
    3770:	80078513          	addi	a0,a5,-2048 # 800 <__stack_size>
    3774:	f4afd0ef          	jal	ra,ebe <RCC_APB2PeriphClockCmd>
    3778:	a0a1                	j	37c0 <timer_pwm_init+0x7c>
E:/桌面/19th智能车/单片机培训、考核/CH32V103_Library-master/Seekfree_CH32V103R8T6_Opensource_Library/Libraries/seekfree_libraries/zf_pwm.c:176
    else if((pwmch >> 8) == 0x01)
    377a:	fcc42783          	lw	a5,-52(s0)
    377e:	0087d713          	srli	a4,a5,0x8
    3782:	4785                	li	a5,1
    3784:	00f71763          	bne	a4,a5,3792 <timer_pwm_init+0x4e>
E:/桌面/19th智能车/单片机培训、考核/CH32V103_Library-master/Seekfree_CH32V103R8T6_Opensource_Library/Libraries/seekfree_libraries/zf_pwm.c:177
        RCC_APB1PeriphClockCmd(RCC_APB1Periph_TIM2, ENABLE);    //使能定时器2时钟
    3788:	4585                	li	a1,1
    378a:	4505                	li	a0,1
    378c:	f78fd0ef          	jal	ra,f04 <RCC_APB1PeriphClockCmd>
    3790:	a805                	j	37c0 <timer_pwm_init+0x7c>
E:/桌面/19th智能车/单片机培训、考核/CH32V103_Library-master/Seekfree_CH32V103R8T6_Opensource_Library/Libraries/seekfree_libraries/zf_pwm.c:178
    else if((pwmch >> 8) == 0x02)
    3792:	fcc42783          	lw	a5,-52(s0)
    3796:	0087d713          	srli	a4,a5,0x8
    379a:	4789                	li	a5,2
    379c:	00f71763          	bne	a4,a5,37aa <timer_pwm_init+0x66>
E:/桌面/19th智能车/单片机培训、考核/CH32V103_Library-master/Seekfree_CH32V103R8T6_Opensource_Library/Libraries/seekfree_libraries/zf_pwm.c:179
        RCC_APB1PeriphClockCmd(RCC_APB1Periph_TIM3, ENABLE);    //使能定时器3时钟
    37a0:	4585                	li	a1,1
    37a2:	4509                	li	a0,2
    37a4:	f60fd0ef          	jal	ra,f04 <RCC_APB1PeriphClockCmd>
    37a8:	a821                	j	37c0 <timer_pwm_init+0x7c>
E:/桌面/19th智能车/单片机培训、考核/CH32V103_Library-master/Seekfree_CH32V103R8T6_Opensource_Library/Libraries/seekfree_libraries/zf_pwm.c:180
    else if((pwmch >> 8) == 0x03)
    37aa:	fcc42783          	lw	a5,-52(s0)
    37ae:	0087d713          	srli	a4,a5,0x8
    37b2:	478d                	li	a5,3
    37b4:	00f71663          	bne	a4,a5,37c0 <timer_pwm_init+0x7c>
E:/桌面/19th智能车/单片机培训、考核/CH32V103_Library-master/Seekfree_CH32V103R8T6_Opensource_Library/Libraries/seekfree_libraries/zf_pwm.c:181
        RCC_APB1PeriphClockCmd(RCC_APB1Periph_TIM4, ENABLE);    //使能定时器4时钟
    37b8:	4585                	li	a1,1
    37ba:	4511                	li	a0,4
    37bc:	f48fd0ef          	jal	ra,f04 <RCC_APB1PeriphClockCmd>
E:/桌面/19th智能车/单片机培训、考核/CH32V103_Library-master/Seekfree_CH32V103R8T6_Opensource_Library/Libraries/seekfree_libraries/zf_pwm.c:183

    RCC_APB2PeriphClockCmd(RCC_APB2Periph_AFIO, ENABLE);        //使能AFIO复用功能模块时钟
    37c0:	4585                	li	a1,1
    37c2:	4505                	li	a0,1
    37c4:	efafd0ef          	jal	ra,ebe <RCC_APB2PeriphClockCmd>
E:/桌面/19th智能车/单片机培训、考核/CH32V103_Library-master/Seekfree_CH32V103R8T6_Opensource_Library/Libraries/seekfree_libraries/zf_pwm.c:186

    //引脚重映射
    if((pwmch >> 4) == 0x10)        //PWM1的部分重映射
    37c8:	fcc42783          	lw	a5,-52(s0)
    37cc:	0047d713          	srli	a4,a5,0x4
    37d0:	47c1                	li	a5,16
    37d2:	00f71a63          	bne	a4,a5,37e6 <timer_pwm_init+0xa2>
E:/桌面/19th智能车/单片机培训、考核/CH32V103_Library-master/Seekfree_CH32V103R8T6_Opensource_Library/Libraries/seekfree_libraries/zf_pwm.c:187
        GPIO_PinRemapConfig(GPIO_PartialRemap_TIM1, ENABLE);
    37d6:	4585                	li	a1,1
    37d8:	001607b7          	lui	a5,0x160
    37dc:	04078513          	addi	a0,a5,64 # 160040 <_data_lma+0x158340>
    37e0:	b42fd0ef          	jal	ra,b22 <GPIO_PinRemapConfig>
    37e4:	a8b9                	j	3842 <timer_pwm_init+0xfe>
E:/桌面/19th智能车/单片机培训、考核/CH32V103_Library-master/Seekfree_CH32V103R8T6_Opensource_Library/Libraries/seekfree_libraries/zf_pwm.c:188
    else if((pwmch >> 4) == 0x11)   //PWM2的完全重映射
    37e6:	fcc42783          	lw	a5,-52(s0)
    37ea:	0047d713          	srli	a4,a5,0x4
    37ee:	47c5                	li	a5,17
    37f0:	00f71a63          	bne	a4,a5,3804 <timer_pwm_init+0xc0>
E:/桌面/19th智能车/单片机培训、考核/CH32V103_Library-master/Seekfree_CH32V103R8T6_Opensource_Library/Libraries/seekfree_libraries/zf_pwm.c:189
        GPIO_PinRemapConfig(GPIO_FullRemap_TIM2, ENABLE);
    37f4:	4585                	li	a1,1
    37f6:	001807b7          	lui	a5,0x180
    37fa:	30078513          	addi	a0,a5,768 # 180300 <_data_lma+0x178600>
    37fe:	b24fd0ef          	jal	ra,b22 <GPIO_PinRemapConfig>
    3802:	a081                	j	3842 <timer_pwm_init+0xfe>
E:/桌面/19th智能车/单片机培训、考核/CH32V103_Library-master/Seekfree_CH32V103R8T6_Opensource_Library/Libraries/seekfree_libraries/zf_pwm.c:190
    else if((pwmch >> 4) == 0x21)   //PWM3的完全重映射
    3804:	fcc42783          	lw	a5,-52(s0)
    3808:	0047d713          	srli	a4,a5,0x4
    380c:	02100793          	li	a5,33
    3810:	00f71a63          	bne	a4,a5,3824 <timer_pwm_init+0xe0>
E:/桌面/19th智能车/单片机培训、考核/CH32V103_Library-master/Seekfree_CH32V103R8T6_Opensource_Library/Libraries/seekfree_libraries/zf_pwm.c:191
        GPIO_PinRemapConfig(GPIO_FullRemap_TIM3, ENABLE);
    3814:	4585                	li	a1,1
    3816:	001a17b7          	lui	a5,0x1a1
    381a:	c0078513          	addi	a0,a5,-1024 # 1a0c00 <_data_lma+0x198f00>
    381e:	b04fd0ef          	jal	ra,b22 <GPIO_PinRemapConfig>
    3822:	a005                	j	3842 <timer_pwm_init+0xfe>
E:/桌面/19th智能车/单片机培训、考核/CH32V103_Library-master/Seekfree_CH32V103R8T6_Opensource_Library/Libraries/seekfree_libraries/zf_pwm.c:192
    else if((pwmch >> 4) == 0x22)   //PWM3的部分重映射
    3824:	fcc42783          	lw	a5,-52(s0)
    3828:	0047d713          	srli	a4,a5,0x4
    382c:	02200793          	li	a5,34
    3830:	00f71963          	bne	a4,a5,3842 <timer_pwm_init+0xfe>
E:/桌面/19th智能车/单片机培训、考核/CH32V103_Library-master/Seekfree_CH32V103R8T6_Opensource_Library/Libraries/seekfree_libraries/zf_pwm.c:193
        GPIO_PinRemapConfig(GPIO_PartialRemap_TIM3, ENABLE);
    3834:	4585                	li	a1,1
    3836:	001a17b7          	lui	a5,0x1a1
    383a:	80078513          	addi	a0,a5,-2048 # 1a0800 <_data_lma+0x198b00>
    383e:	ae4fd0ef          	jal	ra,b22 <GPIO_PinRemapConfig>
E:/桌面/19th智能车/单片机培训、考核/CH32V103_Library-master/Seekfree_CH32V103R8T6_Opensource_Library/Libraries/seekfree_libraries/zf_pwm.c:196

    //获取系统主频
    sys_clk = 8000000 * (((RCC->CFGR0 >> 18)&0x0F) + 2);
    3842:	400217b7          	lui	a5,0x40021
    3846:	43dc                	lw	a5,4(a5)
    3848:	83c9                	srli	a5,a5,0x12
    384a:	00f7f713          	andi	a4,a5,15
    384e:	007a17b7          	lui	a5,0x7a1
    3852:	20078793          	addi	a5,a5,512 # 7a1200 <_data_lma+0x799500>
    3856:	02f70733          	mul	a4,a4,a5
    385a:	00f427b7          	lui	a5,0xf42
    385e:	40078793          	addi	a5,a5,1024 # f42400 <_data_lma+0xf3a700>
    3862:	973e                	add	a4,a4,a5
    3864:	84e1a423          	sw	a4,-1976(gp) # 200000b8 <sys_clk>
E:/桌面/19th智能车/单片机培训、考核/CH32V103_Library-master/Seekfree_CH32V103R8T6_Opensource_Library/Libraries/seekfree_libraries/zf_pwm.c:198

    freq_div = (uint16)((sys_clk / freq) >> 16);                            //多少分频
    3868:	8481a703          	lw	a4,-1976(gp) # 200000b8 <sys_clk>
    386c:	fc842783          	lw	a5,-56(s0)
    3870:	02f757b3          	divu	a5,a4,a5
    3874:	83c1                	srli	a5,a5,0x10
    3876:	fef41723          	sh	a5,-18(s0)
E:/桌面/19th智能车/单片机培训、考核/CH32V103_Library-master/Seekfree_CH32V103R8T6_Opensource_Library/Libraries/seekfree_libraries/zf_pwm.c:199
    period_temp = (uint16)(sys_clk/(freq*(freq_div + 1)));                  //周期
    387a:	8481a703          	lw	a4,-1976(gp) # 200000b8 <sys_clk>
    387e:	fee45783          	lhu	a5,-18(s0)
    3882:	0785                	addi	a5,a5,1
    3884:	86be                	mv	a3,a5
    3886:	fc842783          	lw	a5,-56(s0)
    388a:	02f687b3          	mul	a5,a3,a5
    388e:	02f757b3          	divu	a5,a4,a5
    3892:	fef41623          	sh	a5,-20(s0)
E:/桌面/19th智能车/单片机培训、考核/CH32V103_Library-master/Seekfree_CH32V103R8T6_Opensource_Library/Libraries/seekfree_libraries/zf_pwm.c:200
    match_temp = period_temp * duty / PWM_DUTY_MAX;                         //占空比
    3896:	fec45703          	lhu	a4,-20(s0)
    389a:	fc442783          	lw	a5,-60(s0)
    389e:	02f70733          	mul	a4,a4,a5
    38a2:	6789                	lui	a5,0x2
    38a4:	71078793          	addi	a5,a5,1808 # 2710 <ips114_showchar+0x8a>
    38a8:	02f757b3          	divu	a5,a4,a5
    38ac:	fef41523          	sh	a5,-22(s0)
E:/桌面/19th智能车/单片机培训、考核/CH32V103_Library-master/Seekfree_CH32V103R8T6_Opensource_Library/Libraries/seekfree_libraries/zf_pwm.c:203

    //初始化TIM1-4
    TIM_TimeBaseStructure.TIM_Period = period_temp - 1;                     //设置在下一个更新事件装入活动的自动重装载寄存器周期的值
    38b0:	fec45783          	lhu	a5,-20(s0)
    38b4:	17fd                	addi	a5,a5,-1
    38b6:	07c2                	slli	a5,a5,0x10
    38b8:	83c1                	srli	a5,a5,0x10
    38ba:	fef41223          	sh	a5,-28(s0)
E:/桌面/19th智能车/单片机培训、考核/CH32V103_Library-master/Seekfree_CH32V103R8T6_Opensource_Library/Libraries/seekfree_libraries/zf_pwm.c:204
    TIM_TimeBaseStructure.TIM_Prescaler = freq_div;                         //设置用来作为TIMx时钟频率除数的预分频值
    38be:	fee45783          	lhu	a5,-18(s0)
    38c2:	fef41023          	sh	a5,-32(s0)
E:/桌面/19th智能车/单片机培训、考核/CH32V103_Library-master/Seekfree_CH32V103R8T6_Opensource_Library/Libraries/seekfree_libraries/zf_pwm.c:205
    TIM_TimeBaseStructure.TIM_ClockDivision = TIM_CKD_DIV1;                 //设置时钟分割:TDTS = Tck_tim
    38c6:	fe041323          	sh	zero,-26(s0)
E:/桌面/19th智能车/单片机培训、考核/CH32V103_Library-master/Seekfree_CH32V103R8T6_Opensource_Library/Libraries/seekfree_libraries/zf_pwm.c:206
    TIM_TimeBaseStructure.TIM_CounterMode = TIM_CounterMode_Up;             //TIM向上计数模式
    38ca:	fe041123          	sh	zero,-30(s0)
E:/桌面/19th智能车/单片机培训、考核/CH32V103_Library-master/Seekfree_CH32V103R8T6_Opensource_Library/Libraries/seekfree_libraries/zf_pwm.c:207
    TIM_TimeBaseStructure.TIM_RepetitionCounter = 0;
    38ce:	fe040423          	sb	zero,-24(s0)
E:/桌面/19th智能车/单片机培训、考核/CH32V103_Library-master/Seekfree_CH32V103R8T6_Opensource_Library/Libraries/seekfree_libraries/zf_pwm.c:210

    //初始化TIM1-4 PWM模式
    TIM_OCInitStructure.TIM_OCMode = TIM_OCMode_PWM2;                       //选择定时器模式:TIM脉冲宽度调制模式2
    38d2:	07000793          	li	a5,112
    38d6:	fcf41823          	sh	a5,-48(s0)
E:/桌面/19th智能车/单片机培训、考核/CH32V103_Library-master/Seekfree_CH32V103R8T6_Opensource_Library/Libraries/seekfree_libraries/zf_pwm.c:211
    TIM_OCInitStructure.TIM_OutputState = TIM_OutputState_Enable;           //比较输出使能
    38da:	4785                	li	a5,1
    38dc:	fcf41923          	sh	a5,-46(s0)
E:/桌面/19th智能车/单片机培训、考核/CH32V103_Library-master/Seekfree_CH32V103R8T6_Opensource_Library/Libraries/seekfree_libraries/zf_pwm.c:212
    TIM_OCInitStructure.TIM_OutputNState = TIM_OutputState_Disable;
    38e0:	fc041a23          	sh	zero,-44(s0)
E:/桌面/19th智能车/单片机培训、考核/CH32V103_Library-master/Seekfree_CH32V103R8T6_Opensource_Library/Libraries/seekfree_libraries/zf_pwm.c:213
    TIM_OCInitStructure.TIM_Pulse = match_temp;
    38e4:	fea45783          	lhu	a5,-22(s0)
    38e8:	fcf41b23          	sh	a5,-42(s0)
E:/桌面/19th智能车/单片机培训、考核/CH32V103_Library-master/Seekfree_CH32V103R8T6_Opensource_Library/Libraries/seekfree_libraries/zf_pwm.c:214
    TIM_OCInitStructure.TIM_OCPolarity = TIM_OCPolarity_Low;                //输出极性:TIM输出比较极性高
    38ec:	4789                	li	a5,2
    38ee:	fcf41c23          	sh	a5,-40(s0)
E:/桌面/19th智能车/单片机培训、考核/CH32V103_Library-master/Seekfree_CH32V103R8T6_Opensource_Library/Libraries/seekfree_libraries/zf_pwm.c:215
    TIM_OCInitStructure.TIM_OCNPolarity = TIM_OCPolarity_Low;               //输出极性:TIM输出比较极性高
    38f2:	4789                	li	a5,2
    38f4:	fcf41d23          	sh	a5,-38(s0)
E:/桌面/19th智能车/单片机培训、考核/CH32V103_Library-master/Seekfree_CH32V103R8T6_Opensource_Library/Libraries/seekfree_libraries/zf_pwm.c:216
    TIM_OCInitStructure.TIM_OCIdleState = TIM_OCIdleState_Reset;
    38f8:	fc041e23          	sh	zero,-36(s0)
E:/桌面/19th智能车/单片机培训、考核/CH32V103_Library-master/Seekfree_CH32V103R8T6_Opensource_Library/Libraries/seekfree_libraries/zf_pwm.c:217
    TIM_OCInitStructure.TIM_OCNIdleState = TIM_OCIdleState_Reset;
    38fc:	fc041f23          	sh	zero,-34(s0)
E:/桌面/19th智能车/单片机培训、考核/CH32V103_Library-master/Seekfree_CH32V103R8T6_Opensource_Library/Libraries/seekfree_libraries/zf_pwm.c:219

    TIM_TimeBaseInit(((TIM_TypeDef *) TIMERN[pwmch>>8]), &TIM_TimeBaseStructure);  //根据TIM_TimeBaseInitStruct中指定的参数初始化TIMx的时间基数单位
    3900:	fcc42783          	lw	a5,-52(s0)
    3904:	0087d713          	srli	a4,a5,0x8
    3908:	67a1                	lui	a5,0x8
    390a:	070a                	slli	a4,a4,0x2
    390c:	a8c78793          	addi	a5,a5,-1396 # 7a8c <TIMERN>
    3910:	97ba                	add	a5,a5,a4
    3912:	439c                	lw	a5,0(a5)
    3914:	873e                	mv	a4,a5
    3916:	fe040793          	addi	a5,s0,-32
    391a:	85be                	mv	a1,a5
    391c:	853a                	mv	a0,a4
    391e:	fc4fd0ef          	jal	ra,10e2 <TIM_TimeBaseInit>
E:/桌面/19th智能车/单片机培训、考核/CH32V103_Library-master/Seekfree_CH32V103R8T6_Opensource_Library/Libraries/seekfree_libraries/zf_pwm.c:225
//        if(PWM1_CH1N_B13 <= pwmch)                                         //该通道为N通道
//        {
//            TIM_OCInitStructure.TIM_OutputState = TIM_OutputState_Enable;   //P通道
//            TIM_OCInitStructure.TIM_OutputNState = TIM_OutputState_Enable;  //N通道
//        }
    if((pwmch & 0x03) == 0x00)                                          //通道选择
    3922:	fcc42783          	lw	a5,-52(s0)
    3926:	8b8d                	andi	a5,a5,3
    3928:	efb9                	bnez	a5,3986 <timer_pwm_init+0x242>
E:/桌面/19th智能车/单片机培训、考核/CH32V103_Library-master/Seekfree_CH32V103R8T6_Opensource_Library/Libraries/seekfree_libraries/zf_pwm.c:227
    {
        TIM_OC1Init(((TIM_TypeDef *) TIMERN[pwmch>>8]), &TIM_OCInitStructure );                       //定时器通道1初始化
    392a:	fcc42783          	lw	a5,-52(s0)
    392e:	0087d713          	srli	a4,a5,0x8
    3932:	67a1                	lui	a5,0x8
    3934:	070a                	slli	a4,a4,0x2
    3936:	a8c78793          	addi	a5,a5,-1396 # 7a8c <TIMERN>
    393a:	97ba                	add	a5,a5,a4
    393c:	439c                	lw	a5,0(a5)
    393e:	873e                	mv	a4,a5
    3940:	fd040793          	addi	a5,s0,-48
    3944:	85be                	mv	a1,a5
    3946:	853a                	mv	a0,a4
    3948:	895fd0ef          	jal	ra,11dc <TIM_OC1Init>
E:/桌面/19th智能车/单片机培训、考核/CH32V103_Library-master/Seekfree_CH32V103R8T6_Opensource_Library/Libraries/seekfree_libraries/zf_pwm.c:228
        TIM_OC1PreloadConfig(((TIM_TypeDef *) TIMERN[pwmch>>8]), TIM_OCPreload_Enable);               //定时器预装载配置
    394c:	fcc42783          	lw	a5,-52(s0)
    3950:	0087d713          	srli	a4,a5,0x8
    3954:	67a1                	lui	a5,0x8
    3956:	070a                	slli	a4,a4,0x2
    3958:	a8c78793          	addi	a5,a5,-1396 # 7a8c <TIMERN>
    395c:	97ba                	add	a5,a5,a4
    395e:	439c                	lw	a5,0(a5)
    3960:	45a1                	li	a1,8
    3962:	853e                	mv	a0,a5
    3964:	864fe0ef          	jal	ra,19c8 <TIM_OC1PreloadConfig>
E:/桌面/19th智能车/单片机培训、考核/CH32V103_Library-master/Seekfree_CH32V103R8T6_Opensource_Library/Libraries/seekfree_libraries/zf_pwm.c:229
        TIM_OC1FastConfig(((TIM_TypeDef *) TIMERN[pwmch>>8]), TIM_OC1FE);                             //比较捕获通道快速使能
    3968:	fcc42783          	lw	a5,-52(s0)
    396c:	0087d713          	srli	a4,a5,0x8
    3970:	67a1                	lui	a5,0x8
    3972:	070a                	slli	a4,a4,0x2
    3974:	a8c78793          	addi	a5,a5,-1396 # 7a8c <TIMERN>
    3978:	97ba                	add	a5,a5,a4
    397a:	439c                	lw	a5,0(a5)
    397c:	4591                	li	a1,4
    397e:	853e                	mv	a0,a5
    3980:	994fe0ef          	jal	ra,1b14 <TIM_OC1FastConfig>
    3984:	a289                	j	3ac6 <timer_pwm_init+0x382>
E:/桌面/19th智能车/单片机培训、考核/CH32V103_Library-master/Seekfree_CH32V103R8T6_Opensource_Library/Libraries/seekfree_libraries/zf_pwm.c:231
    }
    else if((pwmch & 0x03) == 0x01)
    3986:	fcc42783          	lw	a5,-52(s0)
    398a:	0037f713          	andi	a4,a5,3
    398e:	4785                	li	a5,1
    3990:	06f71163          	bne	a4,a5,39f2 <timer_pwm_init+0x2ae>
E:/桌面/19th智能车/单片机培训、考核/CH32V103_Library-master/Seekfree_CH32V103R8T6_Opensource_Library/Libraries/seekfree_libraries/zf_pwm.c:233
    {
        TIM_OC2Init(((TIM_TypeDef *) TIMERN[pwmch>>8]), &TIM_OCInitStructure );
    3994:	fcc42783          	lw	a5,-52(s0)
    3998:	0087d713          	srli	a4,a5,0x8
    399c:	67a1                	lui	a5,0x8
    399e:	070a                	slli	a4,a4,0x2
    39a0:	a8c78793          	addi	a5,a5,-1396 # 7a8c <TIMERN>
    39a4:	97ba                	add	a5,a5,a4
    39a6:	439c                	lw	a5,0(a5)
    39a8:	873e                	mv	a4,a5
    39aa:	fd040793          	addi	a5,s0,-48
    39ae:	85be                	mv	a1,a5
    39b0:	853a                	mv	a0,a4
    39b2:	99bfd0ef          	jal	ra,134c <TIM_OC2Init>
E:/桌面/19th智能车/单片机培训、考核/CH32V103_Library-master/Seekfree_CH32V103R8T6_Opensource_Library/Libraries/seekfree_libraries/zf_pwm.c:234
        TIM_OC2PreloadConfig(((TIM_TypeDef *) TIMERN[pwmch>>8]), TIM_OCPreload_Enable);
    39b6:	fcc42783          	lw	a5,-52(s0)
    39ba:	0087d713          	srli	a4,a5,0x8
    39be:	67a1                	lui	a5,0x8
    39c0:	070a                	slli	a4,a4,0x2
    39c2:	a8c78793          	addi	a5,a5,-1396 # 7a8c <TIMERN>
    39c6:	97ba                	add	a5,a5,a4
    39c8:	439c                	lw	a5,0(a5)
    39ca:	45a1                	li	a1,8
    39cc:	853e                	mv	a0,a5
    39ce:	846fe0ef          	jal	ra,1a14 <TIM_OC2PreloadConfig>
E:/桌面/19th智能车/单片机培训、考核/CH32V103_Library-master/Seekfree_CH32V103R8T6_Opensource_Library/Libraries/seekfree_libraries/zf_pwm.c:235
        TIM_OC2FastConfig(((TIM_TypeDef *) TIMERN[pwmch>>8]), TIM_OC2FE);                             //比较捕获通道快速使能
    39d2:	fcc42783          	lw	a5,-52(s0)
    39d6:	0087d713          	srli	a4,a5,0x8
    39da:	67a1                	lui	a5,0x8
    39dc:	070a                	slli	a4,a4,0x2
    39de:	a8c78793          	addi	a5,a5,-1396 # 7a8c <TIMERN>
    39e2:	97ba                	add	a5,a5,a4
    39e4:	439c                	lw	a5,0(a5)
    39e6:	40000593          	li	a1,1024
    39ea:	853e                	mv	a0,a5
    39ec:	974fe0ef          	jal	ra,1b60 <TIM_OC2FastConfig>
    39f0:	a8d9                	j	3ac6 <timer_pwm_init+0x382>
E:/桌面/19th智能车/单片机培训、考核/CH32V103_Library-master/Seekfree_CH32V103R8T6_Opensource_Library/Libraries/seekfree_libraries/zf_pwm.c:237
    }
    else if((pwmch & 0x03) == 0x02)
    39f2:	fcc42783          	lw	a5,-52(s0)
    39f6:	0037f713          	andi	a4,a5,3
    39fa:	4789                	li	a5,2
    39fc:	06f71063          	bne	a4,a5,3a5c <timer_pwm_init+0x318>
E:/桌面/19th智能车/单片机培训、考核/CH32V103_Library-master/Seekfree_CH32V103R8T6_Opensource_Library/Libraries/seekfree_libraries/zf_pwm.c:239
    {
        TIM_OC3Init(((TIM_TypeDef *) TIMERN[pwmch>>8]), &TIM_OCInitStructure );
    3a00:	fcc42783          	lw	a5,-52(s0)
    3a04:	0087d713          	srli	a4,a5,0x8
    3a08:	67a1                	lui	a5,0x8
    3a0a:	070a                	slli	a4,a4,0x2
    3a0c:	a8c78793          	addi	a5,a5,-1396 # 7a8c <TIMERN>
    3a10:	97ba                	add	a5,a5,a4
    3a12:	439c                	lw	a5,0(a5)
    3a14:	873e                	mv	a4,a5
    3a16:	fd040793          	addi	a5,s0,-48
    3a1a:	85be                	mv	a1,a5
    3a1c:	853a                	mv	a0,a4
    3a1e:	ae5fd0ef          	jal	ra,1502 <TIM_OC3Init>
E:/桌面/19th智能车/单片机培训、考核/CH32V103_Library-master/Seekfree_CH32V103R8T6_Opensource_Library/Libraries/seekfree_libraries/zf_pwm.c:240
        TIM_OC3PreloadConfig(((TIM_TypeDef *) TIMERN[pwmch>>8]), TIM_OCPreload_Enable);
    3a22:	fcc42783          	lw	a5,-52(s0)
    3a26:	0087d713          	srli	a4,a5,0x8
    3a2a:	67a1                	lui	a5,0x8
    3a2c:	070a                	slli	a4,a4,0x2
    3a2e:	a8c78793          	addi	a5,a5,-1396 # 7a8c <TIMERN>
    3a32:	97ba                	add	a5,a5,a4
    3a34:	439c                	lw	a5,0(a5)
    3a36:	45a1                	li	a1,8
    3a38:	853e                	mv	a0,a5
    3a3a:	834fe0ef          	jal	ra,1a6e <TIM_OC3PreloadConfig>
E:/桌面/19th智能车/单片机培训、考核/CH32V103_Library-master/Seekfree_CH32V103R8T6_Opensource_Library/Libraries/seekfree_libraries/zf_pwm.c:241
        TIM_OC3FastConfig(((TIM_TypeDef *) TIMERN[pwmch>>8]), TIM_OC3FE);                             //比较捕获通道快速使能
    3a3e:	fcc42783          	lw	a5,-52(s0)
    3a42:	0087d713          	srli	a4,a5,0x8
    3a46:	67a1                	lui	a5,0x8
    3a48:	070a                	slli	a4,a4,0x2
    3a4a:	a8c78793          	addi	a5,a5,-1396 # 7a8c <TIMERN>
    3a4e:	97ba                	add	a5,a5,a4
    3a50:	439c                	lw	a5,0(a5)
    3a52:	4591                	li	a1,4
    3a54:	853e                	mv	a0,a5
    3a56:	960fe0ef          	jal	ra,1bb6 <TIM_OC3FastConfig>
    3a5a:	a0b5                	j	3ac6 <timer_pwm_init+0x382>
E:/桌面/19th智能车/单片机培训、考核/CH32V103_Library-master/Seekfree_CH32V103R8T6_Opensource_Library/Libraries/seekfree_libraries/zf_pwm.c:243
    }
    else if((pwmch & 0x03) == 0x03)
    3a5c:	fcc42783          	lw	a5,-52(s0)
    3a60:	0037f713          	andi	a4,a5,3
    3a64:	478d                	li	a5,3
    3a66:	06f71063          	bne	a4,a5,3ac6 <timer_pwm_init+0x382>
E:/桌面/19th智能车/单片机培训、考核/CH32V103_Library-master/Seekfree_CH32V103R8T6_Opensource_Library/Libraries/seekfree_libraries/zf_pwm.c:245
    {
        TIM_OC4Init(((TIM_TypeDef *) TIMERN[pwmch>>8]), &TIM_OCInitStructure );
    3a6a:	fcc42783          	lw	a5,-52(s0)
    3a6e:	0087d713          	srli	a4,a5,0x8
    3a72:	67a1                	lui	a5,0x8
    3a74:	070a                	slli	a4,a4,0x2
    3a76:	a8c78793          	addi	a5,a5,-1396 # 7a8c <TIMERN>
    3a7a:	97ba                	add	a5,a5,a4
    3a7c:	439c                	lw	a5,0(a5)
    3a7e:	873e                	mv	a4,a5
    3a80:	fd040793          	addi	a5,s0,-48
    3a84:	85be                	mv	a1,a5
    3a86:	853a                	mv	a0,a4
    3a88:	c2bfd0ef          	jal	ra,16b2 <TIM_OC4Init>
E:/桌面/19th智能车/单片机培训、考核/CH32V103_Library-master/Seekfree_CH32V103R8T6_Opensource_Library/Libraries/seekfree_libraries/zf_pwm.c:246
        TIM_OC4PreloadConfig(((TIM_TypeDef *) TIMERN[pwmch>>8]), TIM_OCPreload_Enable);
    3a8c:	fcc42783          	lw	a5,-52(s0)
    3a90:	0087d713          	srli	a4,a5,0x8
    3a94:	67a1                	lui	a5,0x8
    3a96:	070a                	slli	a4,a4,0x2
    3a98:	a8c78793          	addi	a5,a5,-1396 # 7a8c <TIMERN>
    3a9c:	97ba                	add	a5,a5,a4
    3a9e:	439c                	lw	a5,0(a5)
    3aa0:	45a1                	li	a1,8
    3aa2:	853e                	mv	a0,a5
    3aa4:	816fe0ef          	jal	ra,1aba <TIM_OC4PreloadConfig>
E:/桌面/19th智能车/单片机培训、考核/CH32V103_Library-master/Seekfree_CH32V103R8T6_Opensource_Library/Libraries/seekfree_libraries/zf_pwm.c:247
        TIM_OC4FastConfig(((TIM_TypeDef *) TIMERN[pwmch>>8]), TIM_OC4FE);                             //比较捕获通道快速使能
    3aa8:	fcc42783          	lw	a5,-52(s0)
    3aac:	0087d713          	srli	a4,a5,0x8
    3ab0:	67a1                	lui	a5,0x8
    3ab2:	070a                	slli	a4,a4,0x2
    3ab4:	a8c78793          	addi	a5,a5,-1396 # 7a8c <TIMERN>
    3ab8:	97ba                	add	a5,a5,a4
    3aba:	439c                	lw	a5,0(a5)
    3abc:	40000593          	li	a1,1024
    3ac0:	853e                	mv	a0,a5
    3ac2:	940fe0ef          	jal	ra,1c02 <TIM_OC4FastConfig>
E:/桌面/19th智能车/单片机培训、考核/CH32V103_Library-master/Seekfree_CH32V103R8T6_Opensource_Library/Libraries/seekfree_libraries/zf_pwm.c:249
    }
    TIM_Cmd(((TIM_TypeDef *) TIMERN[pwmch>>8]), ENABLE);                                              //定时器使能
    3ac6:	fcc42783          	lw	a5,-52(s0)
    3aca:	0087d713          	srli	a4,a5,0x8
    3ace:	67a1                	lui	a5,0x8
    3ad0:	070a                	slli	a4,a4,0x2
    3ad2:	a8c78793          	addi	a5,a5,-1396 # 7a8c <TIMERN>
    3ad6:	97ba                	add	a5,a5,a4
    3ad8:	439c                	lw	a5,0(a5)
    3ada:	4585                	li	a1,1
    3adc:	853e                	mv	a0,a5
    3ade:	d5bfd0ef          	jal	ra,1838 <TIM_Cmd>
E:/桌面/19th智能车/单片机培训、考核/CH32V103_Library-master/Seekfree_CH32V103R8T6_Opensource_Library/Libraries/seekfree_libraries/zf_pwm.c:250
    TIM_CtrlPWMOutputs(((TIM_TypeDef *) TIMERN[pwmch>>8]), ENABLE );
    3ae2:	fcc42783          	lw	a5,-52(s0)
    3ae6:	0087d713          	srli	a4,a5,0x8
    3aea:	67a1                	lui	a5,0x8
    3aec:	070a                	slli	a4,a4,0x2
    3aee:	a8c78793          	addi	a5,a5,-1396 # 7a8c <TIMERN>
    3af2:	97ba                	add	a5,a5,a4
    3af4:	439c                	lw	a5,0(a5)
    3af6:	4585                	li	a1,1
    3af8:	853e                	mv	a0,a5
    3afa:	d97fd0ef          	jal	ra,1890 <TIM_CtrlPWMOutputs>
E:/桌面/19th智能车/单片机培训、考核/CH32V103_Library-master/Seekfree_CH32V103R8T6_Opensource_Library/Libraries/seekfree_libraries/zf_pwm.c:252
    //TIM_ARRPreloadConfig( TIM1, ENABLE );
}
    3afe:	0001                	nop
    3b00:	50f2                	lw	ra,60(sp)
    3b02:	5462                	lw	s0,56(sp)
    3b04:	6121                	addi	sp,sp,64
    3b06:	8082                	ret

00003b08 <timer_pwm_duty>:
timer_pwm_duty():
E:/桌面/19th智能车/单片机培训、考核/CH32V103_Library-master/Seekfree_CH32V103R8T6_Opensource_Library/Libraries/seekfree_libraries/zf_pwm.c:263
//  @return     void
//  Sample usage:               pwm_duty(PWM1_CH1_A8, 5000);   //PWM1 通道1 使用引脚A8 占空比为百分之 5000/PWM_DUTY_MAX*100
//                              PWM_DUTY_MAX在zf_pwm.h文件中 默认为10000
//-------------------------------------------------------------------------------------------------------------------
void timer_pwm_duty(PWMCH_enum pwmch, uint32 duty)
{
    3b08:	7179                	addi	sp,sp,-48
    3b0a:	d622                	sw	s0,44(sp)
    3b0c:	1800                	addi	s0,sp,48
    3b0e:	fca42e23          	sw	a0,-36(s0)
    3b12:	fcb42c23          	sw	a1,-40(s0)
E:/桌面/19th智能车/单片机培训、考核/CH32V103_Library-master/Seekfree_CH32V103R8T6_Opensource_Library/Libraries/seekfree_libraries/zf_pwm.c:270
    uint16 period_temp;
    //const uint32 TIMERN[] = {TIM1_BASE, TIM2_BASE, TIM3_BASE, TIM4_BASE};
    //获取周期值
    //计算占空比

    period_temp = ((TIM_TypeDef *) TIMERN[pwmch>>8])->ATRLR;    //获取定时器的周期值
    3b16:	fdc42783          	lw	a5,-36(s0)
    3b1a:	0087d713          	srli	a4,a5,0x8
    3b1e:	67a1                	lui	a5,0x8
    3b20:	070a                	slli	a4,a4,0x2
    3b22:	a8c78793          	addi	a5,a5,-1396 # 7a8c <TIMERN>
    3b26:	97ba                	add	a5,a5,a4
    3b28:	439c                	lw	a5,0(a5)
    3b2a:	02c7d783          	lhu	a5,44(a5)
    3b2e:	fef41723          	sh	a5,-18(s0)
E:/桌面/19th智能车/单片机培训、考核/CH32V103_Library-master/Seekfree_CH32V103R8T6_Opensource_Library/Libraries/seekfree_libraries/zf_pwm.c:271
    match_temp = period_temp * duty / PWM_DUTY_MAX;             //占空比
    3b32:	fee45703          	lhu	a4,-18(s0)
    3b36:	fd842783          	lw	a5,-40(s0)
    3b3a:	02f70733          	mul	a4,a4,a5
    3b3e:	6789                	lui	a5,0x2
    3b40:	71078793          	addi	a5,a5,1808 # 2710 <ips114_showchar+0x8a>
    3b44:	02f757b3          	divu	a5,a4,a5
    3b48:	fef41623          	sh	a5,-20(s0)
E:/桌面/19th智能车/单片机培训、考核/CH32V103_Library-master/Seekfree_CH32V103R8T6_Opensource_Library/Libraries/seekfree_libraries/zf_pwm.c:273

    if((pwmch >> 8) == 0x00)
    3b4c:	fdc42783          	lw	a5,-36(s0)
    3b50:	83a1                	srli	a5,a5,0x8
    3b52:	e385                	bnez	a5,3b72 <timer_pwm_duty+0x6a>
E:/桌面/19th智能车/单片机培训、考核/CH32V103_Library-master/Seekfree_CH32V103R8T6_Opensource_Library/Libraries/seekfree_libraries/zf_pwm.c:275
    {
        (*(volatile uint32*)(0x40012C34 + (pwmch&0x03) * 0x04)) = match_temp;
    3b54:	fdc42783          	lw	a5,-36(s0)
    3b58:	0037f713          	andi	a4,a5,3
    3b5c:	100057b7          	lui	a5,0x10005
    3b60:	b0d78793          	addi	a5,a5,-1267 # 10004b0d <_data_lma+0xfffce0d>
    3b64:	97ba                	add	a5,a5,a4
    3b66:	078a                	slli	a5,a5,0x2
    3b68:	873e                	mv	a4,a5
    3b6a:	fec45783          	lhu	a5,-20(s0)
    3b6e:	c31c                	sw	a5,0(a4)
E:/桌面/19th智能车/单片机培训、考核/CH32V103_Library-master/Seekfree_CH32V103R8T6_Opensource_Library/Libraries/seekfree_libraries/zf_pwm.c:305
        //0x40000834 TIM4->CH1CVR
        //0x40000838 TIM4->CH2CVR
        //0x4000083C TIM4->CH3CVR
        //0x40000840 TIM4->CH4CVR
    }
}
    3b70:	a049                	j	3bf2 <timer_pwm_duty+0xea>
E:/桌面/19th智能车/单片机培训、考核/CH32V103_Library-master/Seekfree_CH32V103R8T6_Opensource_Library/Libraries/seekfree_libraries/zf_pwm.c:281
    else if((pwmch >> 8) == 0x01)
    3b72:	fdc42783          	lw	a5,-36(s0)
    3b76:	0087d713          	srli	a4,a5,0x8
    3b7a:	4785                	li	a5,1
    3b7c:	02f71063          	bne	a4,a5,3b9c <timer_pwm_duty+0x94>
E:/桌面/19th智能车/单片机培训、考核/CH32V103_Library-master/Seekfree_CH32V103R8T6_Opensource_Library/Libraries/seekfree_libraries/zf_pwm.c:283
        (*(volatile uint32*)(0x40000034 + (pwmch&0x03) * 0x04)) = match_temp;
    3b80:	fdc42783          	lw	a5,-36(s0)
    3b84:	0037f713          	andi	a4,a5,3
    3b88:	100007b7          	lui	a5,0x10000
    3b8c:	07b5                	addi	a5,a5,13
    3b8e:	97ba                	add	a5,a5,a4
    3b90:	078a                	slli	a5,a5,0x2
    3b92:	873e                	mv	a4,a5
    3b94:	fec45783          	lhu	a5,-20(s0)
    3b98:	c31c                	sw	a5,0(a4)
E:/桌面/19th智能车/单片机培训、考核/CH32V103_Library-master/Seekfree_CH32V103R8T6_Opensource_Library/Libraries/seekfree_libraries/zf_pwm.c:305
}
    3b9a:	a8a1                	j	3bf2 <timer_pwm_duty+0xea>
E:/桌面/19th智能车/单片机培训、考核/CH32V103_Library-master/Seekfree_CH32V103R8T6_Opensource_Library/Libraries/seekfree_libraries/zf_pwm.c:289
    else if((pwmch >> 8) == 0x02)
    3b9c:	fdc42783          	lw	a5,-36(s0)
    3ba0:	0087d713          	srli	a4,a5,0x8
    3ba4:	4789                	li	a5,2
    3ba6:	02f71163          	bne	a4,a5,3bc8 <timer_pwm_duty+0xc0>
E:/桌面/19th智能车/单片机培训、考核/CH32V103_Library-master/Seekfree_CH32V103R8T6_Opensource_Library/Libraries/seekfree_libraries/zf_pwm.c:291
        (*(volatile uint32*)(0x40000434 + (pwmch&0x03) * 0x04)) = match_temp;
    3baa:	fdc42783          	lw	a5,-36(s0)
    3bae:	0037f713          	andi	a4,a5,3
    3bb2:	100007b7          	lui	a5,0x10000
    3bb6:	10d78793          	addi	a5,a5,269 # 1000010d <_data_lma+0xfff840d>
    3bba:	97ba                	add	a5,a5,a4
    3bbc:	078a                	slli	a5,a5,0x2
    3bbe:	873e                	mv	a4,a5
    3bc0:	fec45783          	lhu	a5,-20(s0)
    3bc4:	c31c                	sw	a5,0(a4)
E:/桌面/19th智能车/单片机培训、考核/CH32V103_Library-master/Seekfree_CH32V103R8T6_Opensource_Library/Libraries/seekfree_libraries/zf_pwm.c:305
}
    3bc6:	a035                	j	3bf2 <timer_pwm_duty+0xea>
E:/桌面/19th智能车/单片机培训、考核/CH32V103_Library-master/Seekfree_CH32V103R8T6_Opensource_Library/Libraries/seekfree_libraries/zf_pwm.c:297
    else if((pwmch >> 8) == 0x03)
    3bc8:	fdc42783          	lw	a5,-36(s0)
    3bcc:	0087d713          	srli	a4,a5,0x8
    3bd0:	478d                	li	a5,3
    3bd2:	02f71063          	bne	a4,a5,3bf2 <timer_pwm_duty+0xea>
E:/桌面/19th智能车/单片机培训、考核/CH32V103_Library-master/Seekfree_CH32V103R8T6_Opensource_Library/Libraries/seekfree_libraries/zf_pwm.c:299
        (*(volatile uint32*)(0x40000834 + (pwmch&0x03) * 0x04)) = match_temp;
    3bd6:	fdc42783          	lw	a5,-36(s0)
    3bda:	0037f713          	andi	a4,a5,3
    3bde:	100007b7          	lui	a5,0x10000
    3be2:	20d78793          	addi	a5,a5,525 # 1000020d <_data_lma+0xfff850d>
    3be6:	97ba                	add	a5,a5,a4
    3be8:	078a                	slli	a5,a5,0x2
    3bea:	873e                	mv	a4,a5
    3bec:	fec45783          	lhu	a5,-20(s0)
    3bf0:	c31c                	sw	a5,0(a4)
E:/桌面/19th智能车/单片机培训、考核/CH32V103_Library-master/Seekfree_CH32V103R8T6_Opensource_Library/Libraries/seekfree_libraries/zf_pwm.c:305
}
    3bf2:	0001                	nop
    3bf4:	5432                	lw	s0,44(sp)
    3bf6:	6145                	addi	sp,sp,48
    3bf8:	8082                	ret

00003bfa <spi_gpio_init>:
spi_gpio_init():
E:/桌面/19th智能车/单片机培训、考核/CH32V103_Library-master/Seekfree_CH32V103R8T6_Opensource_Library/Libraries/seekfree_libraries/zf_spi.c:41
//  @param      cs_pin      片选引脚(可选择范围由common.h内PIN_enum枚举值确定)
//  @return     void
//  Sample usage:           内部使用  用户无需关心
//-------------------------------------------------------------------------------------------------------------------
void spi_gpio_init(SPI_PIN_enum sck_pin, SPI_PIN_enum mosi_pin, SPI_PIN_enum miso_pin, PIN_enum cs_pin)
{
    3bfa:	1101                	addi	sp,sp,-32
    3bfc:	ce06                	sw	ra,28(sp)
    3bfe:	cc22                	sw	s0,24(sp)
    3c00:	1000                	addi	s0,sp,32
    3c02:	fea42623          	sw	a0,-20(s0)
    3c06:	feb42423          	sw	a1,-24(s0)
    3c0a:	fec42223          	sw	a2,-28(s0)
    3c0e:	fed42023          	sw	a3,-32(s0)
E:/桌面/19th智能车/单片机培训、考核/CH32V103_Library-master/Seekfree_CH32V103R8T6_Opensource_Library/Libraries/seekfree_libraries/zf_spi.c:42
    if(SPI1_SCK_PA5 == sck_pin) gpio_init(A5, GPO, 1, SPEED_50MHZ|OUT_AF_PP);
    3c12:	fec42783          	lw	a5,-20(s0)
    3c16:	eb89                	bnez	a5,3c28 <spi_gpio_init+0x2e>
E:/桌面/19th智能车/单片机培训、考核/CH32V103_Library-master/Seekfree_CH32V103R8T6_Opensource_Library/Libraries/seekfree_libraries/zf_spi.c:42 (discriminator 1)
    3c18:	31800693          	li	a3,792
    3c1c:	4605                	li	a2,1
    3c1e:	4585                	li	a1,1
    3c20:	4515                	li	a0,5
    3c22:	d08ff0ef          	jal	ra,312a <gpio_init>
    3c26:	a899                	j	3c7c <spi_gpio_init+0x82>
E:/桌面/19th智能车/单片机培训、考核/CH32V103_Library-master/Seekfree_CH32V103R8T6_Opensource_Library/Libraries/seekfree_libraries/zf_spi.c:43
    else if(SPI1_SCK_PB3 == sck_pin) gpio_init(B3, GPO, 1, SPEED_50MHZ|OUT_AF_PP);
    3c28:	fec42703          	lw	a4,-20(s0)
    3c2c:	47c1                	li	a5,16
    3c2e:	00f71b63          	bne	a4,a5,3c44 <spi_gpio_init+0x4a>
E:/桌面/19th智能车/单片机培训、考核/CH32V103_Library-master/Seekfree_CH32V103R8T6_Opensource_Library/Libraries/seekfree_libraries/zf_spi.c:43 (discriminator 1)
    3c32:	31800693          	li	a3,792
    3c36:	4605                	li	a2,1
    3c38:	4585                	li	a1,1
    3c3a:	02300513          	li	a0,35
    3c3e:	cecff0ef          	jal	ra,312a <gpio_init>
    3c42:	a82d                	j	3c7c <spi_gpio_init+0x82>
E:/桌面/19th智能车/单片机培训、考核/CH32V103_Library-master/Seekfree_CH32V103R8T6_Opensource_Library/Libraries/seekfree_libraries/zf_spi.c:44
    else if(SPI2_SCK_PB13 == sck_pin) gpio_init(B13, GPO, 1, SPEED_50MHZ|OUT_AF_PP);
    3c44:	fec42703          	lw	a4,-20(s0)
    3c48:	02000793          	li	a5,32
    3c4c:	00f71b63          	bne	a4,a5,3c62 <spi_gpio_init+0x68>
E:/桌面/19th智能车/单片机培训、考核/CH32V103_Library-master/Seekfree_CH32V103R8T6_Opensource_Library/Libraries/seekfree_libraries/zf_spi.c:44 (discriminator 1)
    3c50:	31800693          	li	a3,792
    3c54:	4605                	li	a2,1
    3c56:	4585                	li	a1,1
    3c58:	02d00513          	li	a0,45
    3c5c:	cceff0ef          	jal	ra,312a <gpio_init>
    3c60:	a831                	j	3c7c <spi_gpio_init+0x82>
E:/桌面/19th智能车/单片机培训、考核/CH32V103_Library-master/Seekfree_CH32V103R8T6_Opensource_Library/Libraries/seekfree_libraries/zf_spi.c:45
    else assert(0);         //无此参数进入断言
    3c62:	679d                	lui	a5,0x7
    3c64:	3a078693          	addi	a3,a5,928 # 73a0 <_exit+0x14c>
    3c68:	67a1                	lui	a5,0x8
    3c6a:	a7c78613          	addi	a2,a5,-1412 # 7a7c <__func__.3350>
    3c6e:	02d00593          	li	a1,45
    3c72:	679d                	lui	a5,0x7
    3c74:	3a478513          	addi	a0,a5,932 # 73a4 <_exit+0x150>
    3c78:	613010ef          	jal	ra,5a8a <__assert_func>
E:/桌面/19th智能车/单片机培训、考核/CH32V103_Library-master/Seekfree_CH32V103R8T6_Opensource_Library/Libraries/seekfree_libraries/zf_spi.c:47

    if(SPI1_MOSI_PA7 == mosi_pin) gpio_init(A7, GPO, 1, SPEED_50MHZ|OUT_AF_PP);
    3c7c:	fe842703          	lw	a4,-24(s0)
    3c80:	4785                	li	a5,1
    3c82:	00f71a63          	bne	a4,a5,3c96 <spi_gpio_init+0x9c>
E:/桌面/19th智能车/单片机培训、考核/CH32V103_Library-master/Seekfree_CH32V103R8T6_Opensource_Library/Libraries/seekfree_libraries/zf_spi.c:47 (discriminator 1)
    3c86:	31800693          	li	a3,792
    3c8a:	4605                	li	a2,1
    3c8c:	4585                	li	a1,1
    3c8e:	451d                	li	a0,7
    3c90:	c9aff0ef          	jal	ra,312a <gpio_init>
    3c94:	a899                	j	3cea <spi_gpio_init+0xf0>
E:/桌面/19th智能车/单片机培训、考核/CH32V103_Library-master/Seekfree_CH32V103R8T6_Opensource_Library/Libraries/seekfree_libraries/zf_spi.c:48
    else if(SPI1_MOSI_PB5 == mosi_pin) gpio_init(B5, GPO, 1, SPEED_50MHZ|OUT_AF_PP);
    3c96:	fe842703          	lw	a4,-24(s0)
    3c9a:	47c5                	li	a5,17
    3c9c:	00f71b63          	bne	a4,a5,3cb2 <spi_gpio_init+0xb8>
E:/桌面/19th智能车/单片机培训、考核/CH32V103_Library-master/Seekfree_CH32V103R8T6_Opensource_Library/Libraries/seekfree_libraries/zf_spi.c:48 (discriminator 1)
    3ca0:	31800693          	li	a3,792
    3ca4:	4605                	li	a2,1
    3ca6:	4585                	li	a1,1
    3ca8:	02500513          	li	a0,37
    3cac:	c7eff0ef          	jal	ra,312a <gpio_init>
    3cb0:	a82d                	j	3cea <spi_gpio_init+0xf0>
E:/桌面/19th智能车/单片机培训、考核/CH32V103_Library-master/Seekfree_CH32V103R8T6_Opensource_Library/Libraries/seekfree_libraries/zf_spi.c:49
    else if(SPI2_MOSI_PB15 == mosi_pin) gpio_init(B15, GPO, 1, SPEED_50MHZ|OUT_AF_PP);
    3cb2:	fe842703          	lw	a4,-24(s0)
    3cb6:	02100793          	li	a5,33
    3cba:	00f71b63          	bne	a4,a5,3cd0 <spi_gpio_init+0xd6>
E:/桌面/19th智能车/单片机培训、考核/CH32V103_Library-master/Seekfree_CH32V103R8T6_Opensource_Library/Libraries/seekfree_libraries/zf_spi.c:49 (discriminator 1)
    3cbe:	31800693          	li	a3,792
    3cc2:	4605                	li	a2,1
    3cc4:	4585                	li	a1,1
    3cc6:	02f00513          	li	a0,47
    3cca:	c60ff0ef          	jal	ra,312a <gpio_init>
    3cce:	a831                	j	3cea <spi_gpio_init+0xf0>
E:/桌面/19th智能车/单片机培训、考核/CH32V103_Library-master/Seekfree_CH32V103R8T6_Opensource_Library/Libraries/seekfree_libraries/zf_spi.c:50
    else assert(0);         //无此参数进入断言
    3cd0:	679d                	lui	a5,0x7
    3cd2:	3a078693          	addi	a3,a5,928 # 73a0 <_exit+0x14c>
    3cd6:	67a1                	lui	a5,0x8
    3cd8:	a7c78613          	addi	a2,a5,-1412 # 7a7c <__func__.3350>
    3cdc:	03200593          	li	a1,50
    3ce0:	679d                	lui	a5,0x7
    3ce2:	3a478513          	addi	a0,a5,932 # 73a4 <_exit+0x150>
    3ce6:	5a5010ef          	jal	ra,5a8a <__assert_func>
E:/桌面/19th智能车/单片机培训、考核/CH32V103_Library-master/Seekfree_CH32V103R8T6_Opensource_Library/Libraries/seekfree_libraries/zf_spi.c:52

    if(SPI1_MISO_PA6 == miso_pin) gpio_init(A6, GPO, 1, SPEED_50MHZ|OUT_AF_PP);
    3cea:	fe442703          	lw	a4,-28(s0)
    3cee:	4789                	li	a5,2
    3cf0:	00f71a63          	bne	a4,a5,3d04 <spi_gpio_init+0x10a>
E:/桌面/19th智能车/单片机培训、考核/CH32V103_Library-master/Seekfree_CH32V103R8T6_Opensource_Library/Libraries/seekfree_libraries/zf_spi.c:52 (discriminator 1)
    3cf4:	31800693          	li	a3,792
    3cf8:	4605                	li	a2,1
    3cfa:	4585                	li	a1,1
    3cfc:	4519                	li	a0,6
    3cfe:	c2cff0ef          	jal	ra,312a <gpio_init>
    3d02:	a0b5                	j	3d6e <spi_gpio_init+0x174>
E:/桌面/19th智能车/单片机培训、考核/CH32V103_Library-master/Seekfree_CH32V103R8T6_Opensource_Library/Libraries/seekfree_libraries/zf_spi.c:53
    else if(SPI1_MISO_PB4 == miso_pin) gpio_init(B4, GPO, 1, SPEED_50MHZ|OUT_AF_PP);
    3d04:	fe442703          	lw	a4,-28(s0)
    3d08:	47c9                	li	a5,18
    3d0a:	00f71b63          	bne	a4,a5,3d20 <spi_gpio_init+0x126>
E:/桌面/19th智能车/单片机培训、考核/CH32V103_Library-master/Seekfree_CH32V103R8T6_Opensource_Library/Libraries/seekfree_libraries/zf_spi.c:53 (discriminator 1)
    3d0e:	31800693          	li	a3,792
    3d12:	4605                	li	a2,1
    3d14:	4585                	li	a1,1
    3d16:	02400513          	li	a0,36
    3d1a:	c10ff0ef          	jal	ra,312a <gpio_init>
    3d1e:	a881                	j	3d6e <spi_gpio_init+0x174>
E:/桌面/19th智能车/单片机培训、考核/CH32V103_Library-master/Seekfree_CH32V103R8T6_Opensource_Library/Libraries/seekfree_libraries/zf_spi.c:54
    else if(SPI2_MISO_PB14 == miso_pin) gpio_init(B14, GPO, 1, SPEED_50MHZ|OUT_AF_PP);
    3d20:	fe442703          	lw	a4,-28(s0)
    3d24:	02200793          	li	a5,34
    3d28:	00f71b63          	bne	a4,a5,3d3e <spi_gpio_init+0x144>
E:/桌面/19th智能车/单片机培训、考核/CH32V103_Library-master/Seekfree_CH32V103R8T6_Opensource_Library/Libraries/seekfree_libraries/zf_spi.c:54 (discriminator 1)
    3d2c:	31800693          	li	a3,792
    3d30:	4605                	li	a2,1
    3d32:	4585                	li	a1,1
    3d34:	02e00513          	li	a0,46
    3d38:	bf2ff0ef          	jal	ra,312a <gpio_init>
    3d3c:	a80d                	j	3d6e <spi_gpio_init+0x174>
E:/桌面/19th智能车/单片机培训、考核/CH32V103_Library-master/Seekfree_CH32V103R8T6_Opensource_Library/Libraries/seekfree_libraries/zf_spi.c:55
    else if(SPI_MISO_NULL == miso_pin)  miso_pin = SPI_MISO_NULL;
    3d3e:	fe442703          	lw	a4,-28(s0)
    3d42:	02300793          	li	a5,35
    3d46:	00f71763          	bne	a4,a5,3d54 <spi_gpio_init+0x15a>
E:/桌面/19th智能车/单片机培训、考核/CH32V103_Library-master/Seekfree_CH32V103R8T6_Opensource_Library/Libraries/seekfree_libraries/zf_spi.c:55 (discriminator 1)
    3d4a:	02300793          	li	a5,35
    3d4e:	fef42223          	sw	a5,-28(s0)
    3d52:	a831                	j	3d6e <spi_gpio_init+0x174>
E:/桌面/19th智能车/单片机培训、考核/CH32V103_Library-master/Seekfree_CH32V103R8T6_Opensource_Library/Libraries/seekfree_libraries/zf_spi.c:56
    else  assert(0);         //无此参数进入断言
    3d54:	679d                	lui	a5,0x7
    3d56:	3a078693          	addi	a3,a5,928 # 73a0 <_exit+0x14c>
    3d5a:	67a1                	lui	a5,0x8
    3d5c:	a7c78613          	addi	a2,a5,-1412 # 7a7c <__func__.3350>
    3d60:	03800593          	li	a1,56
    3d64:	679d                	lui	a5,0x7
    3d66:	3a478513          	addi	a0,a5,932 # 73a4 <_exit+0x150>
    3d6a:	521010ef          	jal	ra,5a8a <__assert_func>
E:/桌面/19th智能车/单片机培训、考核/CH32V103_Library-master/Seekfree_CH32V103R8T6_Opensource_Library/Libraries/seekfree_libraries/zf_spi.c:59


    gpio_init(cs_pin, GPO, 1, SPEED_50MHZ|OUT_PP);
    3d6e:	31000693          	li	a3,784
    3d72:	4605                	li	a2,1
    3d74:	4585                	li	a1,1
    3d76:	fe042503          	lw	a0,-32(s0)
    3d7a:	bb0ff0ef          	jal	ra,312a <gpio_init>
E:/桌面/19th智能车/单片机培训、考核/CH32V103_Library-master/Seekfree_CH32V103R8T6_Opensource_Library/Libraries/seekfree_libraries/zf_spi.c:61

}
    3d7e:	0001                	nop
    3d80:	40f2                	lw	ra,28(sp)
    3d82:	4462                	lw	s0,24(sp)
    3d84:	6105                	addi	sp,sp,32
    3d86:	8082                	ret

00003d88 <spi_init>:
spi_init():
E:/桌面/19th智能车/单片机培训、考核/CH32V103_Library-master/Seekfree_CH32V103R8T6_Opensource_Library/Libraries/seekfree_libraries/zf_spi.c:85
        SPI_PIN_enum mosi_pin,
        SPI_PIN_enum miso_pin,
        PIN_enum cs_pin,
        uint8 mode,
        SPI_SPEED_enum BaudRatePrescaler)
{
    3d88:	715d                	addi	sp,sp,-80
    3d8a:	c686                	sw	ra,76(sp)
    3d8c:	c4a2                	sw	s0,72(sp)
    3d8e:	0880                	addi	s0,sp,80
    3d90:	fca42623          	sw	a0,-52(s0)
    3d94:	fcb42423          	sw	a1,-56(s0)
    3d98:	fcc42223          	sw	a2,-60(s0)
    3d9c:	fcd42023          	sw	a3,-64(s0)
    3da0:	fae42e23          	sw	a4,-68(s0)
    3da4:	fb042a23          	sw	a6,-76(s0)
    3da8:	faf40da3          	sb	a5,-69(s0)
E:/桌面/19th智能车/单片机培训、考核/CH32V103_Library-master/Seekfree_CH32V103R8T6_Opensource_Library/Libraries/seekfree_libraries/zf_spi.c:89

    SPI_InitTypeDef  SPI_InitStructure;

    if(SPI_1 == spi_n)
    3dac:	fcc42783          	lw	a5,-52(s0)
    3db0:	eb81                	bnez	a5,3dc0 <spi_init+0x38>
E:/桌面/19th智能车/单片机培训、考核/CH32V103_Library-master/Seekfree_CH32V103R8T6_Opensource_Library/Libraries/seekfree_libraries/zf_spi.c:91
    {
        RCC_APB2PeriphClockCmd(RCC_APB2Periph_SPI1 | RCC_APB2Periph_AFIO, ENABLE);                //SPI1时钟使能，复用总线使能
    3db2:	4585                	li	a1,1
    3db4:	6785                	lui	a5,0x1
    3db6:	00178513          	addi	a0,a5,1 # 1001 <SPI_Init+0x71>
    3dba:	904fd0ef          	jal	ra,ebe <RCC_APB2PeriphClockCmd>
    3dbe:	a831                	j	3dda <spi_init+0x52>
E:/桌面/19th智能车/单片机培训、考核/CH32V103_Library-master/Seekfree_CH32V103R8T6_Opensource_Library/Libraries/seekfree_libraries/zf_spi.c:93
    }
    else if(SPI_2 == spi_n)
    3dc0:	fcc42703          	lw	a4,-52(s0)
    3dc4:	4785                	li	a5,1
    3dc6:	00f71a63          	bne	a4,a5,3dda <spi_init+0x52>
E:/桌面/19th智能车/单片机培训、考核/CH32V103_Library-master/Seekfree_CH32V103R8T6_Opensource_Library/Libraries/seekfree_libraries/zf_spi.c:95
    {
        RCC_APB1PeriphClockCmd(RCC_APB1Periph_SPI2, ENABLE);                //SPI2时钟使能
    3dca:	4585                	li	a1,1
    3dcc:	6511                	lui	a0,0x4
    3dce:	936fd0ef          	jal	ra,f04 <RCC_APB1PeriphClockCmd>
E:/桌面/19th智能车/单片机培训、考核/CH32V103_Library-master/Seekfree_CH32V103R8T6_Opensource_Library/Libraries/seekfree_libraries/zf_spi.c:96
        RCC_APB2PeriphClockCmd(RCC_APB2Periph_AFIO, ENABLE);                //复用总线使能
    3dd2:	4585                	li	a1,1
    3dd4:	4505                	li	a0,1
    3dd6:	8e8fd0ef          	jal	ra,ebe <RCC_APB2PeriphClockCmd>
E:/桌面/19th智能车/单片机培训、考核/CH32V103_Library-master/Seekfree_CH32V103R8T6_Opensource_Library/Libraries/seekfree_libraries/zf_spi.c:99
    }

    spi_gpio_init(sck_pin, mosi_pin, miso_pin, cs_pin);
    3dda:	fbc42683          	lw	a3,-68(s0)
    3dde:	fc042603          	lw	a2,-64(s0)
    3de2:	fc442583          	lw	a1,-60(s0)
    3de6:	fc842503          	lw	a0,-56(s0)
    3dea:	3d01                	jal	3bfa <spi_gpio_init>
E:/桌面/19th智能车/单片机培训、考核/CH32V103_Library-master/Seekfree_CH32V103R8T6_Opensource_Library/Libraries/seekfree_libraries/zf_spi.c:101

    SPI_InitStructure.SPI_Direction = SPI_Direction_2Lines_FullDuplex;      //SPI设置为双线双向全双工
    3dec:	fc041e23          	sh	zero,-36(s0)
E:/桌面/19th智能车/单片机培训、考核/CH32V103_Library-master/Seekfree_CH32V103R8T6_Opensource_Library/Libraries/seekfree_libraries/zf_spi.c:102
    SPI_InitStructure.SPI_Mode = SPI_Mode_Master;                           //设置SPI工作模式:设置为主SPI
    3df0:	10400793          	li	a5,260
    3df4:	fcf41f23          	sh	a5,-34(s0)
E:/桌面/19th智能车/单片机培训、考核/CH32V103_Library-master/Seekfree_CH32V103R8T6_Opensource_Library/Libraries/seekfree_libraries/zf_spi.c:103
    SPI_InitStructure.SPI_DataSize = SPI_DataSize_8b;                       //设置SPI的数据大小:SPI发送接收8位帧结构
    3df8:	fe041023          	sh	zero,-32(s0)
E:/桌面/19th智能车/单片机培训、考核/CH32V103_Library-master/Seekfree_CH32V103R8T6_Opensource_Library/Libraries/seekfree_libraries/zf_spi.c:105

    switch(mode)
    3dfc:	fbb44783          	lbu	a5,-69(s0)
    3e00:	4705                	li	a4,1
    3e02:	02e78363          	beq	a5,a4,3e28 <spi_init+0xa0>
    3e06:	4705                	li	a4,1
    3e08:	00f74463          	blt	a4,a5,3e10 <spi_init+0x88>
    3e0c:	cb89                	beqz	a5,3e1e <spi_init+0x96>
    3e0e:	a081                	j	3e4e <spi_init+0xc6>
    3e10:	4709                	li	a4,2
    3e12:	02e78163          	beq	a5,a4,3e34 <spi_init+0xac>
    3e16:	470d                	li	a4,3
    3e18:	02e78463          	beq	a5,a4,3e40 <spi_init+0xb8>
    3e1c:	a80d                	j	3e4e <spi_init+0xc6>
E:/桌面/19th智能车/单片机培训、考核/CH32V103_Library-master/Seekfree_CH32V103R8T6_Opensource_Library/Libraries/seekfree_libraries/zf_spi.c:109
    {
        case 0:
        {
            SPI_InitStructure.SPI_CPOL = SPI_CPOL_Low;                      //串行同步时钟的空闲状态为低电平
    3e1e:	fe041123          	sh	zero,-30(s0)
E:/桌面/19th智能车/单片机培训、考核/CH32V103_Library-master/Seekfree_CH32V103R8T6_Opensource_Library/Libraries/seekfree_libraries/zf_spi.c:110
            SPI_InitStructure.SPI_CPHA = SPI_CPHA_1Edge;                    //串行同步时钟的第一个跳变沿（上升或下降）数据被采样
    3e22:	fe041223          	sh	zero,-28(s0)
E:/桌面/19th智能车/单片机培训、考核/CH32V103_Library-master/Seekfree_CH32V103R8T6_Opensource_Library/Libraries/seekfree_libraries/zf_spi.c:111
        }break;
    3e26:	a025                	j	3e4e <spi_init+0xc6>
E:/桌面/19th智能车/单片机培训、考核/CH32V103_Library-master/Seekfree_CH32V103R8T6_Opensource_Library/Libraries/seekfree_libraries/zf_spi.c:114
        case 1:
        {
            SPI_InitStructure.SPI_CPOL = SPI_CPOL_Low;                      //串行同步时钟的空闲状态为低电平
    3e28:	fe041123          	sh	zero,-30(s0)
E:/桌面/19th智能车/单片机培训、考核/CH32V103_Library-master/Seekfree_CH32V103R8T6_Opensource_Library/Libraries/seekfree_libraries/zf_spi.c:115
            SPI_InitStructure.SPI_CPHA = SPI_CPHA_2Edge;                    //串行同步时钟的第二个跳变沿（上升或下降）数据被采样
    3e2c:	4785                	li	a5,1
    3e2e:	fef41223          	sh	a5,-28(s0)
E:/桌面/19th智能车/单片机培训、考核/CH32V103_Library-master/Seekfree_CH32V103R8T6_Opensource_Library/Libraries/seekfree_libraries/zf_spi.c:116
        }break;
    3e32:	a831                	j	3e4e <spi_init+0xc6>
E:/桌面/19th智能车/单片机培训、考核/CH32V103_Library-master/Seekfree_CH32V103R8T6_Opensource_Library/Libraries/seekfree_libraries/zf_spi.c:119
        case 2:
        {
            SPI_InitStructure.SPI_CPOL = SPI_CPOL_High;                     //串行同步时钟的空闲状态为高电平
    3e34:	4789                	li	a5,2
    3e36:	fef41123          	sh	a5,-30(s0)
E:/桌面/19th智能车/单片机培训、考核/CH32V103_Library-master/Seekfree_CH32V103R8T6_Opensource_Library/Libraries/seekfree_libraries/zf_spi.c:120
            SPI_InitStructure.SPI_CPHA = SPI_CPHA_1Edge;                    //串行同步时钟的第一个跳变沿（上升或下降）数据被采样
    3e3a:	fe041223          	sh	zero,-28(s0)
E:/桌面/19th智能车/单片机培训、考核/CH32V103_Library-master/Seekfree_CH32V103R8T6_Opensource_Library/Libraries/seekfree_libraries/zf_spi.c:121
        }break;
    3e3e:	a801                	j	3e4e <spi_init+0xc6>
E:/桌面/19th智能车/单片机培训、考核/CH32V103_Library-master/Seekfree_CH32V103R8T6_Opensource_Library/Libraries/seekfree_libraries/zf_spi.c:124
        case 3:
        {
            SPI_InitStructure.SPI_CPOL = SPI_CPOL_High;                     //串行同步时钟的空闲状态为高电平
    3e40:	4789                	li	a5,2
    3e42:	fef41123          	sh	a5,-30(s0)
E:/桌面/19th智能车/单片机培训、考核/CH32V103_Library-master/Seekfree_CH32V103R8T6_Opensource_Library/Libraries/seekfree_libraries/zf_spi.c:125
            SPI_InitStructure.SPI_CPHA = SPI_CPHA_2Edge;                    //串行同步时钟的第二个跳变沿（上升或下降）数据被采样
    3e46:	4785                	li	a5,1
    3e48:	fef41223          	sh	a5,-28(s0)
E:/桌面/19th智能车/单片机培训、考核/CH32V103_Library-master/Seekfree_CH32V103R8T6_Opensource_Library/Libraries/seekfree_libraries/zf_spi.c:126
        }break;
    3e4c:	0001                	nop
E:/桌面/19th智能车/单片机培训、考核/CH32V103_Library-master/Seekfree_CH32V103R8T6_Opensource_Library/Libraries/seekfree_libraries/zf_spi.c:129
    }

    SPI_InitStructure.SPI_NSS = SPI_NSS_Soft;                               //主机模式，使用软件控制NSS引脚
    3e4e:	20000793          	li	a5,512
    3e52:	fef41323          	sh	a5,-26(s0)
E:/桌面/19th智能车/单片机培训、考核/CH32V103_Library-master/Seekfree_CH32V103R8T6_Opensource_Library/Libraries/seekfree_libraries/zf_spi.c:130
    SPI_InitStructure.SPI_BaudRatePrescaler = BaudRatePrescaler << 3;       //定义波特率预分频的值
    3e56:	fb442783          	lw	a5,-76(s0)
    3e5a:	07c2                	slli	a5,a5,0x10
    3e5c:	83c1                	srli	a5,a5,0x10
    3e5e:	078e                	slli	a5,a5,0x3
    3e60:	07c2                	slli	a5,a5,0x10
    3e62:	83c1                	srli	a5,a5,0x10
    3e64:	fef41423          	sh	a5,-24(s0)
E:/桌面/19th智能车/单片机培训、考核/CH32V103_Library-master/Seekfree_CH32V103R8T6_Opensource_Library/Libraries/seekfree_libraries/zf_spi.c:131
    SPI_InitStructure.SPI_FirstBit = SPI_FirstBit_MSB;                      //指定数据传输从MSB位还是LSB位开始:数据传输从MSB位开始
    3e68:	fe041523          	sh	zero,-22(s0)
E:/桌面/19th智能车/单片机培训、考核/CH32V103_Library-master/Seekfree_CH32V103R8T6_Opensource_Library/Libraries/seekfree_libraries/zf_spi.c:132
    SPI_InitStructure.SPI_CRCPolynomial = 7;                                //CRC值计算的多项式
    3e6c:	479d                	li	a5,7
    3e6e:	fef41623          	sh	a5,-20(s0)
E:/桌面/19th智能车/单片机培训、考核/CH32V103_Library-master/Seekfree_CH32V103R8T6_Opensource_Library/Libraries/seekfree_libraries/zf_spi.c:133
    SPI_Init((SPI_TypeDef *)(SPIN[spi_n]), &SPI_InitStructure);             //根据SPI_InitStruct中指定的参数初始化外设SPIx寄存器
    3e72:	fcc42703          	lw	a4,-52(s0)
    3e76:	070a                	slli	a4,a4,0x2
    3e78:	81018793          	addi	a5,gp,-2032 # 20000080 <SPIN>
    3e7c:	97ba                	add	a5,a5,a4
    3e7e:	439c                	lw	a5,0(a5)
    3e80:	873e                	mv	a4,a5
    3e82:	fdc40793          	addi	a5,s0,-36
    3e86:	85be                	mv	a1,a5
    3e88:	853a                	mv	a0,a4
    3e8a:	906fd0ef          	jal	ra,f90 <SPI_Init>
E:/桌面/19th智能车/单片机培训、考核/CH32V103_Library-master/Seekfree_CH32V103R8T6_Opensource_Library/Libraries/seekfree_libraries/zf_spi.c:135

    if(SPI1_SCK_PB3 == sck_pin) GPIO_PinRemapConfig(GPIO_Remap_SPI1, ENABLE);
    3e8e:	fc842703          	lw	a4,-56(s0)
    3e92:	47c1                	li	a5,16
    3e94:	00f71663          	bne	a4,a5,3ea0 <spi_init+0x118>
E:/桌面/19th智能车/单片机培训、考核/CH32V103_Library-master/Seekfree_CH32V103R8T6_Opensource_Library/Libraries/seekfree_libraries/zf_spi.c:135 (discriminator 1)
    3e98:	4585                	li	a1,1
    3e9a:	4505                	li	a0,1
    3e9c:	c87fc0ef          	jal	ra,b22 <GPIO_PinRemapConfig>
E:/桌面/19th智能车/单片机培训、考核/CH32V103_Library-master/Seekfree_CH32V103R8T6_Opensource_Library/Libraries/seekfree_libraries/zf_spi.c:137

    SPI_Cmd(((SPI_TypeDef *)(SPIN[spi_n])), ENABLE);                         //使能SPI外设
    3ea0:	fcc42703          	lw	a4,-52(s0)
    3ea4:	070a                	slli	a4,a4,0x2
    3ea6:	81018793          	addi	a5,gp,-2032 # 20000080 <SPIN>
    3eaa:	97ba                	add	a5,a5,a4
    3eac:	439c                	lw	a5,0(a5)
    3eae:	4585                	li	a1,1
    3eb0:	853e                	mv	a0,a5
    3eb2:	9d6fd0ef          	jal	ra,1088 <SPI_Cmd>
E:/桌面/19th智能车/单片机培训、考核/CH32V103_Library-master/Seekfree_CH32V103R8T6_Opensource_Library/Libraries/seekfree_libraries/zf_spi.c:139

}
    3eb6:	0001                	nop
    3eb8:	40b6                	lw	ra,76(sp)
    3eba:	4426                	lw	s0,72(sp)
    3ebc:	6161                	addi	sp,sp,80
    3ebe:	8082                	ret

00003ec0 <spi_mosi>:
spi_mosi():
E:/桌面/19th智能车/单片机培训、考核/CH32V103_Library-master/Seekfree_CH32V103R8T6_Opensource_Library/Libraries/seekfree_libraries/zf_spi.c:152
//  @return     void
//  @since      v2.0
//  Sample usage:               spi_mosi(SPI_1, buf, buf, 1);    //发送modata的内容，并接收到midata里，长度为1字节
//-------------------------------------------------------------------------------------------------------------------
void spi_mosi(SPIN_enum spi_n, uint8 *modata, uint8 *midata, uint32 len)
{
    3ec0:	1101                	addi	sp,sp,-32
    3ec2:	ce22                	sw	s0,28(sp)
    3ec4:	1000                	addi	s0,sp,32
    3ec6:	fea42623          	sw	a0,-20(s0)
    3eca:	feb42423          	sw	a1,-24(s0)
    3ece:	fec42223          	sw	a2,-28(s0)
    3ed2:	fed42023          	sw	a3,-32(s0)
E:/桌面/19th智能车/单片机培训、考核/CH32V103_Library-master/Seekfree_CH32V103R8T6_Opensource_Library/Libraries/seekfree_libraries/zf_spi.c:154
   // while((((SPI_TypeDef *)(SPIN[spi_n]))->STATR & SPI_I2S_FLAG_TXE) == RESET);
    while(len--)
    3ed6:	a859                	j	3f6c <spi_mosi+0xac>
E:/桌面/19th智能车/单片机培训、考核/CH32V103_Library-master/Seekfree_CH32V103R8T6_Opensource_Library/Libraries/seekfree_libraries/zf_spi.c:156
    {
        ((SPI_TypeDef *)(SPIN[spi_n]))->DATAR = *(modata++);
    3ed8:	fe842783          	lw	a5,-24(s0)
    3edc:	00178713          	addi	a4,a5,1
    3ee0:	fee42423          	sw	a4,-24(s0)
    3ee4:	0007c683          	lbu	a3,0(a5)
    3ee8:	fec42703          	lw	a4,-20(s0)
    3eec:	070a                	slli	a4,a4,0x2
    3eee:	81018793          	addi	a5,gp,-2032 # 20000080 <SPIN>
    3ef2:	97ba                	add	a5,a5,a4
    3ef4:	439c                	lw	a5,0(a5)
    3ef6:	873e                	mv	a4,a5
    3ef8:	01069793          	slli	a5,a3,0x10
    3efc:	83c1                	srli	a5,a5,0x10
    3efe:	00f71623          	sh	a5,12(a4) # 50000c <_data_lma+0x4f830c>
E:/桌面/19th智能车/单片机培训、考核/CH32V103_Library-master/Seekfree_CH32V103R8T6_Opensource_Library/Libraries/seekfree_libraries/zf_spi.c:157
        while((((SPI_TypeDef *)(SPIN[spi_n]))->STATR & SPI_I2S_FLAG_TXE) == RESET);
    3f02:	0001                	nop
E:/桌面/19th智能车/单片机培训、考核/CH32V103_Library-master/Seekfree_CH32V103R8T6_Opensource_Library/Libraries/seekfree_libraries/zf_spi.c:157 (discriminator 1)
    3f04:	fec42703          	lw	a4,-20(s0)
    3f08:	070a                	slli	a4,a4,0x2
    3f0a:	81018793          	addi	a5,gp,-2032 # 20000080 <SPIN>
    3f0e:	97ba                	add	a5,a5,a4
    3f10:	439c                	lw	a5,0(a5)
    3f12:	0087d783          	lhu	a5,8(a5)
    3f16:	07c2                	slli	a5,a5,0x10
    3f18:	83c1                	srli	a5,a5,0x10
    3f1a:	8b89                	andi	a5,a5,2
    3f1c:	d7e5                	beqz	a5,3f04 <spi_mosi+0x44>
E:/桌面/19th智能车/单片机培训、考核/CH32V103_Library-master/Seekfree_CH32V103R8T6_Opensource_Library/Libraries/seekfree_libraries/zf_spi.c:158
        if(NULL != midata)
    3f1e:	fe442783          	lw	a5,-28(s0)
    3f22:	c7a9                	beqz	a5,3f6c <spi_mosi+0xac>
E:/桌面/19th智能车/单片机培训、考核/CH32V103_Library-master/Seekfree_CH32V103R8T6_Opensource_Library/Libraries/seekfree_libraries/zf_spi.c:160
        {
            while((((SPI_TypeDef *)(SPIN[spi_n]))->STATR & SPI_I2S_FLAG_RXNE) == RESET);
    3f24:	0001                	nop
E:/桌面/19th智能车/单片机培训、考核/CH32V103_Library-master/Seekfree_CH32V103R8T6_Opensource_Library/Libraries/seekfree_libraries/zf_spi.c:160 (discriminator 1)
    3f26:	fec42703          	lw	a4,-20(s0)
    3f2a:	070a                	slli	a4,a4,0x2
    3f2c:	81018793          	addi	a5,gp,-2032 # 20000080 <SPIN>
    3f30:	97ba                	add	a5,a5,a4
    3f32:	439c                	lw	a5,0(a5)
    3f34:	0087d783          	lhu	a5,8(a5)
    3f38:	07c2                	slli	a5,a5,0x10
    3f3a:	83c1                	srli	a5,a5,0x10
    3f3c:	8b85                	andi	a5,a5,1
    3f3e:	d7e5                	beqz	a5,3f26 <spi_mosi+0x66>
E:/桌面/19th智能车/单片机培训、考核/CH32V103_Library-master/Seekfree_CH32V103R8T6_Opensource_Library/Libraries/seekfree_libraries/zf_spi.c:161
            *(midata++) = ((SPI_TypeDef *)(SPIN[spi_n]))->DATAR;
    3f40:	fec42703          	lw	a4,-20(s0)
    3f44:	070a                	slli	a4,a4,0x2
    3f46:	81018793          	addi	a5,gp,-2032 # 20000080 <SPIN>
    3f4a:	97ba                	add	a5,a5,a4
    3f4c:	439c                	lw	a5,0(a5)
    3f4e:	00c7d783          	lhu	a5,12(a5)
    3f52:	01079693          	slli	a3,a5,0x10
    3f56:	82c1                	srli	a3,a3,0x10
    3f58:	fe442783          	lw	a5,-28(s0)
    3f5c:	00178713          	addi	a4,a5,1
    3f60:	fee42223          	sw	a4,-28(s0)
    3f64:	0ff6f713          	andi	a4,a3,255
    3f68:	00e78023          	sb	a4,0(a5)
E:/桌面/19th智能车/单片机培训、考核/CH32V103_Library-master/Seekfree_CH32V103R8T6_Opensource_Library/Libraries/seekfree_libraries/zf_spi.c:154
    while(len--)
    3f6c:	fe042783          	lw	a5,-32(s0)
    3f70:	fff78713          	addi	a4,a5,-1
    3f74:	fee42023          	sw	a4,-32(s0)
    3f78:	f3a5                	bnez	a5,3ed8 <spi_mosi+0x18>
E:/桌面/19th智能车/单片机培训、考核/CH32V103_Library-master/Seekfree_CH32V103R8T6_Opensource_Library/Libraries/seekfree_libraries/zf_spi.c:164
        }
    }
}
    3f7a:	0001                	nop
    3f7c:	4472                	lw	s0,28(sp)
    3f7e:	6105                	addi	sp,sp,32
    3f80:	8082                	ret

00003f82 <systick_delay>:
systick_delay():
E:/桌面/19th智能车/单片机培训、考核/CH32V103_Library-master/Seekfree_CH32V103R8T6_Opensource_Library/Libraries/seekfree_libraries/zf_systick.c:29
//  @param      time                us
//  @return     void
//  Sample usage:                   内部使用，用户无需关心
//-------------------------------------------------------------------------------------------------------------------
void systick_delay(uint64 time)
{
    3f82:	1101                	addi	sp,sp,-32
    3f84:	ce22                	sw	s0,28(sp)
    3f86:	1000                	addi	s0,sp,32
    3f88:	fea42423          	sw	a0,-24(s0)
    3f8c:	feb42623          	sw	a1,-20(s0)
E:/桌面/19th智能车/单片机培训、考核/CH32V103_Library-master/Seekfree_CH32V103R8T6_Opensource_Library/Libraries/seekfree_libraries/zf_systick.c:30
    SysTick->CTLR = 0;
    3f90:	e000f737          	lui	a4,0xe000f
    3f94:	00072023          	sw	zero,0(a4) # e000f000 <_eusrstack+0xc000a000>
E:/桌面/19th智能车/单片机培训、考核/CH32V103_Library-master/Seekfree_CH32V103R8T6_Opensource_Library/Libraries/seekfree_libraries/zf_systick.c:31
    SysTick->CNTL0 = 0;
    3f98:	e000f737          	lui	a4,0xe000f
    3f9c:	00070223          	sb	zero,4(a4) # e000f004 <_eusrstack+0xc000a004>
E:/桌面/19th智能车/单片机培训、考核/CH32V103_Library-master/Seekfree_CH32V103R8T6_Opensource_Library/Libraries/seekfree_libraries/zf_systick.c:32
    SysTick->CNTL1 = 0;
    3fa0:	e000f737          	lui	a4,0xe000f
    3fa4:	000702a3          	sb	zero,5(a4) # e000f005 <_eusrstack+0xc000a005>
E:/桌面/19th智能车/单片机培训、考核/CH32V103_Library-master/Seekfree_CH32V103R8T6_Opensource_Library/Libraries/seekfree_libraries/zf_systick.c:33
    SysTick->CNTL2 = 0;
    3fa8:	e000f737          	lui	a4,0xe000f
    3fac:	00070323          	sb	zero,6(a4) # e000f006 <_eusrstack+0xc000a006>
E:/桌面/19th智能车/单片机培训、考核/CH32V103_Library-master/Seekfree_CH32V103R8T6_Opensource_Library/Libraries/seekfree_libraries/zf_systick.c:34
    SysTick->CNTL3 = 0;
    3fb0:	e000f737          	lui	a4,0xe000f
    3fb4:	000703a3          	sb	zero,7(a4) # e000f007 <_eusrstack+0xc000a007>
E:/桌面/19th智能车/单片机培训、考核/CH32V103_Library-master/Seekfree_CH32V103R8T6_Opensource_Library/Libraries/seekfree_libraries/zf_systick.c:35
    SysTick->CNTH0 = 0;
    3fb8:	e000f737          	lui	a4,0xe000f
    3fbc:	00070423          	sb	zero,8(a4) # e000f008 <_eusrstack+0xc000a008>
E:/桌面/19th智能车/单片机培训、考核/CH32V103_Library-master/Seekfree_CH32V103R8T6_Opensource_Library/Libraries/seekfree_libraries/zf_systick.c:36
    SysTick->CNTH1 = 0;
    3fc0:	e000f737          	lui	a4,0xe000f
    3fc4:	000704a3          	sb	zero,9(a4) # e000f009 <_eusrstack+0xc000a009>
E:/桌面/19th智能车/单片机培训、考核/CH32V103_Library-master/Seekfree_CH32V103R8T6_Opensource_Library/Libraries/seekfree_libraries/zf_systick.c:37
    SysTick->CNTH2 = 0;
    3fc8:	e000f737          	lui	a4,0xe000f
    3fcc:	00070523          	sb	zero,10(a4) # e000f00a <_eusrstack+0xc000a00a>
E:/桌面/19th智能车/单片机培训、考核/CH32V103_Library-master/Seekfree_CH32V103R8T6_Opensource_Library/Libraries/seekfree_libraries/zf_systick.c:38
    SysTick->CNTH3 = 0;
    3fd0:	e000f737          	lui	a4,0xe000f
    3fd4:	000705a3          	sb	zero,11(a4) # e000f00b <_eusrstack+0xc000a00b>
E:/桌面/19th智能车/单片机培训、考核/CH32V103_Library-master/Seekfree_CH32V103R8T6_Opensource_Library/Libraries/seekfree_libraries/zf_systick.c:39
    SysTick->CTLR = 1;          //启动系统计数器 systick（HCLK/8 时基） us
    3fd8:	e000f737          	lui	a4,0xe000f
    3fdc:	4685                	li	a3,1
    3fde:	c314                	sw	a3,0(a4)
E:/桌面/19th智能车/单片机培训、考核/CH32V103_Library-master/Seekfree_CH32V103R8T6_Opensource_Library/Libraries/seekfree_libraries/zf_systick.c:41

    while((*(volatile uint32*)0xE000F004) <= time);
    3fe0:	0001                	nop
E:/桌面/19th智能车/单片机培训、考核/CH32V103_Library-master/Seekfree_CH32V103R8T6_Opensource_Library/Libraries/seekfree_libraries/zf_systick.c:41 (discriminator 1)
    3fe2:	e000f737          	lui	a4,0xe000f
    3fe6:	0711                	addi	a4,a4,4
    3fe8:	4318                	lw	a4,0(a4)
    3fea:	87ba                	mv	a5,a4
    3fec:	4801                	li	a6,0
    3fee:	fec42703          	lw	a4,-20(s0)
    3ff2:	86c2                	mv	a3,a6
    3ff4:	00d76d63          	bltu	a4,a3,400e <systick_delay+0x8c>
    3ff8:	fec42703          	lw	a4,-20(s0)
    3ffc:	86c2                	mv	a3,a6
    3ffe:	fed712e3          	bne	a4,a3,3fe2 <systick_delay+0x60>
    4002:	fe842703          	lw	a4,-24(s0)
    4006:	86be                	mv	a3,a5
    4008:	00d76363          	bltu	a4,a3,400e <systick_delay+0x8c>
    400c:	bfd9                	j	3fe2 <systick_delay+0x60>
E:/桌面/19th智能车/单片机培训、考核/CH32V103_Library-master/Seekfree_CH32V103R8T6_Opensource_Library/Libraries/seekfree_libraries/zf_systick.c:42
}
    400e:	0001                	nop
    4010:	4472                	lw	s0,28(sp)
    4012:	6105                	addi	sp,sp,32
    4014:	8082                	ret

00004016 <timer_gpio_quad_init>:
timer_gpio_quad_init():
E:/桌面/19th智能车/单片机培训、考核/CH32V103_Library-master/Seekfree_CH32V103R8T6_Opensource_Library/Libraries/seekfree_libraries/zf_timer.c:40
//  @param      phaseB      通道B以及引脚
//  @return     void
//  Sample usage:           内部使用，用户无需关心
//-------------------------------------------------------------------------------------------------------------------
void timer_gpio_quad_init(TIMER_PIN_enum phaseA, TIMER_PIN_enum phaseB)
{
    4016:	1101                	addi	sp,sp,-32
    4018:	ce06                	sw	ra,28(sp)
    401a:	cc22                	sw	s0,24(sp)
    401c:	1000                	addi	s0,sp,32
    401e:	fea42623          	sw	a0,-20(s0)
    4022:	feb42423          	sw	a1,-24(s0)
E:/桌面/19th智能车/单片机培训、考核/CH32V103_Library-master/Seekfree_CH32V103R8T6_Opensource_Library/Libraries/seekfree_libraries/zf_timer.c:41
    if(TIMER1_CHA_A8 == phaseA)       gpio_init(A8, GPI, 0, IN_FLOAT);
    4026:	fec42783          	lw	a5,-20(s0)
    402a:	eb81                	bnez	a5,403a <timer_gpio_quad_init+0x24>
E:/桌面/19th智能车/单片机培训、考核/CH32V103_Library-master/Seekfree_CH32V103R8T6_Opensource_Library/Libraries/seekfree_libraries/zf_timer.c:41 (discriminator 1)
    402c:	4691                	li	a3,4
    402e:	4601                	li	a2,0
    4030:	4581                	li	a1,0
    4032:	4521                	li	a0,8
    4034:	8f6ff0ef          	jal	ra,312a <gpio_init>
    4038:	a859                	j	40ce <timer_gpio_quad_init+0xb8>
E:/桌面/19th智能车/单片机培训、考核/CH32V103_Library-master/Seekfree_CH32V103R8T6_Opensource_Library/Libraries/seekfree_libraries/zf_timer.c:42
    else if(TIMER2_CHA_A0 == phaseA)  gpio_init(A0, GPI, 0, IN_FLOAT);
    403a:	fec42703          	lw	a4,-20(s0)
    403e:	4789                	li	a5,2
    4040:	00f71963          	bne	a4,a5,4052 <timer_gpio_quad_init+0x3c>
E:/桌面/19th智能车/单片机培训、考核/CH32V103_Library-master/Seekfree_CH32V103R8T6_Opensource_Library/Libraries/seekfree_libraries/zf_timer.c:42 (discriminator 1)
    4044:	4691                	li	a3,4
    4046:	4601                	li	a2,0
    4048:	4581                	li	a1,0
    404a:	4501                	li	a0,0
    404c:	8deff0ef          	jal	ra,312a <gpio_init>
    4050:	a8bd                	j	40ce <timer_gpio_quad_init+0xb8>
E:/桌面/19th智能车/单片机培训、考核/CH32V103_Library-master/Seekfree_CH32V103R8T6_Opensource_Library/Libraries/seekfree_libraries/zf_timer.c:43
    else if(TIMER2_CHA_A15 == phaseA) gpio_init(A15, GPI, 0, IN_FLOAT);
    4052:	fec42703          	lw	a4,-20(s0)
    4056:	4791                	li	a5,4
    4058:	00f71963          	bne	a4,a5,406a <timer_gpio_quad_init+0x54>
E:/桌面/19th智能车/单片机培训、考核/CH32V103_Library-master/Seekfree_CH32V103R8T6_Opensource_Library/Libraries/seekfree_libraries/zf_timer.c:43 (discriminator 1)
    405c:	4691                	li	a3,4
    405e:	4601                	li	a2,0
    4060:	4581                	li	a1,0
    4062:	453d                	li	a0,15
    4064:	8c6ff0ef          	jal	ra,312a <gpio_init>
    4068:	a09d                	j	40ce <timer_gpio_quad_init+0xb8>
E:/桌面/19th智能车/单片机培训、考核/CH32V103_Library-master/Seekfree_CH32V103R8T6_Opensource_Library/Libraries/seekfree_libraries/zf_timer.c:44
    else if(TIMER3_CHA_A6 == phaseA)  gpio_init(A6, GPI, 0, IN_FLOAT);
    406a:	fec42703          	lw	a4,-20(s0)
    406e:	4799                	li	a5,6
    4070:	00f71963          	bne	a4,a5,4082 <timer_gpio_quad_init+0x6c>
E:/桌面/19th智能车/单片机培训、考核/CH32V103_Library-master/Seekfree_CH32V103R8T6_Opensource_Library/Libraries/seekfree_libraries/zf_timer.c:44 (discriminator 1)
    4074:	4691                	li	a3,4
    4076:	4601                	li	a2,0
    4078:	4581                	li	a1,0
    407a:	4519                	li	a0,6
    407c:	8aeff0ef          	jal	ra,312a <gpio_init>
    4080:	a0b9                	j	40ce <timer_gpio_quad_init+0xb8>
E:/桌面/19th智能车/单片机培训、考核/CH32V103_Library-master/Seekfree_CH32V103R8T6_Opensource_Library/Libraries/seekfree_libraries/zf_timer.c:45
    else if(TIMER3_CHA_C6 == phaseA)  gpio_init(C6, GPI, 0, IN_FLOAT);
    4082:	fec42703          	lw	a4,-20(s0)
    4086:	47a1                	li	a5,8
    4088:	00f71a63          	bne	a4,a5,409c <timer_gpio_quad_init+0x86>
E:/桌面/19th智能车/单片机培训、考核/CH32V103_Library-master/Seekfree_CH32V103R8T6_Opensource_Library/Libraries/seekfree_libraries/zf_timer.c:45 (discriminator 1)
    408c:	4691                	li	a3,4
    408e:	4601                	li	a2,0
    4090:	4581                	li	a1,0
    4092:	04600513          	li	a0,70
    4096:	894ff0ef          	jal	ra,312a <gpio_init>
    409a:	a815                	j	40ce <timer_gpio_quad_init+0xb8>
E:/桌面/19th智能车/单片机培训、考核/CH32V103_Library-master/Seekfree_CH32V103R8T6_Opensource_Library/Libraries/seekfree_libraries/zf_timer.c:46
    else if(TIMER3_CHA_B4 == phaseA)  gpio_init(B4, GPI, 0, IN_FLOAT);
    409c:	fec42703          	lw	a4,-20(s0)
    40a0:	47a9                	li	a5,10
    40a2:	00f71a63          	bne	a4,a5,40b6 <timer_gpio_quad_init+0xa0>
E:/桌面/19th智能车/单片机培训、考核/CH32V103_Library-master/Seekfree_CH32V103R8T6_Opensource_Library/Libraries/seekfree_libraries/zf_timer.c:46 (discriminator 1)
    40a6:	4691                	li	a3,4
    40a8:	4601                	li	a2,0
    40aa:	4581                	li	a1,0
    40ac:	02400513          	li	a0,36
    40b0:	87aff0ef          	jal	ra,312a <gpio_init>
    40b4:	a829                	j	40ce <timer_gpio_quad_init+0xb8>
E:/桌面/19th智能车/单片机培训、考核/CH32V103_Library-master/Seekfree_CH32V103R8T6_Opensource_Library/Libraries/seekfree_libraries/zf_timer.c:47
    else if(TIMER4_CHA_B6 == phaseA)  gpio_init(B6, GPI, 0, IN_FLOAT);
    40b6:	fec42703          	lw	a4,-20(s0)
    40ba:	47b1                	li	a5,12
    40bc:	00f71963          	bne	a4,a5,40ce <timer_gpio_quad_init+0xb8>
E:/桌面/19th智能车/单片机培训、考核/CH32V103_Library-master/Seekfree_CH32V103R8T6_Opensource_Library/Libraries/seekfree_libraries/zf_timer.c:47 (discriminator 1)
    40c0:	4691                	li	a3,4
    40c2:	4601                	li	a2,0
    40c4:	4581                	li	a1,0
    40c6:	02600513          	li	a0,38
    40ca:	860ff0ef          	jal	ra,312a <gpio_init>
E:/桌面/19th智能车/单片机培训、考核/CH32V103_Library-master/Seekfree_CH32V103R8T6_Opensource_Library/Libraries/seekfree_libraries/zf_timer.c:49

    if(TIMER1_CHB_A9 == phaseB)       gpio_init(A9, GPI, 0, IN_FLOAT);
    40ce:	fe842703          	lw	a4,-24(s0)
    40d2:	4785                	li	a5,1
    40d4:	00f71963          	bne	a4,a5,40e6 <timer_gpio_quad_init+0xd0>
E:/桌面/19th智能车/单片机培训、考核/CH32V103_Library-master/Seekfree_CH32V103R8T6_Opensource_Library/Libraries/seekfree_libraries/zf_timer.c:49 (discriminator 1)
    40d8:	4691                	li	a3,4
    40da:	4601                	li	a2,0
    40dc:	4581                	li	a1,0
    40de:	4525                	li	a0,9
    40e0:	84aff0ef          	jal	ra,312a <gpio_init>
E:/桌面/19th智能车/单片机培训、考核/CH32V103_Library-master/Seekfree_CH32V103R8T6_Opensource_Library/Libraries/seekfree_libraries/zf_timer.c:57 (discriminator 1)
    else if(TIMER3_CHB_A7 == phaseB)  gpio_init(A7, GPI, 0, IN_FLOAT);
    else if(TIMER3_CHB_C7 == phaseB)  gpio_init(C7, GPI, 0, IN_FLOAT);
    else if(TIMER3_CHB_B5 == phaseB)  gpio_init(B5, GPI, 0, IN_FLOAT);
    else if(TIMER4_CHB_B7 == phaseB)  gpio_init(B7, GPI, 0, IN_FLOAT);

}
    40e4:	a861                	j	417c <timer_gpio_quad_init+0x166>
E:/桌面/19th智能车/单片机培训、考核/CH32V103_Library-master/Seekfree_CH32V103R8T6_Opensource_Library/Libraries/seekfree_libraries/zf_timer.c:50
    else if(TIMER2_CHB_A1 == phaseB)  gpio_init(A1, GPI, 0, IN_FLOAT);
    40e6:	fe842703          	lw	a4,-24(s0)
    40ea:	478d                	li	a5,3
    40ec:	00f71963          	bne	a4,a5,40fe <timer_gpio_quad_init+0xe8>
E:/桌面/19th智能车/单片机培训、考核/CH32V103_Library-master/Seekfree_CH32V103R8T6_Opensource_Library/Libraries/seekfree_libraries/zf_timer.c:50 (discriminator 1)
    40f0:	4691                	li	a3,4
    40f2:	4601                	li	a2,0
    40f4:	4581                	li	a1,0
    40f6:	4505                	li	a0,1
    40f8:	832ff0ef          	jal	ra,312a <gpio_init>
E:/桌面/19th智能车/单片机培训、考核/CH32V103_Library-master/Seekfree_CH32V103R8T6_Opensource_Library/Libraries/seekfree_libraries/zf_timer.c:57 (discriminator 1)
}
    40fc:	a041                	j	417c <timer_gpio_quad_init+0x166>
E:/桌面/19th智能车/单片机培训、考核/CH32V103_Library-master/Seekfree_CH32V103R8T6_Opensource_Library/Libraries/seekfree_libraries/zf_timer.c:51
    else if(TIMER2_CHB_B3 == phaseB)  gpio_init(B3, GPI, 0, IN_FLOAT);
    40fe:	fe842703          	lw	a4,-24(s0)
    4102:	4795                	li	a5,5
    4104:	00f71a63          	bne	a4,a5,4118 <timer_gpio_quad_init+0x102>
E:/桌面/19th智能车/单片机培训、考核/CH32V103_Library-master/Seekfree_CH32V103R8T6_Opensource_Library/Libraries/seekfree_libraries/zf_timer.c:51 (discriminator 1)
    4108:	4691                	li	a3,4
    410a:	4601                	li	a2,0
    410c:	4581                	li	a1,0
    410e:	02300513          	li	a0,35
    4112:	818ff0ef          	jal	ra,312a <gpio_init>
E:/桌面/19th智能车/单片机培训、考核/CH32V103_Library-master/Seekfree_CH32V103R8T6_Opensource_Library/Libraries/seekfree_libraries/zf_timer.c:57 (discriminator 1)
}
    4116:	a09d                	j	417c <timer_gpio_quad_init+0x166>
E:/桌面/19th智能车/单片机培训、考核/CH32V103_Library-master/Seekfree_CH32V103R8T6_Opensource_Library/Libraries/seekfree_libraries/zf_timer.c:52
    else if(TIMER3_CHB_A7 == phaseB)  gpio_init(A7, GPI, 0, IN_FLOAT);
    4118:	fe842703          	lw	a4,-24(s0)
    411c:	479d                	li	a5,7
    411e:	00f71963          	bne	a4,a5,4130 <timer_gpio_quad_init+0x11a>
E:/桌面/19th智能车/单片机培训、考核/CH32V103_Library-master/Seekfree_CH32V103R8T6_Opensource_Library/Libraries/seekfree_libraries/zf_timer.c:52 (discriminator 1)
    4122:	4691                	li	a3,4
    4124:	4601                	li	a2,0
    4126:	4581                	li	a1,0
    4128:	451d                	li	a0,7
    412a:	800ff0ef          	jal	ra,312a <gpio_init>
E:/桌面/19th智能车/单片机培训、考核/CH32V103_Library-master/Seekfree_CH32V103R8T6_Opensource_Library/Libraries/seekfree_libraries/zf_timer.c:57 (discriminator 1)
}
    412e:	a0b9                	j	417c <timer_gpio_quad_init+0x166>
E:/桌面/19th智能车/单片机培训、考核/CH32V103_Library-master/Seekfree_CH32V103R8T6_Opensource_Library/Libraries/seekfree_libraries/zf_timer.c:53
    else if(TIMER3_CHB_C7 == phaseB)  gpio_init(C7, GPI, 0, IN_FLOAT);
    4130:	fe842703          	lw	a4,-24(s0)
    4134:	47a5                	li	a5,9
    4136:	00f71a63          	bne	a4,a5,414a <timer_gpio_quad_init+0x134>
E:/桌面/19th智能车/单片机培训、考核/CH32V103_Library-master/Seekfree_CH32V103R8T6_Opensource_Library/Libraries/seekfree_libraries/zf_timer.c:53 (discriminator 1)
    413a:	4691                	li	a3,4
    413c:	4601                	li	a2,0
    413e:	4581                	li	a1,0
    4140:	04700513          	li	a0,71
    4144:	fe7fe0ef          	jal	ra,312a <gpio_init>
E:/桌面/19th智能车/单片机培训、考核/CH32V103_Library-master/Seekfree_CH32V103R8T6_Opensource_Library/Libraries/seekfree_libraries/zf_timer.c:57 (discriminator 1)
}
    4148:	a815                	j	417c <timer_gpio_quad_init+0x166>
E:/桌面/19th智能车/单片机培训、考核/CH32V103_Library-master/Seekfree_CH32V103R8T6_Opensource_Library/Libraries/seekfree_libraries/zf_timer.c:54
    else if(TIMER3_CHB_B5 == phaseB)  gpio_init(B5, GPI, 0, IN_FLOAT);
    414a:	fe842703          	lw	a4,-24(s0)
    414e:	47ad                	li	a5,11
    4150:	00f71a63          	bne	a4,a5,4164 <timer_gpio_quad_init+0x14e>
E:/桌面/19th智能车/单片机培训、考核/CH32V103_Library-master/Seekfree_CH32V103R8T6_Opensource_Library/Libraries/seekfree_libraries/zf_timer.c:54 (discriminator 1)
    4154:	4691                	li	a3,4
    4156:	4601                	li	a2,0
    4158:	4581                	li	a1,0
    415a:	02500513          	li	a0,37
    415e:	fcdfe0ef          	jal	ra,312a <gpio_init>
E:/桌面/19th智能车/单片机培训、考核/CH32V103_Library-master/Seekfree_CH32V103R8T6_Opensource_Library/Libraries/seekfree_libraries/zf_timer.c:57 (discriminator 1)
}
    4162:	a829                	j	417c <timer_gpio_quad_init+0x166>
E:/桌面/19th智能车/单片机培训、考核/CH32V103_Library-master/Seekfree_CH32V103R8T6_Opensource_Library/Libraries/seekfree_libraries/zf_timer.c:55
    else if(TIMER4_CHB_B7 == phaseB)  gpio_init(B7, GPI, 0, IN_FLOAT);
    4164:	fe842703          	lw	a4,-24(s0)
    4168:	47b5                	li	a5,13
    416a:	00f71963          	bne	a4,a5,417c <timer_gpio_quad_init+0x166>
E:/桌面/19th智能车/单片机培训、考核/CH32V103_Library-master/Seekfree_CH32V103R8T6_Opensource_Library/Libraries/seekfree_libraries/zf_timer.c:55 (discriminator 1)
    416e:	4691                	li	a3,4
    4170:	4601                	li	a2,0
    4172:	4581                	li	a1,0
    4174:	02700513          	li	a0,39
    4178:	fb3fe0ef          	jal	ra,312a <gpio_init>
E:/桌面/19th智能车/单片机培训、考核/CH32V103_Library-master/Seekfree_CH32V103R8T6_Opensource_Library/Libraries/seekfree_libraries/zf_timer.c:57
}
    417c:	0001                	nop
    417e:	40f2                	lw	ra,28(sp)
    4180:	4462                	lw	s0,24(sp)
    4182:	6105                	addi	sp,sp,32
    4184:	8082                	ret

00004186 <timer_quad_init>:
timer_quad_init():
E:/桌面/19th智能车/单片机培训、考核/CH32V103_Library-master/Seekfree_CH32V103R8T6_Opensource_Library/Libraries/seekfree_libraries/zf_timer.c:69
//  @param      phaseB      通道B以及引脚
//  @return     void
//  Sample usage:           推荐使用正交解码编码器。
//-------------------------------------------------------------------------------------------------------------------
void timer_quad_init(TIMERN_enum timern, TIMER_PIN_enum phaseA, TIMER_PIN_enum phaseB)
{
    4186:	7179                	addi	sp,sp,-48
    4188:	d606                	sw	ra,44(sp)
    418a:	d422                	sw	s0,40(sp)
    418c:	1800                	addi	s0,sp,48
    418e:	fca42e23          	sw	a0,-36(s0)
    4192:	fcb42c23          	sw	a1,-40(s0)
    4196:	fcc42a23          	sw	a2,-44(s0)
E:/桌面/19th智能车/单片机培训、考核/CH32V103_Library-master/Seekfree_CH32V103R8T6_Opensource_Library/Libraries/seekfree_libraries/zf_timer.c:72
    TIM_TimeBaseInitTypeDef TIM_TimeBaseStructure;

    if(TIMER_1 == timern)       RCC_APB2PeriphClockCmd(RCC_APB2Periph_TIM1, ENABLE);//使能定时器1的时钟
    419a:	fdc42783          	lw	a5,-36(s0)
    419e:	eb81                	bnez	a5,41ae <timer_quad_init+0x28>
E:/桌面/19th智能车/单片机培训、考核/CH32V103_Library-master/Seekfree_CH32V103R8T6_Opensource_Library/Libraries/seekfree_libraries/zf_timer.c:72 (discriminator 1)
    41a0:	4585                	li	a1,1
    41a2:	6785                	lui	a5,0x1
    41a4:	80078513          	addi	a0,a5,-2048 # 800 <__stack_size>
    41a8:	d17fc0ef          	jal	ra,ebe <RCC_APB2PeriphClockCmd>
    41ac:	a835                	j	41e8 <timer_quad_init+0x62>
E:/桌面/19th智能车/单片机培训、考核/CH32V103_Library-master/Seekfree_CH32V103R8T6_Opensource_Library/Libraries/seekfree_libraries/zf_timer.c:73
    else  if(TIMER_2 == timern) RCC_APB1PeriphClockCmd(RCC_APB1Periph_TIM2, ENABLE);//使能定时器2的时钟
    41ae:	fdc42703          	lw	a4,-36(s0)
    41b2:	4785                	li	a5,1
    41b4:	00f71763          	bne	a4,a5,41c2 <timer_quad_init+0x3c>
E:/桌面/19th智能车/单片机培训、考核/CH32V103_Library-master/Seekfree_CH32V103R8T6_Opensource_Library/Libraries/seekfree_libraries/zf_timer.c:73 (discriminator 1)
    41b8:	4585                	li	a1,1
    41ba:	4505                	li	a0,1
    41bc:	d49fc0ef          	jal	ra,f04 <RCC_APB1PeriphClockCmd>
    41c0:	a025                	j	41e8 <timer_quad_init+0x62>
E:/桌面/19th智能车/单片机培训、考核/CH32V103_Library-master/Seekfree_CH32V103R8T6_Opensource_Library/Libraries/seekfree_libraries/zf_timer.c:74
    else  if(TIMER_3 == timern) RCC_APB1PeriphClockCmd(RCC_APB1Periph_TIM3, ENABLE);//使能定时器3的时钟
    41c2:	fdc42703          	lw	a4,-36(s0)
    41c6:	4789                	li	a5,2
    41c8:	00f71763          	bne	a4,a5,41d6 <timer_quad_init+0x50>
E:/桌面/19th智能车/单片机培训、考核/CH32V103_Library-master/Seekfree_CH32V103R8T6_Opensource_Library/Libraries/seekfree_libraries/zf_timer.c:74 (discriminator 1)
    41cc:	4585                	li	a1,1
    41ce:	4509                	li	a0,2
    41d0:	d35fc0ef          	jal	ra,f04 <RCC_APB1PeriphClockCmd>
    41d4:	a811                	j	41e8 <timer_quad_init+0x62>
E:/桌面/19th智能车/单片机培训、考核/CH32V103_Library-master/Seekfree_CH32V103R8T6_Opensource_Library/Libraries/seekfree_libraries/zf_timer.c:75
    else  if(TIMER_4 == timern) RCC_APB1PeriphClockCmd(RCC_APB1Periph_TIM4, ENABLE);//使能定时器4的时钟
    41d6:	fdc42703          	lw	a4,-36(s0)
    41da:	478d                	li	a5,3
    41dc:	00f71663          	bne	a4,a5,41e8 <timer_quad_init+0x62>
E:/桌面/19th智能车/单片机培训、考核/CH32V103_Library-master/Seekfree_CH32V103R8T6_Opensource_Library/Libraries/seekfree_libraries/zf_timer.c:75 (discriminator 1)
    41e0:	4585                	li	a1,1
    41e2:	4511                	li	a0,4
    41e4:	d21fc0ef          	jal	ra,f04 <RCC_APB1PeriphClockCmd>
E:/桌面/19th智能车/单片机培训、考核/CH32V103_Library-master/Seekfree_CH32V103R8T6_Opensource_Library/Libraries/seekfree_libraries/zf_timer.c:77

    timer_gpio_quad_init(phaseA, phaseB);                                           //初始化引脚
    41e8:	fd442583          	lw	a1,-44(s0)
    41ec:	fd842503          	lw	a0,-40(s0)
    41f0:	351d                	jal	4016 <timer_gpio_quad_init>
E:/桌面/19th智能车/单片机培训、考核/CH32V103_Library-master/Seekfree_CH32V103R8T6_Opensource_Library/Libraries/seekfree_libraries/zf_timer.c:79

    RCC_APB2PeriphClockCmd(RCC_APB2Periph_AFIO, ENABLE);                            //使能AFIO复用功能模块时钟
    41f2:	4585                	li	a1,1
    41f4:	4505                	li	a0,1
    41f6:	cc9fc0ef          	jal	ra,ebe <RCC_APB2PeriphClockCmd>
E:/桌面/19th智能车/单片机培训、考核/CH32V103_Library-master/Seekfree_CH32V103R8T6_Opensource_Library/Libraries/seekfree_libraries/zf_timer.c:81

    if(TIMER2_CHA_A15 == phaseA && TIMER2_CHB_B3 == phaseB)                         //引脚重映射
    41fa:	fd842703          	lw	a4,-40(s0)
    41fe:	4791                	li	a5,4
    4200:	00f71f63          	bne	a4,a5,421e <timer_quad_init+0x98>
E:/桌面/19th智能车/单片机培训、考核/CH32V103_Library-master/Seekfree_CH32V103R8T6_Opensource_Library/Libraries/seekfree_libraries/zf_timer.c:81 (discriminator 1)
    4204:	fd442703          	lw	a4,-44(s0)
    4208:	4795                	li	a5,5
    420a:	00f71a63          	bne	a4,a5,421e <timer_quad_init+0x98>
E:/桌面/19th智能车/单片机培训、考核/CH32V103_Library-master/Seekfree_CH32V103R8T6_Opensource_Library/Libraries/seekfree_libraries/zf_timer.c:82
        GPIO_PinRemapConfig(GPIO_FullRemap_TIM2, ENABLE);
    420e:	4585                	li	a1,1
    4210:	001807b7          	lui	a5,0x180
    4214:	30078513          	addi	a0,a5,768 # 180300 <_data_lma+0x178600>
    4218:	90bfc0ef          	jal	ra,b22 <GPIO_PinRemapConfig>
    421c:	a0a1                	j	4264 <timer_quad_init+0xde>
E:/桌面/19th智能车/单片机培训、考核/CH32V103_Library-master/Seekfree_CH32V103R8T6_Opensource_Library/Libraries/seekfree_libraries/zf_timer.c:83
    else    if(TIMER3_CHA_C6 == phaseA && TIMER3_CHB_C7 == phaseB)
    421e:	fd842703          	lw	a4,-40(s0)
    4222:	47a1                	li	a5,8
    4224:	00f71f63          	bne	a4,a5,4242 <timer_quad_init+0xbc>
E:/桌面/19th智能车/单片机培训、考核/CH32V103_Library-master/Seekfree_CH32V103R8T6_Opensource_Library/Libraries/seekfree_libraries/zf_timer.c:83 (discriminator 1)
    4228:	fd442703          	lw	a4,-44(s0)
    422c:	47a5                	li	a5,9
    422e:	00f71a63          	bne	a4,a5,4242 <timer_quad_init+0xbc>
E:/桌面/19th智能车/单片机培训、考核/CH32V103_Library-master/Seekfree_CH32V103R8T6_Opensource_Library/Libraries/seekfree_libraries/zf_timer.c:84
        GPIO_PinRemapConfig(GPIO_FullRemap_TIM3, ENABLE);
    4232:	4585                	li	a1,1
    4234:	001a17b7          	lui	a5,0x1a1
    4238:	c0078513          	addi	a0,a5,-1024 # 1a0c00 <_data_lma+0x198f00>
    423c:	8e7fc0ef          	jal	ra,b22 <GPIO_PinRemapConfig>
    4240:	a015                	j	4264 <timer_quad_init+0xde>
E:/桌面/19th智能车/单片机培训、考核/CH32V103_Library-master/Seekfree_CH32V103R8T6_Opensource_Library/Libraries/seekfree_libraries/zf_timer.c:85
    else    if(TIMER3_CHA_B4 == phaseA && TIMER3_CHB_B5 == phaseB)
    4242:	fd842703          	lw	a4,-40(s0)
    4246:	47a9                	li	a5,10
    4248:	00f71e63          	bne	a4,a5,4264 <timer_quad_init+0xde>
E:/桌面/19th智能车/单片机培训、考核/CH32V103_Library-master/Seekfree_CH32V103R8T6_Opensource_Library/Libraries/seekfree_libraries/zf_timer.c:85 (discriminator 1)
    424c:	fd442703          	lw	a4,-44(s0)
    4250:	47ad                	li	a5,11
    4252:	00f71963          	bne	a4,a5,4264 <timer_quad_init+0xde>
E:/桌面/19th智能车/单片机培训、考核/CH32V103_Library-master/Seekfree_CH32V103R8T6_Opensource_Library/Libraries/seekfree_libraries/zf_timer.c:86
        GPIO_PinRemapConfig(GPIO_PartialRemap_TIM3, ENABLE);
    4256:	4585                	li	a1,1
    4258:	001a17b7          	lui	a5,0x1a1
    425c:	80078513          	addi	a0,a5,-2048 # 1a0800 <_data_lma+0x198b00>
    4260:	8c3fc0ef          	jal	ra,b22 <GPIO_PinRemapConfig>
E:/桌面/19th智能车/单片机培训、考核/CH32V103_Library-master/Seekfree_CH32V103R8T6_Opensource_Library/Libraries/seekfree_libraries/zf_timer.c:88

    TIM_TimeBaseStructInit(&TIM_TimeBaseStructure);
    4264:	fe440793          	addi	a5,s0,-28
    4268:	853e                	mv	a0,a5
    426a:	d92fd0ef          	jal	ra,17fc <TIM_TimeBaseStructInit>
E:/桌面/19th智能车/单片机培训、考核/CH32V103_Library-master/Seekfree_CH32V103R8T6_Opensource_Library/Libraries/seekfree_libraries/zf_timer.c:89
    TIM_TimeBaseStructure.TIM_Prescaler = 1;                                        //预分频器
    426e:	4785                	li	a5,1
    4270:	fef41223          	sh	a5,-28(s0)
E:/桌面/19th智能车/单片机培训、考核/CH32V103_Library-master/Seekfree_CH32V103R8T6_Opensource_Library/Libraries/seekfree_libraries/zf_timer.c:90
    TIM_TimeBaseStructure.TIM_Period = 0xFFFF;                                      //设定计数器自动重装值
    4274:	57fd                	li	a5,-1
    4276:	fef41423          	sh	a5,-24(s0)
E:/桌面/19th智能车/单片机培训、考核/CH32V103_Library-master/Seekfree_CH32V103R8T6_Opensource_Library/Libraries/seekfree_libraries/zf_timer.c:91
    TIM_TimeBaseStructure.TIM_ClockDivision = TIM_CKD_DIV1;                         //选择时钟分频：不分频
    427a:	fe041523          	sh	zero,-22(s0)
E:/桌面/19th智能车/单片机培训、考核/CH32V103_Library-master/Seekfree_CH32V103R8T6_Opensource_Library/Libraries/seekfree_libraries/zf_timer.c:92
    TIM_TimeBaseStructure.TIM_CounterMode = TIM_CounterMode_Up;                     //TIM向上计数
    427e:	fe041323          	sh	zero,-26(s0)
E:/桌面/19th智能车/单片机培训、考核/CH32V103_Library-master/Seekfree_CH32V103R8T6_Opensource_Library/Libraries/seekfree_libraries/zf_timer.c:93
    TIM_TimeBaseStructure.TIM_RepetitionCounter = 0;                                //重复计数器
    4282:	fe040623          	sb	zero,-20(s0)
E:/桌面/19th智能车/单片机培训、考核/CH32V103_Library-master/Seekfree_CH32V103R8T6_Opensource_Library/Libraries/seekfree_libraries/zf_timer.c:94
    TIM_TimeBaseInit((TIM_TypeDef*)(TIMERN[timern]), &TIM_TimeBaseStructure);       //初始化结构体
    4286:	67a1                	lui	a5,0x8
    4288:	fdc42703          	lw	a4,-36(s0)
    428c:	070a                	slli	a4,a4,0x2
    428e:	a8c78793          	addi	a5,a5,-1396 # 7a8c <TIMERN>
    4292:	97ba                	add	a5,a5,a4
    4294:	439c                	lw	a5,0(a5)
    4296:	873e                	mv	a4,a5
    4298:	fe440793          	addi	a5,s0,-28
    429c:	85be                	mv	a1,a5
    429e:	853a                	mv	a0,a4
    42a0:	e43fc0ef          	jal	ra,10e2 <TIM_TimeBaseInit>
E:/桌面/19th智能车/单片机培训、考核/CH32V103_Library-master/Seekfree_CH32V103R8T6_Opensource_Library/Libraries/seekfree_libraries/zf_timer.c:95
    TIM_EncoderInterfaceConfig((TIM_TypeDef*)(TIMERN[timern]), TIM_EncoderMode_TI2 , TIM_ICPolarity_Rising, TIM_ICPolarity_Rising);//使用编码器模式
    42a4:	67a1                	lui	a5,0x8
    42a6:	fdc42703          	lw	a4,-36(s0)
    42aa:	070a                	slli	a4,a4,0x2
    42ac:	a8c78793          	addi	a5,a5,-1396 # 7a8c <TIMERN>
    42b0:	97ba                	add	a5,a5,a4
    42b2:	439c                	lw	a5,0(a5)
    42b4:	4681                	li	a3,0
    42b6:	4601                	li	a2,0
    42b8:	4589                	li	a1,2
    42ba:	853e                	mv	a0,a5
    42bc:	e34fd0ef          	jal	ra,18f0 <TIM_EncoderInterfaceConfig>
E:/桌面/19th智能车/单片机培训、考核/CH32V103_Library-master/Seekfree_CH32V103R8T6_Opensource_Library/Libraries/seekfree_libraries/zf_timer.c:97

    TIM_Cmd((TIM_TypeDef*)(TIMERN[timern]), ENABLE);                                //定时器使能
    42c0:	67a1                	lui	a5,0x8
    42c2:	fdc42703          	lw	a4,-36(s0)
    42c6:	070a                	slli	a4,a4,0x2
    42c8:	a8c78793          	addi	a5,a5,-1396 # 7a8c <TIMERN>
    42cc:	97ba                	add	a5,a5,a4
    42ce:	439c                	lw	a5,0(a5)
    42d0:	4585                	li	a1,1
    42d2:	853e                	mv	a0,a5
    42d4:	d64fd0ef          	jal	ra,1838 <TIM_Cmd>
E:/桌面/19th智能车/单片机培训、考核/CH32V103_Library-master/Seekfree_CH32V103R8T6_Opensource_Library/Libraries/seekfree_libraries/zf_timer.c:98
}
    42d8:	0001                	nop
    42da:	50b2                	lw	ra,44(sp)
    42dc:	5422                	lw	s0,40(sp)
    42de:	6145                	addi	sp,sp,48
    42e0:	8082                	ret

000042e2 <timer_quad_get>:
timer_quad_get():
E:/桌面/19th智能车/单片机培训、考核/CH32V103_Library-master/Seekfree_CH32V103R8T6_Opensource_Library/Libraries/seekfree_libraries/zf_timer.c:107
//  @param      timern      定时器枚举体
//  @return     void
//  Sample usage:
//-------------------------------------------------------------------------------------------------------------------
int16 timer_quad_get(TIMERN_enum timern)
{
    42e2:	1101                	addi	sp,sp,-32
    42e4:	ce22                	sw	s0,28(sp)
    42e6:	1000                	addi	s0,sp,32
    42e8:	fea42623          	sw	a0,-20(s0)
E:/桌面/19th智能车/单片机培训、考核/CH32V103_Library-master/Seekfree_CH32V103R8T6_Opensource_Library/Libraries/seekfree_libraries/zf_timer.c:108
    return ((TIM_TypeDef*)(TIMERN[timern]))->CNT;
    42ec:	67a1                	lui	a5,0x8
    42ee:	fec42703          	lw	a4,-20(s0)
    42f2:	070a                	slli	a4,a4,0x2
    42f4:	a8c78793          	addi	a5,a5,-1396 # 7a8c <TIMERN>
    42f8:	97ba                	add	a5,a5,a4
    42fa:	439c                	lw	a5,0(a5)
    42fc:	0247d783          	lhu	a5,36(a5)
    4300:	07c2                	slli	a5,a5,0x10
    4302:	83c1                	srli	a5,a5,0x10
    4304:	07c2                	slli	a5,a5,0x10
    4306:	87c1                	srai	a5,a5,0x10
E:/桌面/19th智能车/单片机培训、考核/CH32V103_Library-master/Seekfree_CH32V103R8T6_Opensource_Library/Libraries/seekfree_libraries/zf_timer.c:109
}
    4308:	853e                	mv	a0,a5
    430a:	4472                	lw	s0,28(sp)
    430c:	6105                	addi	sp,sp,32
    430e:	8082                	ret

00004310 <timer_quad_clear>:
timer_quad_clear():
E:/桌面/19th智能车/单片机培训、考核/CH32V103_Library-master/Seekfree_CH32V103R8T6_Opensource_Library/Libraries/seekfree_libraries/zf_timer.c:118
//  @param      timern      定时器枚举体
//  @return     void
//  Sample usage:
//-------------------------------------------------------------------------------------------------------------------
void timer_quad_clear(TIMERN_enum timern)
{
    4310:	1101                	addi	sp,sp,-32
    4312:	ce22                	sw	s0,28(sp)
    4314:	1000                	addi	s0,sp,32
    4316:	fea42623          	sw	a0,-20(s0)
E:/桌面/19th智能车/单片机培训、考核/CH32V103_Library-master/Seekfree_CH32V103R8T6_Opensource_Library/Libraries/seekfree_libraries/zf_timer.c:119
    ((TIM_TypeDef*)(TIMERN[timern]))->CNT = 0;
    431a:	67a1                	lui	a5,0x8
    431c:	fec42703          	lw	a4,-20(s0)
    4320:	070a                	slli	a4,a4,0x2
    4322:	a8c78793          	addi	a5,a5,-1396 # 7a8c <TIMERN>
    4326:	97ba                	add	a5,a5,a4
    4328:	439c                	lw	a5,0(a5)
    432a:	02079223          	sh	zero,36(a5)
E:/桌面/19th智能车/单片机培训、考核/CH32V103_Library-master/Seekfree_CH32V103R8T6_Opensource_Library/Libraries/seekfree_libraries/zf_timer.c:120
}
    432e:	0001                	nop
    4330:	4472                	lw	s0,28(sp)
    4332:	6105                	addi	sp,sp,32
    4334:	8082                	ret

00004336 <uart_gpio_init>:
uart_gpio_init():
E:/桌面/19th智能车/单片机培训、考核/CH32V103_Library-master/Seekfree_CH32V103R8T6_Opensource_Library/Libraries/seekfree_libraries/zf_uart.c:38
//  @param      rx_pin      串口接收引脚号
//  @return     void
//  Sample usage:           内部使用，用户无需关心
//-------------------------------------------------------------------------------------------------------------------
void uart_gpio_init(UARTPIN_enum tx_pin, UARTPIN_enum rx_pin)
{
    4336:	1101                	addi	sp,sp,-32
    4338:	ce06                	sw	ra,28(sp)
    433a:	cc22                	sw	s0,24(sp)
    433c:	1000                	addi	s0,sp,32
    433e:	fea42623          	sw	a0,-20(s0)
    4342:	feb42423          	sw	a1,-24(s0)
E:/桌面/19th智能车/单片机培训、考核/CH32V103_Library-master/Seekfree_CH32V103R8T6_Opensource_Library/Libraries/seekfree_libraries/zf_uart.c:39
    if(tx_pin == UART1_TX_A9 && rx_pin == UART1_RX_A10)
    4346:	fec42783          	lw	a5,-20(s0)
    434a:	e785                	bnez	a5,4372 <uart_gpio_init+0x3c>
E:/桌面/19th智能车/单片机培训、考核/CH32V103_Library-master/Seekfree_CH32V103R8T6_Opensource_Library/Libraries/seekfree_libraries/zf_uart.c:39 (discriminator 1)
    434c:	fe842703          	lw	a4,-24(s0)
    4350:	4785                	li	a5,1
    4352:	02f71063          	bne	a4,a5,4372 <uart_gpio_init+0x3c>
E:/桌面/19th智能车/单片机培训、考核/CH32V103_Library-master/Seekfree_CH32V103R8T6_Opensource_Library/Libraries/seekfree_libraries/zf_uart.c:41
    {
        gpio_init(A9, GPO, 0, SPEED_50MHZ|OUT_AF_PP);
    4356:	31800693          	li	a3,792
    435a:	4601                	li	a2,0
    435c:	4585                	li	a1,1
    435e:	4525                	li	a0,9
    4360:	dcbfe0ef          	jal	ra,312a <gpio_init>
E:/桌面/19th智能车/单片机培训、考核/CH32V103_Library-master/Seekfree_CH32V103R8T6_Opensource_Library/Libraries/seekfree_libraries/zf_uart.c:42
        gpio_init(A10, GPI, 0, IN_FLOAT);
    4364:	4691                	li	a3,4
    4366:	4601                	li	a2,0
    4368:	4581                	li	a1,0
    436a:	4529                	li	a0,10
    436c:	dbffe0ef          	jal	ra,312a <gpio_init>
E:/桌面/19th智能车/单片机培训、考核/CH32V103_Library-master/Seekfree_CH32V103R8T6_Opensource_Library/Libraries/seekfree_libraries/zf_uart.c:67
    else if(tx_pin == UART3_TX_C10)
    {
        gpio_init(C10, GPO, 0, SPEED_50MHZ|OUT_AF_PP);
        gpio_init(C11, GPI, 0, IN_FLOAT);
    }
}
    4370:	a065                	j	4418 <uart_gpio_init+0xe2>
E:/桌面/19th智能车/单片机培训、考核/CH32V103_Library-master/Seekfree_CH32V103R8T6_Opensource_Library/Libraries/seekfree_libraries/zf_uart.c:44
    else if(tx_pin == UART1_TX_B6)
    4372:	fec42703          	lw	a4,-20(s0)
    4376:	4789                	li	a5,2
    4378:	02f71263          	bne	a4,a5,439c <uart_gpio_init+0x66>
E:/桌面/19th智能车/单片机培训、考核/CH32V103_Library-master/Seekfree_CH32V103R8T6_Opensource_Library/Libraries/seekfree_libraries/zf_uart.c:46
        gpio_init(B6, GPO, 0, SPEED_50MHZ|OUT_AF_PP);
    437c:	31800693          	li	a3,792
    4380:	4601                	li	a2,0
    4382:	4585                	li	a1,1
    4384:	02600513          	li	a0,38
    4388:	da3fe0ef          	jal	ra,312a <gpio_init>
E:/桌面/19th智能车/单片机培训、考核/CH32V103_Library-master/Seekfree_CH32V103R8T6_Opensource_Library/Libraries/seekfree_libraries/zf_uart.c:47
        gpio_init(B7, GPI, 0, IN_FLOAT);
    438c:	4691                	li	a3,4
    438e:	4601                	li	a2,0
    4390:	4581                	li	a1,0
    4392:	02700513          	li	a0,39
    4396:	d95fe0ef          	jal	ra,312a <gpio_init>
E:/桌面/19th智能车/单片机培训、考核/CH32V103_Library-master/Seekfree_CH32V103R8T6_Opensource_Library/Libraries/seekfree_libraries/zf_uart.c:67
}
    439a:	a8bd                	j	4418 <uart_gpio_init+0xe2>
E:/桌面/19th智能车/单片机培训、考核/CH32V103_Library-master/Seekfree_CH32V103R8T6_Opensource_Library/Libraries/seekfree_libraries/zf_uart.c:50
    else if(tx_pin == UART2_TX_A2)
    439c:	fec42703          	lw	a4,-20(s0)
    43a0:	47c1                	li	a5,16
    43a2:	02f71063          	bne	a4,a5,43c2 <uart_gpio_init+0x8c>
E:/桌面/19th智能车/单片机培训、考核/CH32V103_Library-master/Seekfree_CH32V103R8T6_Opensource_Library/Libraries/seekfree_libraries/zf_uart.c:52
        gpio_init(A2, GPO, 0, SPEED_50MHZ|OUT_AF_PP);
    43a6:	31800693          	li	a3,792
    43aa:	4601                	li	a2,0
    43ac:	4585                	li	a1,1
    43ae:	4509                	li	a0,2
    43b0:	d7bfe0ef          	jal	ra,312a <gpio_init>
E:/桌面/19th智能车/单片机培训、考核/CH32V103_Library-master/Seekfree_CH32V103R8T6_Opensource_Library/Libraries/seekfree_libraries/zf_uart.c:53
        gpio_init(A3, GPI, 0, IN_FLOAT);
    43b4:	4691                	li	a3,4
    43b6:	4601                	li	a2,0
    43b8:	4581                	li	a1,0
    43ba:	450d                	li	a0,3
    43bc:	d6ffe0ef          	jal	ra,312a <gpio_init>
E:/桌面/19th智能车/单片机培训、考核/CH32V103_Library-master/Seekfree_CH32V103R8T6_Opensource_Library/Libraries/seekfree_libraries/zf_uart.c:67
}
    43c0:	a8a1                	j	4418 <uart_gpio_init+0xe2>
E:/桌面/19th智能车/单片机培训、考核/CH32V103_Library-master/Seekfree_CH32V103R8T6_Opensource_Library/Libraries/seekfree_libraries/zf_uart.c:56
    else if(tx_pin == UART3_TX_B10)
    43c2:	fec42703          	lw	a4,-20(s0)
    43c6:	02000793          	li	a5,32
    43ca:	02f71263          	bne	a4,a5,43ee <uart_gpio_init+0xb8>
E:/桌面/19th智能车/单片机培训、考核/CH32V103_Library-master/Seekfree_CH32V103R8T6_Opensource_Library/Libraries/seekfree_libraries/zf_uart.c:58
        gpio_init(B10, GPO, 0, SPEED_50MHZ|OUT_AF_PP);
    43ce:	31800693          	li	a3,792
    43d2:	4601                	li	a2,0
    43d4:	4585                	li	a1,1
    43d6:	02a00513          	li	a0,42
    43da:	d51fe0ef          	jal	ra,312a <gpio_init>
E:/桌面/19th智能车/单片机培训、考核/CH32V103_Library-master/Seekfree_CH32V103R8T6_Opensource_Library/Libraries/seekfree_libraries/zf_uart.c:59
        gpio_init(B11, GPI, 0, IN_FLOAT);
    43de:	4691                	li	a3,4
    43e0:	4601                	li	a2,0
    43e2:	4581                	li	a1,0
    43e4:	02b00513          	li	a0,43
    43e8:	d43fe0ef          	jal	ra,312a <gpio_init>
E:/桌面/19th智能车/单片机培训、考核/CH32V103_Library-master/Seekfree_CH32V103R8T6_Opensource_Library/Libraries/seekfree_libraries/zf_uart.c:67
}
    43ec:	a035                	j	4418 <uart_gpio_init+0xe2>
E:/桌面/19th智能车/单片机培训、考核/CH32V103_Library-master/Seekfree_CH32V103R8T6_Opensource_Library/Libraries/seekfree_libraries/zf_uart.c:62
    else if(tx_pin == UART3_TX_C10)
    43ee:	fec42703          	lw	a4,-20(s0)
    43f2:	02200793          	li	a5,34
    43f6:	02f71163          	bne	a4,a5,4418 <uart_gpio_init+0xe2>
E:/桌面/19th智能车/单片机培训、考核/CH32V103_Library-master/Seekfree_CH32V103R8T6_Opensource_Library/Libraries/seekfree_libraries/zf_uart.c:64
        gpio_init(C10, GPO, 0, SPEED_50MHZ|OUT_AF_PP);
    43fa:	31800693          	li	a3,792
    43fe:	4601                	li	a2,0
    4400:	4585                	li	a1,1
    4402:	04a00513          	li	a0,74
    4406:	d25fe0ef          	jal	ra,312a <gpio_init>
E:/桌面/19th智能车/单片机培训、考核/CH32V103_Library-master/Seekfree_CH32V103R8T6_Opensource_Library/Libraries/seekfree_libraries/zf_uart.c:65
        gpio_init(C11, GPI, 0, IN_FLOAT);
    440a:	4691                	li	a3,4
    440c:	4601                	li	a2,0
    440e:	4581                	li	a1,0
    4410:	04b00513          	li	a0,75
    4414:	d17fe0ef          	jal	ra,312a <gpio_init>
E:/桌面/19th智能车/单片机培训、考核/CH32V103_Library-master/Seekfree_CH32V103R8T6_Opensource_Library/Libraries/seekfree_libraries/zf_uart.c:67
}
    4418:	0001                	nop
    441a:	40f2                	lw	ra,28(sp)
    441c:	4462                	lw	s0,24(sp)
    441e:	6105                	addi	sp,sp,32
    4420:	8082                	ret

00004422 <uart_init>:
uart_init():
E:/桌面/19th智能车/单片机培训、考核/CH32V103_Library-master/Seekfree_CH32V103R8T6_Opensource_Library/Libraries/seekfree_libraries/zf_uart.c:79
//  @param      rx_pin      串口接收引脚号
//  @return     void
//  Sample usage:           uart_init(UART_1, 115200, UART1_TX_A9, UART1_RX_A10); //串口1初始化引脚号,TX为A9,RX为A10
//-------------------------------------------------------------------------------------------------------------------
void uart_init(UARTN_enum uartn, uint32 baud, UARTPIN_enum tx_pin, UARTPIN_enum rx_pin)
{
    4422:	7179                	addi	sp,sp,-48
    4424:	d606                	sw	ra,44(sp)
    4426:	d422                	sw	s0,40(sp)
    4428:	1800                	addi	s0,sp,48
    442a:	fca42e23          	sw	a0,-36(s0)
    442e:	fcb42c23          	sw	a1,-40(s0)
    4432:	fcc42a23          	sw	a2,-44(s0)
    4436:	fcd42823          	sw	a3,-48(s0)
E:/桌面/19th智能车/单片机培训、考核/CH32V103_Library-master/Seekfree_CH32V103R8T6_Opensource_Library/Libraries/seekfree_libraries/zf_uart.c:83
    USART_InitTypeDef USART_InitStructure;


    RCC_APB2PeriphClockCmd(RCC_APB2Periph_AFIO, ENABLE);
    443a:	4585                	li	a1,1
    443c:	4505                	li	a0,1
    443e:	a81fc0ef          	jal	ra,ebe <RCC_APB2PeriphClockCmd>
E:/桌面/19th智能车/单片机培训、考核/CH32V103_Library-master/Seekfree_CH32V103R8T6_Opensource_Library/Libraries/seekfree_libraries/zf_uart.c:86

    //引脚初始化
    uart_gpio_init(tx_pin, rx_pin);
    4442:	fd042583          	lw	a1,-48(s0)
    4446:	fd442503          	lw	a0,-44(s0)
    444a:	35f5                	jal	4336 <uart_gpio_init>
E:/桌面/19th智能车/单片机培训、考核/CH32V103_Library-master/Seekfree_CH32V103R8T6_Opensource_Library/Libraries/seekfree_libraries/zf_uart.c:88

    if(UART1_TX_B6 == tx_pin && UART1_RX_B7 == rx_pin)                         //引脚重映射
    444c:	fd442703          	lw	a4,-44(s0)
    4450:	4789                	li	a5,2
    4452:	00f71b63          	bne	a4,a5,4468 <uart_init+0x46>
E:/桌面/19th智能车/单片机培训、考核/CH32V103_Library-master/Seekfree_CH32V103R8T6_Opensource_Library/Libraries/seekfree_libraries/zf_uart.c:88 (discriminator 1)
    4456:	fd042703          	lw	a4,-48(s0)
    445a:	478d                	li	a5,3
    445c:	00f71663          	bne	a4,a5,4468 <uart_init+0x46>
E:/桌面/19th智能车/单片机培训、考核/CH32V103_Library-master/Seekfree_CH32V103R8T6_Opensource_Library/Libraries/seekfree_libraries/zf_uart.c:89
        GPIO_PinRemapConfig(GPIO_Remap_USART1, ENABLE);
    4460:	4585                	li	a1,1
    4462:	4511                	li	a0,4
    4464:	ebefc0ef          	jal	ra,b22 <GPIO_PinRemapConfig>
E:/桌面/19th智能车/单片机培训、考核/CH32V103_Library-master/Seekfree_CH32V103R8T6_Opensource_Library/Libraries/seekfree_libraries/zf_uart.c:90
    if(UART3_TX_C10 == tx_pin && UART3_RX_C11 == rx_pin)
    4468:	fd442703          	lw	a4,-44(s0)
    446c:	02200793          	li	a5,34
    4470:	00f71f63          	bne	a4,a5,448e <uart_init+0x6c>
E:/桌面/19th智能车/单片机培训、考核/CH32V103_Library-master/Seekfree_CH32V103R8T6_Opensource_Library/Libraries/seekfree_libraries/zf_uart.c:90 (discriminator 1)
    4474:	fd042703          	lw	a4,-48(s0)
    4478:	02300793          	li	a5,35
    447c:	00f71963          	bne	a4,a5,448e <uart_init+0x6c>
E:/桌面/19th智能车/单片机培训、考核/CH32V103_Library-master/Seekfree_CH32V103R8T6_Opensource_Library/Libraries/seekfree_libraries/zf_uart.c:91
        GPIO_PinRemapConfig(GPIO_PartialRemap_USART3, ENABLE);
    4480:	4585                	li	a1,1
    4482:	001407b7          	lui	a5,0x140
    4486:	01078513          	addi	a0,a5,16 # 140010 <_data_lma+0x138310>
    448a:	e98fc0ef          	jal	ra,b22 <GPIO_PinRemapConfig>
E:/桌面/19th智能车/单片机培训、考核/CH32V103_Library-master/Seekfree_CH32V103R8T6_Opensource_Library/Libraries/seekfree_libraries/zf_uart.c:94

    //串口总线使能
    if(UART_1 == uartn) RCC_APB2PeriphClockCmd(RCC_APB2Periph_USART1, ENABLE);
    448e:	fdc42783          	lw	a5,-36(s0)
    4492:	e791                	bnez	a5,449e <uart_init+0x7c>
E:/桌面/19th智能车/单片机培训、考核/CH32V103_Library-master/Seekfree_CH32V103R8T6_Opensource_Library/Libraries/seekfree_libraries/zf_uart.c:94 (discriminator 1)
    4494:	4585                	li	a1,1
    4496:	6511                	lui	a0,0x4
    4498:	a27fc0ef          	jal	ra,ebe <RCC_APB2PeriphClockCmd>
    449c:	a035                	j	44c8 <uart_init+0xa6>
E:/桌面/19th智能车/单片机培训、考核/CH32V103_Library-master/Seekfree_CH32V103R8T6_Opensource_Library/Libraries/seekfree_libraries/zf_uart.c:95
    else if(UART_2 == uartn) RCC_APB1PeriphClockCmd(RCC_APB1Periph_USART2, ENABLE);
    449e:	fdc42703          	lw	a4,-36(s0)
    44a2:	4785                	li	a5,1
    44a4:	00f71863          	bne	a4,a5,44b4 <uart_init+0x92>
E:/桌面/19th智能车/单片机培训、考核/CH32V103_Library-master/Seekfree_CH32V103R8T6_Opensource_Library/Libraries/seekfree_libraries/zf_uart.c:95 (discriminator 1)
    44a8:	4585                	li	a1,1
    44aa:	00020537          	lui	a0,0x20
    44ae:	a57fc0ef          	jal	ra,f04 <RCC_APB1PeriphClockCmd>
    44b2:	a819                	j	44c8 <uart_init+0xa6>
E:/桌面/19th智能车/单片机培训、考核/CH32V103_Library-master/Seekfree_CH32V103R8T6_Opensource_Library/Libraries/seekfree_libraries/zf_uart.c:96
    else if(UART_3 == uartn) RCC_APB1PeriphClockCmd(RCC_APB1Periph_USART3, ENABLE);
    44b4:	fdc42703          	lw	a4,-36(s0)
    44b8:	4789                	li	a5,2
    44ba:	00f71763          	bne	a4,a5,44c8 <uart_init+0xa6>
E:/桌面/19th智能车/单片机培训、考核/CH32V103_Library-master/Seekfree_CH32V103R8T6_Opensource_Library/Libraries/seekfree_libraries/zf_uart.c:96 (discriminator 1)
    44be:	4585                	li	a1,1
    44c0:	00040537          	lui	a0,0x40
    44c4:	a41fc0ef          	jal	ra,f04 <RCC_APB1PeriphClockCmd>
E:/桌面/19th智能车/单片机培训、考核/CH32V103_Library-master/Seekfree_CH32V103R8T6_Opensource_Library/Libraries/seekfree_libraries/zf_uart.c:99

    //串口参数配置
    USART_InitStructure.USART_BaudRate = baud;
    44c8:	fd842783          	lw	a5,-40(s0)
    44cc:	fef42023          	sw	a5,-32(s0)
E:/桌面/19th智能车/单片机培训、考核/CH32V103_Library-master/Seekfree_CH32V103R8T6_Opensource_Library/Libraries/seekfree_libraries/zf_uart.c:100
    USART_InitStructure.USART_WordLength = USART_WordLength_8b;
    44d0:	fe041223          	sh	zero,-28(s0)
E:/桌面/19th智能车/单片机培训、考核/CH32V103_Library-master/Seekfree_CH32V103R8T6_Opensource_Library/Libraries/seekfree_libraries/zf_uart.c:101
    USART_InitStructure.USART_StopBits = USART_StopBits_1;
    44d4:	fe041323          	sh	zero,-26(s0)
E:/桌面/19th智能车/单片机培训、考核/CH32V103_Library-master/Seekfree_CH32V103R8T6_Opensource_Library/Libraries/seekfree_libraries/zf_uart.c:102
    USART_InitStructure.USART_Parity = USART_Parity_No;
    44d8:	fe041423          	sh	zero,-24(s0)
E:/桌面/19th智能车/单片机培训、考核/CH32V103_Library-master/Seekfree_CH32V103R8T6_Opensource_Library/Libraries/seekfree_libraries/zf_uart.c:103
    USART_InitStructure.USART_HardwareFlowControl = USART_HardwareFlowControl_None;
    44dc:	fe041623          	sh	zero,-20(s0)
E:/桌面/19th智能车/单片机培训、考核/CH32V103_Library-master/Seekfree_CH32V103R8T6_Opensource_Library/Libraries/seekfree_libraries/zf_uart.c:104
    USART_InitStructure.USART_Mode = USART_Mode_Tx | USART_Mode_Rx;
    44e0:	47b1                	li	a5,12
    44e2:	fef41523          	sh	a5,-22(s0)
E:/桌面/19th智能车/单片机培训、考核/CH32V103_Library-master/Seekfree_CH32V103R8T6_Opensource_Library/Libraries/seekfree_libraries/zf_uart.c:107

    //使能串口
    USART_Init((USART_TypeDef*)UARTN[uartn], &USART_InitStructure);
    44e6:	67a1                	lui	a5,0x8
    44e8:	fdc42703          	lw	a4,-36(s0)
    44ec:	070a                	slli	a4,a4,0x2
    44ee:	a9c78793          	addi	a5,a5,-1380 # 7a9c <UARTN>
    44f2:	97ba                	add	a5,a5,a4
    44f4:	439c                	lw	a5,0(a5)
    44f6:	873e                	mv	a4,a5
    44f8:	fe040793          	addi	a5,s0,-32
    44fc:	85be                	mv	a1,a5
    44fe:	853a                	mv	a0,a4
    4500:	ff6fd0ef          	jal	ra,1cf6 <USART_Init>
E:/桌面/19th智能车/单片机培训、考核/CH32V103_Library-master/Seekfree_CH32V103R8T6_Opensource_Library/Libraries/seekfree_libraries/zf_uart.c:108
    USART_Cmd((USART_TypeDef*)UARTN[uartn], ENABLE);
    4504:	67a1                	lui	a5,0x8
    4506:	fdc42703          	lw	a4,-36(s0)
    450a:	070a                	slli	a4,a4,0x2
    450c:	a9c78793          	addi	a5,a5,-1380 # 7a9c <UARTN>
    4510:	97ba                	add	a5,a5,a4
    4512:	439c                	lw	a5,0(a5)
    4514:	4585                	li	a1,1
    4516:	853e                	mv	a0,a5
    4518:	a13fd0ef          	jal	ra,1f2a <USART_Cmd>
E:/桌面/19th智能车/单片机培训、考核/CH32V103_Library-master/Seekfree_CH32V103R8T6_Opensource_Library/Libraries/seekfree_libraries/zf_uart.c:111


}
    451c:	0001                	nop
    451e:	50b2                	lw	ra,44(sp)
    4520:	5422                	lw	s0,40(sp)
    4522:	6145                	addi	sp,sp,48
    4524:	8082                	ret

00004526 <uart_putchar>:
uart_putchar():
E:/桌面/19th智能车/单片机培训、考核/CH32V103_Library-master/Seekfree_CH32V103R8T6_Opensource_Library/Libraries/seekfree_libraries/zf_uart.c:122
//  @param      dat         串口数据
//  @return     void
//  Sample usage:           uart_putchar(UART_1, 0x43);        //串口1发送0x43。
//-------------------------------------------------------------------------------------------------------------------
void uart_putchar(UARTN_enum uartn, uint8 dat)
{
    4526:	1101                	addi	sp,sp,-32
    4528:	ce22                	sw	s0,28(sp)
    452a:	1000                	addi	s0,sp,32
    452c:	fea42623          	sw	a0,-20(s0)
    4530:	87ae                	mv	a5,a1
    4532:	fef405a3          	sb	a5,-21(s0)
E:/桌面/19th智能车/单片机培训、考核/CH32V103_Library-master/Seekfree_CH32V103R8T6_Opensource_Library/Libraries/seekfree_libraries/zf_uart.c:123
    while((((USART_TypeDef*)UARTN[uartn])->STATR & USART_FLAG_TXE)==0);
    4536:	0001                	nop
E:/桌面/19th智能车/单片机培训、考核/CH32V103_Library-master/Seekfree_CH32V103R8T6_Opensource_Library/Libraries/seekfree_libraries/zf_uart.c:123 (discriminator 1)
    4538:	67a1                	lui	a5,0x8
    453a:	fec42703          	lw	a4,-20(s0)
    453e:	070a                	slli	a4,a4,0x2
    4540:	a9c78793          	addi	a5,a5,-1380 # 7a9c <UARTN>
    4544:	97ba                	add	a5,a5,a4
    4546:	439c                	lw	a5,0(a5)
    4548:	0007d783          	lhu	a5,0(a5)
    454c:	07c2                	slli	a5,a5,0x10
    454e:	83c1                	srli	a5,a5,0x10
    4550:	0807f793          	andi	a5,a5,128
    4554:	d3f5                	beqz	a5,4538 <uart_putchar+0x12>
E:/桌面/19th智能车/单片机培训、考核/CH32V103_Library-master/Seekfree_CH32V103R8T6_Opensource_Library/Libraries/seekfree_libraries/zf_uart.c:124
    ((USART_TypeDef*)UARTN[uartn])->DATAR = dat;
    4556:	67a1                	lui	a5,0x8
    4558:	fec42703          	lw	a4,-20(s0)
    455c:	070a                	slli	a4,a4,0x2
    455e:	a9c78793          	addi	a5,a5,-1380 # 7a9c <UARTN>
    4562:	97ba                	add	a5,a5,a4
    4564:	439c                	lw	a5,0(a5)
    4566:	873e                	mv	a4,a5
    4568:	feb44783          	lbu	a5,-21(s0)
    456c:	07c2                	slli	a5,a5,0x10
    456e:	83c1                	srli	a5,a5,0x10
    4570:	00f71223          	sh	a5,4(a4) # e000f004 <_eusrstack+0xc000a004>
E:/桌面/19th智能车/单片机培训、考核/CH32V103_Library-master/Seekfree_CH32V103R8T6_Opensource_Library/Libraries/seekfree_libraries/zf_uart.c:125
}
    4574:	0001                	nop
    4576:	4472                	lw	s0,28(sp)
    4578:	6105                	addi	sp,sp,32
    457a:	8082                	ret

0000457c <USB_DevTransProcess>:
USB_DevTransProcess():
E:/桌面/19th智能车/单片机培训、考核/CH32V103_Library-master/Seekfree_CH32V103R8T6_Opensource_Library/Libraries/seekfree_libraries/zf_usb_cdc.c:203
* Description    : USB device transfer process.
* Input          : None
* Return         : None
*******************************************************************************/
void USB_DevTransProcess( void )
{
    457c:	1101                	addi	sp,sp,-32
    457e:	ce06                	sw	ra,28(sp)
    4580:	cc22                	sw	s0,24(sp)
    4582:	1000                	addi	s0,sp,32
E:/桌面/19th智能车/单片机培训、考核/CH32V103_Library-master/Seekfree_CH32V103R8T6_Opensource_Library/Libraries/seekfree_libraries/zf_usb_cdc.c:205
    UINT8  len, chtype,i;
    UINT8  intflag, errflag = 0;
    4584:	fe040623          	sb	zero,-20(s0)
E:/桌面/19th智能车/单片机培训、考核/CH32V103_Library-master/Seekfree_CH32V103R8T6_Opensource_Library/Libraries/seekfree_libraries/zf_usb_cdc.c:207

    intflag = R8_USB_INT_FG;         //USB中断标志寄存器
    4588:	400237b7          	lui	a5,0x40023
    458c:	40678793          	addi	a5,a5,1030 # 40023406 <_eusrstack+0x2001e406>
    4590:	0007c783          	lbu	a5,0(a5)
    4594:	fef405a3          	sb	a5,-21(s0)
E:/桌面/19th智能车/单片机培训、考核/CH32V103_Library-master/Seekfree_CH32V103R8T6_Opensource_Library/Libraries/seekfree_libraries/zf_usb_cdc.c:209

    if( intflag & RB_UIF_TRANSFER )  //USB传输完成中断标志位
    4598:	feb44783          	lbu	a5,-21(s0)
    459c:	8b89                	andi	a5,a5,2
    459e:	1a0787e3          	beqz	a5,4f4c <USB_DevTransProcess+0x9d0>
E:/桌面/19th智能车/单片机培训、考核/CH32V103_Library-master/Seekfree_CH32V103R8T6_Opensource_Library/Libraries/seekfree_libraries/zf_usb_cdc.c:212
    {
        //R8_USB_INT_ST：USB中断状态寄存器   MASK_UIS_TOKEN：设备模式下，当前USB传输事务的令牌PID标识   MASK_UIS_ENDP：设备模式下，当前USB传输事务的端点号
        switch ( R8_USB_INT_ST & ( MASK_UIS_TOKEN | MASK_UIS_ENDP ) )
    45a2:	400237b7          	lui	a5,0x40023
    45a6:	40778793          	addi	a5,a5,1031 # 40023407 <_eusrstack+0x2001e407>
    45aa:	0007c783          	lbu	a5,0(a5)
    45ae:	0ff7f793          	andi	a5,a5,255
    45b2:	03f7f793          	andi	a5,a5,63
    45b6:	03000713          	li	a4,48
    45ba:	16f76ce3          	bltu	a4,a5,4f32 <USB_DevTransProcess+0x9b6>
    45be:	00279713          	slli	a4,a5,0x2
    45c2:	67a1                	lui	a5,0x8
    45c4:	b3478793          	addi	a5,a5,-1228 # 7b34 <MyProdInfo+0xc>
    45c8:	97ba                	add	a5,a5,a4
    45ca:	439c                	lw	a5,0(a5)
    45cc:	8782                	jr	a5
E:/桌面/19th智能车/单片机培训、考核/CH32V103_Library-master/Seekfree_CH32V103R8T6_Opensource_Library/Libraries/seekfree_libraries/zf_usb_cdc.c:216
        {
            //前面描述符配置中数据接口使用端点2进行数据输入输出
            case UIS_TOKEN_OUT | 2:
                if (R8_USB_INT_FG & RB_U_TOG_OK)                                    //不同步的数据包将丢弃，RB_U_TOG_OK：当前USB传输DATA0/1同步标志匹配状态位
    45ce:	400237b7          	lui	a5,0x40023
    45d2:	40678793          	addi	a5,a5,1030 # 40023406 <_eusrstack+0x2001e406>
    45d6:	0007c783          	lbu	a5,0(a5)
    45da:	0ff7f793          	andi	a5,a5,255
    45de:	0407f793          	andi	a5,a5,64
    45e2:	14078ae3          	beqz	a5,4f36 <USB_DevTransProcess+0x9ba>
E:/桌面/19th智能车/单片机培训、考核/CH32V103_Library-master/Seekfree_CH32V103R8T6_Opensource_Library/Libraries/seekfree_libraries/zf_usb_cdc.c:218
                {
                    USBByteCount = R8_USB_RX_LEN;                                   //R8_USB_RX_LEN：当前USB端点接收的数据字节数
    45e6:	400237b7          	lui	a5,0x40023
    45ea:	40878793          	addi	a5,a5,1032 # 40023408 <_eusrstack+0x2001e408>
    45ee:	0007c783          	lbu	a5,0(a5)
    45f2:	0ff7f713          	andi	a4,a5,255
    45f6:	84e18823          	sb	a4,-1968(gp) # 200000c0 <USBByteCount>
E:/桌面/19th智能车/单片机培训、考核/CH32V103_Library-master/Seekfree_CH32V103R8T6_Opensource_Library/Libraries/seekfree_libraries/zf_usb_cdc.c:219
                    for(i=0; i<USBByteCount; i++)
    45fa:	fe0406a3          	sb	zero,-19(s0)
    45fe:	a035                	j	462a <USB_DevTransProcess+0xae>
E:/桌面/19th智能车/单片机培训、考核/CH32V103_Library-master/Seekfree_CH32V103R8T6_Opensource_Library/Libraries/seekfree_libraries/zf_usb_cdc.c:221 (discriminator 3)
                    {
                        pEP2_IN_DataBuf[i] = pEP2_OUT_DataBuf[i];
    4600:	8241a703          	lw	a4,-2012(gp) # 20000094 <pEP2_RAM_Addr>
    4604:	fed44783          	lbu	a5,-19(s0)
    4608:	973e                	add	a4,a4,a5
    460a:	8241a683          	lw	a3,-2012(gp) # 20000094 <pEP2_RAM_Addr>
    460e:	fed44783          	lbu	a5,-19(s0)
    4612:	04078793          	addi	a5,a5,64
    4616:	97b6                	add	a5,a5,a3
    4618:	00074703          	lbu	a4,0(a4)
    461c:	00e78023          	sb	a4,0(a5)
E:/桌面/19th智能车/单片机培训、考核/CH32V103_Library-master/Seekfree_CH32V103R8T6_Opensource_Library/Libraries/seekfree_libraries/zf_usb_cdc.c:219 (discriminator 3)
                    for(i=0; i<USBByteCount; i++)
    4620:	fed44783          	lbu	a5,-19(s0)
    4624:	0785                	addi	a5,a5,1
    4626:	fef406a3          	sb	a5,-19(s0)
E:/桌面/19th智能车/单片机培训、考核/CH32V103_Library-master/Seekfree_CH32V103R8T6_Opensource_Library/Libraries/seekfree_libraries/zf_usb_cdc.c:219 (discriminator 1)
    462a:	8501c783          	lbu	a5,-1968(gp) # 200000c0 <USBByteCount>
    462e:	0ff7f793          	andi	a5,a5,255
    4632:	fed44703          	lbu	a4,-19(s0)
    4636:	fcf765e3          	bltu	a4,a5,4600 <USB_DevTransProcess+0x84>
E:/桌面/19th智能车/单片机培训、考核/CH32V103_Library-master/Seekfree_CH32V103R8T6_Opensource_Library/Libraries/seekfree_libraries/zf_usb_cdc.c:223
                    }
                    R8_UEP2_T_LEN = USBByteCount;                                   //R8_UEP2_T_LEN：端点2发送长度
    463a:	400237b7          	lui	a5,0x40023
    463e:	43878793          	addi	a5,a5,1080 # 40023438 <_eusrstack+0x2001e438>
    4642:	8501c703          	lbu	a4,-1968(gp) # 200000c0 <USBByteCount>
    4646:	0ff77713          	andi	a4,a4,255
    464a:	00e78023          	sb	a4,0(a5)
E:/桌面/19th智能车/单片机培训、考核/CH32V103_Library-master/Seekfree_CH32V103R8T6_Opensource_Library/Libraries/seekfree_libraries/zf_usb_cdc.c:224
                    R8_UEP2_CTRL = (R8_UEP2_CTRL & ~MASK_UEP_T_RES)| UEP_T_RES_ACK; //MASK_UEP_T_RES：端点2的发送器对IN事务的响应控制
    464e:	400237b7          	lui	a5,0x40023
    4652:	43a78793          	addi	a5,a5,1082 # 4002343a <_eusrstack+0x2001e43a>
    4656:	0007c783          	lbu	a5,0(a5)
    465a:	0ff7f713          	andi	a4,a5,255
    465e:	400237b7          	lui	a5,0x40023
    4662:	43a78793          	addi	a5,a5,1082 # 4002343a <_eusrstack+0x2001e43a>
    4666:	9b71                	andi	a4,a4,-4
    4668:	0ff77713          	andi	a4,a4,255
    466c:	00e78023          	sb	a4,0(a5)
E:/桌面/19th智能车/单片机培训、考核/CH32V103_Library-master/Seekfree_CH32V103R8T6_Opensource_Library/Libraries/seekfree_libraries/zf_usb_cdc.c:225
                    R8_USB_INT_FG = RB_UIF_TRANSFER;                                //USB传输完成中断标志位，写 1 清零
    4670:	400237b7          	lui	a5,0x40023
    4674:	40678793          	addi	a5,a5,1030 # 40023406 <_eusrstack+0x2001e406>
    4678:	4709                	li	a4,2
    467a:	00e78023          	sb	a4,0(a5)
E:/桌面/19th智能车/单片机培训、考核/CH32V103_Library-master/Seekfree_CH32V103R8T6_Opensource_Library/Libraries/seekfree_libraries/zf_usb_cdc.c:227
                }
                break;
    467e:	0b90006f          	j	4f36 <USB_DevTransProcess+0x9ba>
E:/桌面/19th智能车/单片机培训、考核/CH32V103_Library-master/Seekfree_CH32V103R8T6_Opensource_Library/Libraries/seekfree_libraries/zf_usb_cdc.c:230

            case UIS_TOKEN_IN | 2:
                R8_UEP2_CTRL = (R8_UEP2_CTRL & ~MASK_UEP_T_RES) | UEP_T_RES_NAK;
    4682:	400237b7          	lui	a5,0x40023
    4686:	43a78793          	addi	a5,a5,1082 # 4002343a <_eusrstack+0x2001e43a>
    468a:	0007c783          	lbu	a5,0(a5)
    468e:	0ff7f793          	andi	a5,a5,255
    4692:	07e2                	slli	a5,a5,0x18
    4694:	87e1                	srai	a5,a5,0x18
    4696:	9bf1                	andi	a5,a5,-4
    4698:	07e2                	slli	a5,a5,0x18
    469a:	87e1                	srai	a5,a5,0x18
    469c:	0027e793          	ori	a5,a5,2
    46a0:	01879713          	slli	a4,a5,0x18
    46a4:	8761                	srai	a4,a4,0x18
    46a6:	400237b7          	lui	a5,0x40023
    46aa:	43a78793          	addi	a5,a5,1082 # 4002343a <_eusrstack+0x2001e43a>
    46ae:	0ff77713          	andi	a4,a4,255
    46b2:	00e78023          	sb	a4,0(a5)
E:/桌面/19th智能车/单片机培训、考核/CH32V103_Library-master/Seekfree_CH32V103R8T6_Opensource_Library/Libraries/seekfree_libraries/zf_usb_cdc.c:231
                R8_USB_INT_FG = RB_UIF_TRANSFER;
    46b6:	400237b7          	lui	a5,0x40023
    46ba:	40678793          	addi	a5,a5,1030 # 40023406 <_eusrstack+0x2001e406>
    46be:	4709                	li	a4,2
    46c0:	00e78023          	sb	a4,0(a5)
E:/桌面/19th智能车/单片机培训、考核/CH32V103_Library-master/Seekfree_CH32V103R8T6_Opensource_Library/Libraries/seekfree_libraries/zf_usb_cdc.c:232
                break;
    46c4:	0790006f          	j	4f3c <USB_DevTransProcess+0x9c0>
E:/桌面/19th智能车/单片机培训、考核/CH32V103_Library-master/Seekfree_CH32V103R8T6_Opensource_Library/Libraries/seekfree_libraries/zf_usb_cdc.c:234
            case UIS_TOKEN_SETUP:
                R8_UEP0_CTRL = RB_UEP_R_TOG | RB_UEP_T_TOG | UEP_R_RES_ACK | UEP_T_RES_NAK;
    46c8:	400237b7          	lui	a5,0x40023
    46cc:	43278793          	addi	a5,a5,1074 # 40023432 <_eusrstack+0x2001e432>
    46d0:	fc200713          	li	a4,-62
    46d4:	00e78023          	sb	a4,0(a5)
E:/桌面/19th智能车/单片机培训、考核/CH32V103_Library-master/Seekfree_CH32V103R8T6_Opensource_Library/Libraries/seekfree_libraries/zf_usb_cdc.c:235
                len = R8_USB_RX_LEN;
    46d8:	400237b7          	lui	a5,0x40023
    46dc:	40878793          	addi	a5,a5,1032 # 40023408 <_eusrstack+0x2001e408>
    46e0:	0007c783          	lbu	a5,0(a5)
    46e4:	fef407a3          	sb	a5,-17(s0)
E:/桌面/19th智能车/单片机培训、考核/CH32V103_Library-master/Seekfree_CH32V103R8T6_Opensource_Library/Libraries/seekfree_libraries/zf_usb_cdc.c:238

                //获取一系列描述符
                if ( len == sizeof( USB_SETUP_REQ ) )
    46e8:	fef44703          	lbu	a4,-17(s0)
    46ec:	47a1                	li	a5,8
    46ee:	5cf71763          	bne	a4,a5,4cbc <USB_DevTransProcess+0x740>
E:/桌面/19th智能车/单片机培训、考核/CH32V103_Library-master/Seekfree_CH32V103R8T6_Opensource_Library/Libraries/seekfree_libraries/zf_usb_cdc.c:240
                {
                    SetupReqLen = pSetupReqPak->wLength;
    46f2:	8201a783          	lw	a5,-2016(gp) # 20000090 <_edata>
    46f6:	0067c703          	lbu	a4,6(a5)
    46fa:	0077c783          	lbu	a5,7(a5)
    46fe:	07a2                	slli	a5,a5,0x8
    4700:	8fd9                	or	a5,a5,a4
    4702:	01079713          	slli	a4,a5,0x10
    4706:	8341                	srli	a4,a4,0x10
    4708:	84e19723          	sh	a4,-1970(gp) # 200000be <SetupReqLen>
E:/桌面/19th智能车/单片机培训、考核/CH32V103_Library-master/Seekfree_CH32V103R8T6_Opensource_Library/Libraries/seekfree_libraries/zf_usb_cdc.c:241
                    SetupReqCode = pSetupReqPak->bRequest;
    470c:	8201a783          	lw	a5,-2016(gp) # 20000090 <_edata>
    4710:	0017c703          	lbu	a4,1(a5)
    4714:	84e186a3          	sb	a4,-1971(gp) # 200000bd <SetupReqCode>
E:/桌面/19th智能车/单片机培训、考核/CH32V103_Library-master/Seekfree_CH32V103R8T6_Opensource_Library/Libraries/seekfree_libraries/zf_usb_cdc.c:242
                    chtype = pSetupReqPak->bRequestType;
    4718:	8201a783          	lw	a5,-2016(gp) # 20000090 <_edata>
    471c:	0007c783          	lbu	a5,0(a5)
    4720:	fef40723          	sb	a5,-18(s0)
E:/桌面/19th智能车/单片机培训、考核/CH32V103_Library-master/Seekfree_CH32V103R8T6_Opensource_Library/Libraries/seekfree_libraries/zf_usb_cdc.c:244

                    len = 0;
    4724:	fe0407a3          	sb	zero,-17(s0)
E:/桌面/19th智能车/单片机培训、考核/CH32V103_Library-master/Seekfree_CH32V103R8T6_Opensource_Library/Libraries/seekfree_libraries/zf_usb_cdc.c:245
                    errflag = 0;
    4728:	fe040623          	sb	zero,-20(s0)
E:/桌面/19th智能车/单片机培训、考核/CH32V103_Library-master/Seekfree_CH32V103R8T6_Opensource_Library/Libraries/seekfree_libraries/zf_usb_cdc.c:246
                    if ( ( pSetupReqPak->bRequestType & USB_REQ_TYP_MASK ) != USB_REQ_TYP_STANDARD )  //判断是否为标准请求
    472c:	8201a783          	lw	a5,-2016(gp) # 20000090 <_edata>
    4730:	0007c783          	lbu	a5,0(a5)
    4734:	0607f793          	andi	a5,a5,96
    4738:	cfad                	beqz	a5,47b2 <USB_DevTransProcess+0x236>
E:/桌面/19th智能车/单片机培训、考核/CH32V103_Library-master/Seekfree_CH32V103R8T6_Opensource_Library/Libraries/seekfree_libraries/zf_usb_cdc.c:249
                    {
                        //若不是标准请求
                        switch(SetupReqCode)
    473a:	84d1c783          	lbu	a5,-1971(gp) # 200000bd <SetupReqCode>
    473e:	02100713          	li	a4,33
    4742:	00e78b63          	beq	a5,a4,4758 <USB_DevTransProcess+0x1dc>
    4746:	02200713          	li	a4,34
    474a:	56e78d63          	beq	a5,a4,4cc4 <USB_DevTransProcess+0x748>
    474e:	02000713          	li	a4,32
    4752:	56e78b63          	beq	a5,a4,4cc8 <USB_DevTransProcess+0x74c>
    4756:	a891                	j	47aa <USB_DevTransProcess+0x22e>
E:/桌面/19th智能车/单片机培训、考核/CH32V103_Library-master/Seekfree_CH32V103R8T6_Opensource_Library/Libraries/seekfree_libraries/zf_usb_cdc.c:252
                        {
                            case GET_LINE_CODING:         //currently configured
                                pDescr = LineCoding;
    4758:	20000737          	lui	a4,0x20000
    475c:	07470713          	addi	a4,a4,116 # 20000074 <LineCoding>
    4760:	84e1aa23          	sw	a4,-1964(gp) # 200000c4 <pDescr>
E:/桌面/19th智能车/单片机培训、考核/CH32V103_Library-master/Seekfree_CH32V103R8T6_Opensource_Library/Libraries/seekfree_libraries/zf_usb_cdc.c:253
                                len = sizeof(LineCoding);
    4764:	479d                	li	a5,7
    4766:	fef407a3          	sb	a5,-17(s0)
E:/桌面/19th智能车/单片机培训、考核/CH32V103_Library-master/Seekfree_CH32V103R8T6_Opensource_Library/Libraries/seekfree_libraries/zf_usb_cdc.c:254
                                len = SetupReqLen >= DEFAULT_ENDP0_SIZE ? DEFAULT_ENDP0_SIZE : SetupReqLen;  // 本次传输长度
    476a:	84e1d783          	lhu	a5,-1970(gp) # 200000be <SetupReqLen>
    476e:	01079693          	slli	a3,a5,0x10
    4772:	82c1                	srli	a3,a3,0x10
    4774:	4721                	li	a4,8
    4776:	00d77363          	bgeu	a4,a3,477c <USB_DevTransProcess+0x200>
    477a:	47a1                	li	a5,8
    477c:	07c2                	slli	a5,a5,0x10
    477e:	83c1                	srli	a5,a5,0x10
    4780:	fef407a3          	sb	a5,-17(s0)
E:/桌面/19th智能车/单片机培训、考核/CH32V103_Library-master/Seekfree_CH32V103R8T6_Opensource_Library/Libraries/seekfree_libraries/zf_usb_cdc.c:255
                                memcpy(pEP0_DataBuf,pDescr,len);
    4784:	8201a703          	lw	a4,-2016(gp) # 20000090 <_edata>
    4788:	8541a783          	lw	a5,-1964(gp) # 200000c4 <pDescr>
    478c:	fef44683          	lbu	a3,-17(s0)
    4790:	8636                	mv	a2,a3
    4792:	85be                	mv	a1,a5
    4794:	853a                	mv	a0,a4
    4796:	354010ef          	jal	ra,5aea <memcpy>
E:/桌面/19th智能车/单片机培训、考核/CH32V103_Library-master/Seekfree_CH32V103R8T6_Opensource_Library/Libraries/seekfree_libraries/zf_usb_cdc.c:256
                                pDescr += len;
    479a:	8541a703          	lw	a4,-1964(gp) # 200000c4 <pDescr>
    479e:	fef44783          	lbu	a5,-17(s0)
    47a2:	973e                	add	a4,a4,a5
    47a4:	84e1aa23          	sw	a4,-1964(gp) # 200000c4 <pDescr>
E:/桌面/19th智能车/单片机培训、考核/CH32V103_Library-master/Seekfree_CH32V103R8T6_Opensource_Library/Libraries/seekfree_libraries/zf_usb_cdc.c:257
                                break;
    47a8:	ab1d                	j	4cde <USB_DevTransProcess+0x762>
E:/桌面/19th智能车/单片机培训、考核/CH32V103_Library-master/Seekfree_CH32V103R8T6_Opensource_Library/Libraries/seekfree_libraries/zf_usb_cdc.c:263
                            case SET_CONTROL_LINE_STATE:  //0x22  generates RS-232/V.24 style control signals
                                break;
                            case SET_LINE_CODING:         //0x20  Configure
                                break;
                            default:
                                errflag = 0xFF;
    47aa:	57fd                	li	a5,-1
    47ac:	fef40623          	sb	a5,-20(s0)
    47b0:	a33d                	j	4cde <USB_DevTransProcess+0x762>
E:/桌面/19th智能车/单片机培训、考核/CH32V103_Library-master/Seekfree_CH32V103R8T6_Opensource_Library/Libraries/seekfree_libraries/zf_usb_cdc.c:269
                        }
                    }
                    else
                    {
                        //若是标准请求
                        switch( SetupReqCode )
    47b2:	84d1c783          	lbu	a5,-1971(gp) # 200000bd <SetupReqCode>
    47b6:	4729                	li	a4,10
    47b8:	4ef76d63          	bltu	a4,a5,4cb2 <USB_DevTransProcess+0x736>
    47bc:	00279713          	slli	a4,a5,0x2
    47c0:	67a1                	lui	a5,0x8
    47c2:	bf878793          	addi	a5,a5,-1032 # 7bf8 <MyProdInfo+0xd0>
    47c6:	97ba                	add	a5,a5,a4
    47c8:	439c                	lw	a5,0(a5)
    47ca:	8782                	jr	a5
E:/桌面/19th智能车/单片机培训、考核/CH32V103_Library-master/Seekfree_CH32V103R8T6_Opensource_Library/Libraries/seekfree_libraries/zf_usb_cdc.c:273 (discriminator 1)
                        {
                            case USB_GET_DESCRIPTOR:                   //获取描述符
                            {
                                switch( ((pSetupReqPak->wValue)>>8) )
    47cc:	8201a783          	lw	a5,-2016(gp) # 20000090 <_edata>
    47d0:	0027c703          	lbu	a4,2(a5)
    47d4:	0037c783          	lbu	a5,3(a5)
    47d8:	07a2                	slli	a5,a5,0x8
    47da:	8fd9                	or	a5,a5,a4
    47dc:	07c2                	slli	a5,a5,0x10
    47de:	83c1                	srli	a5,a5,0x10
    47e0:	83a1                	srli	a5,a5,0x8
    47e2:	07c2                	slli	a5,a5,0x10
    47e4:	83c1                	srli	a5,a5,0x10
    47e6:	4709                	li	a4,2
    47e8:	02e78163          	beq	a5,a4,480a <USB_DevTransProcess+0x28e>
    47ec:	470d                	li	a4,3
    47ee:	02e78863          	beq	a5,a4,481e <USB_DevTransProcess+0x2a2>
    47f2:	4705                	li	a4,1
    47f4:	0ae79863          	bne	a5,a4,48a4 <USB_DevTransProcess+0x328>
E:/桌面/19th智能车/单片机培训、考核/CH32V103_Library-master/Seekfree_CH32V103R8T6_Opensource_Library/Libraries/seekfree_libraries/zf_usb_cdc.c:276
                                {
                                    case USB_DESCR_TYP_DEVICE:         //设备描述符
                                        pDescr = MyDevDescr;
    47f8:	6721                	lui	a4,0x8
    47fa:	aac70713          	addi	a4,a4,-1364 # 7aac <MyDevDescr>
    47fe:	84e1aa23          	sw	a4,-1964(gp) # 200000c4 <pDescr>
E:/桌面/19th智能车/单片机培训、考核/CH32V103_Library-master/Seekfree_CH32V103R8T6_Opensource_Library/Libraries/seekfree_libraries/zf_usb_cdc.c:277
                                        len = MyDevDescr[0];
    4802:	47c9                	li	a5,18
    4804:	fef407a3          	sb	a5,-17(s0)
E:/桌面/19th智能车/单片机培训、考核/CH32V103_Library-master/Seekfree_CH32V103R8T6_Opensource_Library/Libraries/seekfree_libraries/zf_usb_cdc.c:278
                                        break;
    4808:	a055                	j	48ac <USB_DevTransProcess+0x330>
E:/桌面/19th智能车/单片机培训、考核/CH32V103_Library-master/Seekfree_CH32V103R8T6_Opensource_Library/Libraries/seekfree_libraries/zf_usb_cdc.c:281

                                    case USB_DESCR_TYP_CONFIG:         //配置描述符
                                        pDescr = MyCfgDescr;
    480a:	6721                	lui	a4,0x8
    480c:	ac070713          	addi	a4,a4,-1344 # 7ac0 <MyCfgDescr>
    4810:	84e1aa23          	sw	a4,-1964(gp) # 200000c4 <pDescr>
E:/桌面/19th智能车/单片机培训、考核/CH32V103_Library-master/Seekfree_CH32V103R8T6_Opensource_Library/Libraries/seekfree_libraries/zf_usb_cdc.c:282
                                        len = MyCfgDescr[2];
    4814:	04300793          	li	a5,67
    4818:	fef407a3          	sb	a5,-17(s0)
E:/桌面/19th智能车/单片机培训、考核/CH32V103_Library-master/Seekfree_CH32V103R8T6_Opensource_Library/Libraries/seekfree_libraries/zf_usb_cdc.c:283
                                        break;
    481c:	a841                	j	48ac <USB_DevTransProcess+0x330>
E:/桌面/19th智能车/单片机培训、考核/CH32V103_Library-master/Seekfree_CH32V103R8T6_Opensource_Library/Libraries/seekfree_libraries/zf_usb_cdc.c:286 (discriminator 2)

                                    case USB_DESCR_TYP_STRING:         //字符串描述符
                                        switch( (pSetupReqPak->wValue)&0xff )
    481e:	8201a783          	lw	a5,-2016(gp) # 20000090 <_edata>
    4822:	0027c703          	lbu	a4,2(a5)
    4826:	0037c783          	lbu	a5,3(a5)
    482a:	07a2                	slli	a5,a5,0x8
    482c:	8fd9                	or	a5,a5,a4
    482e:	07c2                	slli	a5,a5,0x10
    4830:	83c1                	srli	a5,a5,0x10
    4832:	0ff7f793          	andi	a5,a5,255
    4836:	4705                	li	a4,1
    4838:	00e78e63          	beq	a5,a4,4854 <USB_DevTransProcess+0x2d8>
    483c:	4705                	li	a4,1
    483e:	00f74463          	blt	a4,a5,4846 <USB_DevTransProcess+0x2ca>
    4842:	cb9d                	beqz	a5,4878 <USB_DevTransProcess+0x2fc>
    4844:	a899                	j	489a <USB_DevTransProcess+0x31e>
    4846:	4709                	li	a4,2
    4848:	00e78f63          	beq	a5,a4,4866 <USB_DevTransProcess+0x2ea>
    484c:	470d                	li	a4,3
    484e:	02e78d63          	beq	a5,a4,4888 <USB_DevTransProcess+0x30c>
    4852:	a0a1                	j	489a <USB_DevTransProcess+0x31e>
E:/桌面/19th智能车/单片机培训、考核/CH32V103_Library-master/Seekfree_CH32V103R8T6_Opensource_Library/Libraries/seekfree_libraries/zf_usb_cdc.c:289
                                        {
                                            case 1:
                                                pDescr = MyManuInfo;   //厂商信息
    4854:	6721                	lui	a4,0x8
    4856:	b1870713          	addi	a4,a4,-1256 # 7b18 <MyManuInfo>
    485a:	84e1aa23          	sw	a4,-1964(gp) # 200000c4 <pDescr>
E:/桌面/19th智能车/单片机培训、考核/CH32V103_Library-master/Seekfree_CH32V103R8T6_Opensource_Library/Libraries/seekfree_libraries/zf_usb_cdc.c:290
                                                len = MyManuInfo[0];
    485e:	47b9                	li	a5,14
    4860:	fef407a3          	sb	a5,-17(s0)
E:/桌面/19th智能车/单片机培训、考核/CH32V103_Library-master/Seekfree_CH32V103R8T6_Opensource_Library/Libraries/seekfree_libraries/zf_usb_cdc.c:291
                                                break;
    4864:	a83d                	j	48a2 <USB_DevTransProcess+0x326>
E:/桌面/19th智能车/单片机培训、考核/CH32V103_Library-master/Seekfree_CH32V103R8T6_Opensource_Library/Libraries/seekfree_libraries/zf_usb_cdc.c:294

                                            case 2:
                                                pDescr = MyProdInfo;   //产品信息
    4866:	6721                	lui	a4,0x8
    4868:	b2870713          	addi	a4,a4,-1240 # 7b28 <MyProdInfo>
    486c:	84e1aa23          	sw	a4,-1964(gp) # 200000c4 <pDescr>
E:/桌面/19th智能车/单片机培训、考核/CH32V103_Library-master/Seekfree_CH32V103R8T6_Opensource_Library/Libraries/seekfree_libraries/zf_usb_cdc.c:295
                                                len = MyProdInfo[0];
    4870:	47b1                	li	a5,12
    4872:	fef407a3          	sb	a5,-17(s0)
E:/桌面/19th智能车/单片机培训、考核/CH32V103_Library-master/Seekfree_CH32V103R8T6_Opensource_Library/Libraries/seekfree_libraries/zf_usb_cdc.c:296
                                                break;
    4876:	a035                	j	48a2 <USB_DevTransProcess+0x326>
E:/桌面/19th智能车/单片机培训、考核/CH32V103_Library-master/Seekfree_CH32V103R8T6_Opensource_Library/Libraries/seekfree_libraries/zf_usb_cdc.c:299

                                            case 0:
                                                pDescr = MyLangDescr;  //语言信息
    4878:	81818713          	addi	a4,gp,-2024 # 20000088 <MyLangDescr>
    487c:	84e1aa23          	sw	a4,-1964(gp) # 200000c4 <pDescr>
E:/桌面/19th智能车/单片机培训、考核/CH32V103_Library-master/Seekfree_CH32V103R8T6_Opensource_Library/Libraries/seekfree_libraries/zf_usb_cdc.c:300
                                                len = MyLangDescr[0];
    4880:	4791                	li	a5,4
    4882:	fef407a3          	sb	a5,-17(s0)
E:/桌面/19th智能车/单片机培训、考核/CH32V103_Library-master/Seekfree_CH32V103R8T6_Opensource_Library/Libraries/seekfree_libraries/zf_usb_cdc.c:301
                                                break;
    4886:	a831                	j	48a2 <USB_DevTransProcess+0x326>
E:/桌面/19th智能车/单片机培训、考核/CH32V103_Library-master/Seekfree_CH32V103R8T6_Opensource_Library/Libraries/seekfree_libraries/zf_usb_cdc.c:304

                                            case 3:
                                                pDescr = (PUINT8)( &MyProductIDInfo[0] ); //产品序列号
    4888:	6721                	lui	a4,0x8
    488a:	b0470713          	addi	a4,a4,-1276 # 7b04 <MyProductIDInfo>
    488e:	84e1aa23          	sw	a4,-1964(gp) # 200000c4 <pDescr>
E:/桌面/19th智能车/单片机培训、考核/CH32V103_Library-master/Seekfree_CH32V103R8T6_Opensource_Library/Libraries/seekfree_libraries/zf_usb_cdc.c:305
                                                len = sizeof( MyProductIDInfo );
    4892:	47d1                	li	a5,20
    4894:	fef407a3          	sb	a5,-17(s0)
E:/桌面/19th智能车/单片机培训、考核/CH32V103_Library-master/Seekfree_CH32V103R8T6_Opensource_Library/Libraries/seekfree_libraries/zf_usb_cdc.c:306
                                                break;
    4898:	a029                	j	48a2 <USB_DevTransProcess+0x326>
E:/桌面/19th智能车/单片机培训、考核/CH32V103_Library-master/Seekfree_CH32V103R8T6_Opensource_Library/Libraries/seekfree_libraries/zf_usb_cdc.c:309

                                            default:
                                                errflag = 0xFF;
    489a:	57fd                	li	a5,-1
    489c:	fef40623          	sb	a5,-20(s0)
E:/桌面/19th智能车/单片机培训、考核/CH32V103_Library-master/Seekfree_CH32V103R8T6_Opensource_Library/Libraries/seekfree_libraries/zf_usb_cdc.c:310
                                                break;
    48a0:	0001                	nop
E:/桌面/19th智能车/单片机培训、考核/CH32V103_Library-master/Seekfree_CH32V103R8T6_Opensource_Library/Libraries/seekfree_libraries/zf_usb_cdc.c:312
                                        }
                                        break;
    48a2:	a029                	j	48ac <USB_DevTransProcess+0x330>
E:/桌面/19th智能车/单片机培训、考核/CH32V103_Library-master/Seekfree_CH32V103R8T6_Opensource_Library/Libraries/seekfree_libraries/zf_usb_cdc.c:315

                                    default :
                                        errflag = 0xff;
    48a4:	57fd                	li	a5,-1
    48a6:	fef40623          	sb	a5,-20(s0)
E:/桌面/19th智能车/单片机培训、考核/CH32V103_Library-master/Seekfree_CH32V103R8T6_Opensource_Library/Libraries/seekfree_libraries/zf_usb_cdc.c:316
                                        break;
    48aa:	0001                	nop
E:/桌面/19th智能车/单片机培训、考核/CH32V103_Library-master/Seekfree_CH32V103R8T6_Opensource_Library/Libraries/seekfree_libraries/zf_usb_cdc.c:319
                                }

                                if( SetupReqLen>len )   SetupReqLen = len;
    48ac:	fef44783          	lbu	a5,-17(s0)
    48b0:	01079713          	slli	a4,a5,0x10
    48b4:	8341                	srli	a4,a4,0x10
    48b6:	84e1d783          	lhu	a5,-1970(gp) # 200000be <SetupReqLen>
    48ba:	00f77963          	bgeu	a4,a5,48cc <USB_DevTransProcess+0x350>
E:/桌面/19th智能车/单片机培训、考核/CH32V103_Library-master/Seekfree_CH32V103R8T6_Opensource_Library/Libraries/seekfree_libraries/zf_usb_cdc.c:319 (discriminator 1)
    48be:	fef44783          	lbu	a5,-17(s0)
    48c2:	01079713          	slli	a4,a5,0x10
    48c6:	8341                	srli	a4,a4,0x10
    48c8:	84e19723          	sh	a4,-1970(gp) # 200000be <SetupReqLen>
E:/桌面/19th智能车/单片机培训、考核/CH32V103_Library-master/Seekfree_CH32V103R8T6_Opensource_Library/Libraries/seekfree_libraries/zf_usb_cdc.c:320
                                len = (SetupReqLen >= DevEP0SIZE) ? DevEP0SIZE : SetupReqLen;
    48cc:	84e1d783          	lhu	a5,-1970(gp) # 200000be <SetupReqLen>
    48d0:	01079693          	slli	a3,a5,0x10
    48d4:	82c1                	srli	a3,a3,0x10
    48d6:	04000713          	li	a4,64
    48da:	00d77463          	bgeu	a4,a3,48e2 <USB_DevTransProcess+0x366>
    48de:	04000793          	li	a5,64
    48e2:	07c2                	slli	a5,a5,0x10
    48e4:	83c1                	srli	a5,a5,0x10
    48e6:	fef407a3          	sb	a5,-17(s0)
E:/桌面/19th智能车/单片机培训、考核/CH32V103_Library-master/Seekfree_CH32V103R8T6_Opensource_Library/Libraries/seekfree_libraries/zf_usb_cdc.c:321
                                memcpy( pEP0_DataBuf, pDescr, len );
    48ea:	8201a703          	lw	a4,-2016(gp) # 20000090 <_edata>
    48ee:	8541a783          	lw	a5,-1964(gp) # 200000c4 <pDescr>
    48f2:	fef44683          	lbu	a3,-17(s0)
    48f6:	8636                	mv	a2,a3
    48f8:	85be                	mv	a1,a5
    48fa:	853a                	mv	a0,a4
    48fc:	1ee010ef          	jal	ra,5aea <memcpy>
E:/桌面/19th智能车/单片机培训、考核/CH32V103_Library-master/Seekfree_CH32V103R8T6_Opensource_Library/Libraries/seekfree_libraries/zf_usb_cdc.c:322
                                pDescr += len;
    4900:	8541a703          	lw	a4,-1964(gp) # 200000c4 <pDescr>
    4904:	fef44783          	lbu	a5,-17(s0)
    4908:	973e                	add	a4,a4,a5
    490a:	84e1aa23          	sw	a4,-1964(gp) # 200000c4 <pDescr>
E:/桌面/19th智能车/单片机培训、考核/CH32V103_Library-master/Seekfree_CH32V103R8T6_Opensource_Library/Libraries/seekfree_libraries/zf_usb_cdc.c:324
                            }
                                break;
    490e:	aec1                	j	4cde <USB_DevTransProcess+0x762>
E:/桌面/19th智能车/单片机培训、考核/CH32V103_Library-master/Seekfree_CH32V103R8T6_Opensource_Library/Libraries/seekfree_libraries/zf_usb_cdc.c:327

                            case USB_SET_ADDRESS:
                                SetupReqLen = (pSetupReqPak->wValue)&0xff;
    4910:	8201a783          	lw	a5,-2016(gp) # 20000090 <_edata>
    4914:	0027c703          	lbu	a4,2(a5)
    4918:	0037c783          	lbu	a5,3(a5)
    491c:	07a2                	slli	a5,a5,0x8
    491e:	8fd9                	or	a5,a5,a4
    4920:	07c2                	slli	a5,a5,0x10
    4922:	83c1                	srli	a5,a5,0x10
    4924:	0ff7f793          	andi	a5,a5,255
    4928:	01079713          	slli	a4,a5,0x10
    492c:	8341                	srli	a4,a4,0x10
    492e:	84e19723          	sh	a4,-1970(gp) # 200000be <SetupReqLen>
E:/桌面/19th智能车/单片机培训、考核/CH32V103_Library-master/Seekfree_CH32V103R8T6_Opensource_Library/Libraries/seekfree_libraries/zf_usb_cdc.c:328
                                break;
    4932:	a675                	j	4cde <USB_DevTransProcess+0x762>
E:/桌面/19th智能车/单片机培训、考核/CH32V103_Library-master/Seekfree_CH32V103R8T6_Opensource_Library/Libraries/seekfree_libraries/zf_usb_cdc.c:331

                            case USB_GET_CONFIGURATION:
                                pEP0_DataBuf[0] = UsbConfig;
    4934:	8201a783          	lw	a5,-2016(gp) # 20000090 <_edata>
    4938:	84c1c703          	lbu	a4,-1972(gp) # 200000bc <UsbConfig>
    493c:	00e78023          	sb	a4,0(a5)
E:/桌面/19th智能车/单片机培训、考核/CH32V103_Library-master/Seekfree_CH32V103R8T6_Opensource_Library/Libraries/seekfree_libraries/zf_usb_cdc.c:332
                                if ( SetupReqLen > 1 ) SetupReqLen = 1;
    4940:	84e1d703          	lhu	a4,-1970(gp) # 200000be <SetupReqLen>
    4944:	4785                	li	a5,1
    4946:	38e7f363          	bgeu	a5,a4,4ccc <USB_DevTransProcess+0x750>
E:/桌面/19th智能车/单片机培训、考核/CH32V103_Library-master/Seekfree_CH32V103R8T6_Opensource_Library/Libraries/seekfree_libraries/zf_usb_cdc.c:332 (discriminator 1)
    494a:	4705                	li	a4,1
    494c:	84e19723          	sh	a4,-1970(gp) # 200000be <SetupReqLen>
E:/桌面/19th智能车/单片机培训、考核/CH32V103_Library-master/Seekfree_CH32V103R8T6_Opensource_Library/Libraries/seekfree_libraries/zf_usb_cdc.c:333 (discriminator 1)
                                break;
    4950:	aeb5                	j	4ccc <USB_DevTransProcess+0x750>
E:/桌面/19th智能车/单片机培训、考核/CH32V103_Library-master/Seekfree_CH32V103R8T6_Opensource_Library/Libraries/seekfree_libraries/zf_usb_cdc.c:336

                            case USB_SET_CONFIGURATION:
                                UsbConfig = (pSetupReqPak->wValue)&0xff;
    4952:	8201a783          	lw	a5,-2016(gp) # 20000090 <_edata>
    4956:	0027c703          	lbu	a4,2(a5)
    495a:	0037c783          	lbu	a5,3(a5)
    495e:	07a2                	slli	a5,a5,0x8
    4960:	8fd9                	or	a5,a5,a4
    4962:	07c2                	slli	a5,a5,0x10
    4964:	83c1                	srli	a5,a5,0x10
    4966:	0ff7f713          	andi	a4,a5,255
    496a:	84e18623          	sb	a4,-1972(gp) # 200000bc <UsbConfig>
E:/桌面/19th智能车/单片机培训、考核/CH32V103_Library-master/Seekfree_CH32V103R8T6_Opensource_Library/Libraries/seekfree_libraries/zf_usb_cdc.c:337
                                break;
    496e:	ae85                	j	4cde <USB_DevTransProcess+0x762>
E:/桌面/19th智能车/单片机培训、考核/CH32V103_Library-master/Seekfree_CH32V103R8T6_Opensource_Library/Libraries/seekfree_libraries/zf_usb_cdc.c:340

                            case USB_CLEAR_FEATURE:
                                if( ( pSetupReqPak->bRequestType & 0x1F ) == USB_REQ_RECIP_DEVICE )  /* 清除设备 */
    4970:	8201a783          	lw	a5,-2016(gp) # 20000090 <_edata>
    4974:	0007c783          	lbu	a5,0(a5)
    4978:	8bfd                	andi	a5,a5,31
    497a:	ef8d                	bnez	a5,49b4 <USB_DevTransProcess+0x438>
E:/桌面/19th智能车/单片机培训、考核/CH32V103_Library-master/Seekfree_CH32V103R8T6_Opensource_Library/Libraries/seekfree_libraries/zf_usb_cdc.c:342
                                {
                                    if((pSetupReqPak->wValue) == 0x01 )
    497c:	8201a783          	lw	a5,-2016(gp) # 20000090 <_edata>
    4980:	0027c703          	lbu	a4,2(a5)
    4984:	0037c783          	lbu	a5,3(a5)
    4988:	07a2                	slli	a5,a5,0x8
    498a:	8fd9                	or	a5,a5,a4
    498c:	01079713          	slli	a4,a5,0x10
    4990:	8341                	srli	a4,a4,0x10
    4992:	4785                	li	a5,1
    4994:	00f71c63          	bne	a4,a5,49ac <USB_DevTransProcess+0x430>
E:/桌面/19th智能车/单片机培训、考核/CH32V103_Library-master/Seekfree_CH32V103R8T6_Opensource_Library/Libraries/seekfree_libraries/zf_usb_cdc.c:344
                                    {
                                       if( MyCfgDescr[ 7 ] & 0x20 )
    4998:	0a000793          	li	a5,160
    499c:	0207f793          	andi	a5,a5,32
    49a0:	32079863          	bnez	a5,4cd0 <USB_DevTransProcess+0x754>
E:/桌面/19th智能车/单片机培训、考核/CH32V103_Library-master/Seekfree_CH32V103R8T6_Opensource_Library/Libraries/seekfree_libraries/zf_usb_cdc.c:350
                                       {
                                           /* 唤醒 */
                                       }
                                       else
                                       {
                                           errflag = 0xFF;                                           /* 操作失败 */
    49a4:	57fd                	li	a5,-1
    49a6:	fef40623          	sb	a5,-20(s0)
E:/桌面/19th智能车/单片机培训、考核/CH32V103_Library-master/Seekfree_CH32V103R8T6_Opensource_Library/Libraries/seekfree_libraries/zf_usb_cdc.c:385
                                            break;

                                    }
                                }
                                else    errflag = 0xFF;
                                break;
    49aa:	a61d                	j	4cd0 <USB_DevTransProcess+0x754>
E:/桌面/19th智能车/单片机培训、考核/CH32V103_Library-master/Seekfree_CH32V103R8T6_Opensource_Library/Libraries/seekfree_libraries/zf_usb_cdc.c:355
                                        errflag = 0xFF;                                              /* 操作失败 */
    49ac:	57fd                	li	a5,-1
    49ae:	fef40623          	sb	a5,-20(s0)
E:/桌面/19th智能车/单片机培训、考核/CH32V103_Library-master/Seekfree_CH32V103R8T6_Opensource_Library/Libraries/seekfree_libraries/zf_usb_cdc.c:385
                                break;
    49b2:	ae39                	j	4cd0 <USB_DevTransProcess+0x754>
E:/桌面/19th智能车/单片机培训、考核/CH32V103_Library-master/Seekfree_CH32V103R8T6_Opensource_Library/Libraries/seekfree_libraries/zf_usb_cdc.c:358
                                else if ( ( pSetupReqPak->bRequestType & USB_REQ_RECIP_MASK ) == USB_REQ_RECIP_ENDP )
    49b4:	8201a783          	lw	a5,-2016(gp) # 20000090 <_edata>
    49b8:	0007c783          	lbu	a5,0(a5)
    49bc:	01f7f713          	andi	a4,a5,31
    49c0:	4789                	li	a5,2
    49c2:	10f71363          	bne	a4,a5,4ac8 <USB_DevTransProcess+0x54c>
E:/桌面/19th智能车/单片机培训、考核/CH32V103_Library-master/Seekfree_CH32V103R8T6_Opensource_Library/Libraries/seekfree_libraries/zf_usb_cdc.c:360
                                    switch( (pSetupReqPak->wIndex)&0xff )
    49c6:	8201a783          	lw	a5,-2016(gp) # 20000090 <_edata>
    49ca:	0047c703          	lbu	a4,4(a5)
    49ce:	0057c783          	lbu	a5,5(a5)
    49d2:	07a2                	slli	a5,a5,0x8
    49d4:	8fd9                	or	a5,a5,a4
    49d6:	07c2                	slli	a5,a5,0x10
    49d8:	83c1                	srli	a5,a5,0x10
    49da:	0ff7f793          	andi	a5,a5,255
    49de:	4709                	li	a4,2
    49e0:	04e78d63          	beq	a5,a4,4a3a <USB_DevTransProcess+0x4be>
    49e4:	4709                	li	a4,2
    49e6:	00f74663          	blt	a4,a5,49f2 <USB_DevTransProcess+0x476>
    49ea:	4705                	li	a4,1
    49ec:	0ae78663          	beq	a5,a4,4a98 <USB_DevTransProcess+0x51c>
    49f0:	a0f9                	j	4abe <USB_DevTransProcess+0x542>
    49f2:	08100713          	li	a4,129
    49f6:	06e78563          	beq	a5,a4,4a60 <USB_DevTransProcess+0x4e4>
    49fa:	08200713          	li	a4,130
    49fe:	0ce79063          	bne	a5,a4,4abe <USB_DevTransProcess+0x542>
E:/桌面/19th智能车/单片机培训、考核/CH32V103_Library-master/Seekfree_CH32V103R8T6_Opensource_Library/Libraries/seekfree_libraries/zf_usb_cdc.c:363
                                            R8_UEP2_CTRL = (R8_UEP2_CTRL & ~( RB_UEP_T_TOG|MASK_UEP_T_RES )) | UEP_T_RES_NAK;
    4a02:	400237b7          	lui	a5,0x40023
    4a06:	43a78793          	addi	a5,a5,1082 # 4002343a <_eusrstack+0x2001e43a>
    4a0a:	0007c783          	lbu	a5,0(a5)
    4a0e:	0ff7f793          	andi	a5,a5,255
    4a12:	07e2                	slli	a5,a5,0x18
    4a14:	87e1                	srai	a5,a5,0x18
    4a16:	fbc7f793          	andi	a5,a5,-68
    4a1a:	07e2                	slli	a5,a5,0x18
    4a1c:	87e1                	srai	a5,a5,0x18
    4a1e:	0027e793          	ori	a5,a5,2
    4a22:	01879713          	slli	a4,a5,0x18
    4a26:	8761                	srai	a4,a4,0x18
    4a28:	400237b7          	lui	a5,0x40023
    4a2c:	43a78793          	addi	a5,a5,1082 # 4002343a <_eusrstack+0x2001e43a>
    4a30:	0ff77713          	andi	a4,a4,255
    4a34:	00e78023          	sb	a4,0(a5)
E:/桌面/19th智能车/单片机培训、考核/CH32V103_Library-master/Seekfree_CH32V103R8T6_Opensource_Library/Libraries/seekfree_libraries/zf_usb_cdc.c:364
                                            break;
    4a38:	a861                	j	4ad0 <USB_DevTransProcess+0x554>
E:/桌面/19th智能车/单片机培训、考核/CH32V103_Library-master/Seekfree_CH32V103R8T6_Opensource_Library/Libraries/seekfree_libraries/zf_usb_cdc.c:367
                                            R8_UEP2_CTRL = (R8_UEP2_CTRL & ~( RB_UEP_R_TOG|MASK_UEP_R_RES )) | UEP_R_RES_ACK;
    4a3a:	400237b7          	lui	a5,0x40023
    4a3e:	43a78793          	addi	a5,a5,1082 # 4002343a <_eusrstack+0x2001e43a>
    4a42:	0007c783          	lbu	a5,0(a5)
    4a46:	0ff7f713          	andi	a4,a5,255
    4a4a:	400237b7          	lui	a5,0x40023
    4a4e:	43a78793          	addi	a5,a5,1082 # 4002343a <_eusrstack+0x2001e43a>
    4a52:	07377713          	andi	a4,a4,115
    4a56:	0ff77713          	andi	a4,a4,255
    4a5a:	00e78023          	sb	a4,0(a5)
E:/桌面/19th智能车/单片机培训、考核/CH32V103_Library-master/Seekfree_CH32V103R8T6_Opensource_Library/Libraries/seekfree_libraries/zf_usb_cdc.c:368
                                            break;
    4a5e:	a88d                	j	4ad0 <USB_DevTransProcess+0x554>
E:/桌面/19th智能车/单片机培训、考核/CH32V103_Library-master/Seekfree_CH32V103R8T6_Opensource_Library/Libraries/seekfree_libraries/zf_usb_cdc.c:371
                                            R8_UEP1_CTRL = (R8_UEP1_CTRL & ~( RB_UEP_T_TOG|MASK_UEP_T_RES )) | UEP_T_RES_NAK;
    4a60:	400237b7          	lui	a5,0x40023
    4a64:	43678793          	addi	a5,a5,1078 # 40023436 <_eusrstack+0x2001e436>
    4a68:	0007c783          	lbu	a5,0(a5)
    4a6c:	0ff7f793          	andi	a5,a5,255
    4a70:	07e2                	slli	a5,a5,0x18
    4a72:	87e1                	srai	a5,a5,0x18
    4a74:	fbc7f793          	andi	a5,a5,-68
    4a78:	07e2                	slli	a5,a5,0x18
    4a7a:	87e1                	srai	a5,a5,0x18
    4a7c:	0027e793          	ori	a5,a5,2
    4a80:	01879713          	slli	a4,a5,0x18
    4a84:	8761                	srai	a4,a4,0x18
    4a86:	400237b7          	lui	a5,0x40023
    4a8a:	43678793          	addi	a5,a5,1078 # 40023436 <_eusrstack+0x2001e436>
    4a8e:	0ff77713          	andi	a4,a4,255
    4a92:	00e78023          	sb	a4,0(a5)
E:/桌面/19th智能车/单片机培训、考核/CH32V103_Library-master/Seekfree_CH32V103R8T6_Opensource_Library/Libraries/seekfree_libraries/zf_usb_cdc.c:372
                                            break;
    4a96:	a82d                	j	4ad0 <USB_DevTransProcess+0x554>
E:/桌面/19th智能车/单片机培训、考核/CH32V103_Library-master/Seekfree_CH32V103R8T6_Opensource_Library/Libraries/seekfree_libraries/zf_usb_cdc.c:375
                                            R8_UEP1_CTRL = (R8_UEP1_CTRL & ~( RB_UEP_R_TOG|MASK_UEP_R_RES )) | UEP_R_RES_ACK;
    4a98:	400237b7          	lui	a5,0x40023
    4a9c:	43678793          	addi	a5,a5,1078 # 40023436 <_eusrstack+0x2001e436>
    4aa0:	0007c783          	lbu	a5,0(a5)
    4aa4:	0ff7f713          	andi	a4,a5,255
    4aa8:	400237b7          	lui	a5,0x40023
    4aac:	43678793          	addi	a5,a5,1078 # 40023436 <_eusrstack+0x2001e436>
    4ab0:	07377713          	andi	a4,a4,115
    4ab4:	0ff77713          	andi	a4,a4,255
    4ab8:	00e78023          	sb	a4,0(a5)
E:/桌面/19th智能车/单片机培训、考核/CH32V103_Library-master/Seekfree_CH32V103R8T6_Opensource_Library/Libraries/seekfree_libraries/zf_usb_cdc.c:376
                                            break;
    4abc:	a811                	j	4ad0 <USB_DevTransProcess+0x554>
E:/桌面/19th智能车/单片机培训、考核/CH32V103_Library-master/Seekfree_CH32V103R8T6_Opensource_Library/Libraries/seekfree_libraries/zf_usb_cdc.c:379
                                            errflag = 0xFF;
    4abe:	57fd                	li	a5,-1
    4ac0:	fef40623          	sb	a5,-20(s0)
E:/桌面/19th智能车/单片机培训、考核/CH32V103_Library-master/Seekfree_CH32V103R8T6_Opensource_Library/Libraries/seekfree_libraries/zf_usb_cdc.c:380
                                            break;
    4ac4:	0001                	nop
    4ac6:	a029                	j	4ad0 <USB_DevTransProcess+0x554>
E:/桌面/19th智能车/单片机培训、考核/CH32V103_Library-master/Seekfree_CH32V103R8T6_Opensource_Library/Libraries/seekfree_libraries/zf_usb_cdc.c:384
                                else    errflag = 0xFF;
    4ac8:	57fd                	li	a5,-1
    4aca:	fef40623          	sb	a5,-20(s0)
E:/桌面/19th智能车/单片机培训、考核/CH32V103_Library-master/Seekfree_CH32V103R8T6_Opensource_Library/Libraries/seekfree_libraries/zf_usb_cdc.c:385
                                break;
    4ace:	a409                	j	4cd0 <USB_DevTransProcess+0x754>
E:/桌面/19th智能车/单片机培训、考核/CH32V103_Library-master/Seekfree_CH32V103R8T6_Opensource_Library/Libraries/seekfree_libraries/zf_usb_cdc.c:385 (discriminator 5)
    4ad0:	a401                	j	4cd0 <USB_DevTransProcess+0x754>
E:/桌面/19th智能车/单片机培训、考核/CH32V103_Library-master/Seekfree_CH32V103R8T6_Opensource_Library/Libraries/seekfree_libraries/zf_usb_cdc.c:388

                            case USB_SET_FEATURE:                                          /* Set Feature */
                                if( ( pSetupReqPak->bRequestType & 0x1F ) == USB_REQ_RECIP_DEVICE )                  /* 设置设备 */
    4ad2:	8201a783          	lw	a5,-2016(gp) # 20000090 <_edata>
    4ad6:	0007c783          	lbu	a5,0(a5)
    4ada:	8bfd                	andi	a5,a5,31
    4adc:	ef8d                	bnez	a5,4b16 <USB_DevTransProcess+0x59a>
E:/桌面/19th智能车/单片机培训、考核/CH32V103_Library-master/Seekfree_CH32V103R8T6_Opensource_Library/Libraries/seekfree_libraries/zf_usb_cdc.c:390
                                {
                                    if(( pSetupReqPak->wValue) == 0x01 )
    4ade:	8201a783          	lw	a5,-2016(gp) # 20000090 <_edata>
    4ae2:	0027c703          	lbu	a4,2(a5)
    4ae6:	0037c783          	lbu	a5,3(a5)
    4aea:	07a2                	slli	a5,a5,0x8
    4aec:	8fd9                	or	a5,a5,a4
    4aee:	01079713          	slli	a4,a5,0x10
    4af2:	8341                	srli	a4,a4,0x10
    4af4:	4785                	li	a5,1
    4af6:	00f71c63          	bne	a4,a5,4b0e <USB_DevTransProcess+0x592>
E:/桌面/19th智能车/单片机培训、考核/CH32V103_Library-master/Seekfree_CH32V103R8T6_Opensource_Library/Libraries/seekfree_libraries/zf_usb_cdc.c:392
                                    {
                                        if( MyCfgDescr[ 7 ] & 0x20 )
    4afa:	0a000793          	li	a5,160
    4afe:	0207f793          	andi	a5,a5,32
    4b02:	1c079963          	bnez	a5,4cd4 <USB_DevTransProcess+0x758>
E:/桌面/19th智能车/单片机培训、考核/CH32V103_Library-master/Seekfree_CH32V103R8T6_Opensource_Library/Libraries/seekfree_libraries/zf_usb_cdc.c:398
                                        {
                                            ;
                                        }
                                        else
                                        {
                                            errflag = 0xFF;                                        /* 操作失败 */
    4b06:	57fd                	li	a5,-1
    4b08:	fef40623          	sb	a5,-20(s0)
E:/桌面/19th智能车/单片机培训、考核/CH32V103_Library-master/Seekfree_CH32V103R8T6_Opensource_Library/Libraries/seekfree_libraries/zf_usb_cdc.c:438
                                }
                                else
                                {
                                    errflag = 0xFF;                                          /* 操作失败 */
                                }
                                break;
    4b0c:	a2e1                	j	4cd4 <USB_DevTransProcess+0x758>
E:/桌面/19th智能车/单片机培训、考核/CH32V103_Library-master/Seekfree_CH32V103R8T6_Opensource_Library/Libraries/seekfree_libraries/zf_usb_cdc.c:403
                                         errflag = 0xFF;                                           /* 操作失败 */
    4b0e:	57fd                	li	a5,-1
    4b10:	fef40623          	sb	a5,-20(s0)
E:/桌面/19th智能车/单片机培训、考核/CH32V103_Library-master/Seekfree_CH32V103R8T6_Opensource_Library/Libraries/seekfree_libraries/zf_usb_cdc.c:438
                                break;
    4b14:	a2c1                	j	4cd4 <USB_DevTransProcess+0x758>
E:/桌面/19th智能车/单片机培训、考核/CH32V103_Library-master/Seekfree_CH32V103R8T6_Opensource_Library/Libraries/seekfree_libraries/zf_usb_cdc.c:406
                                else if( ( pSetupReqPak->bRequestType & 0x1F ) == USB_REQ_RECIP_ENDP )                /* 设置端点 */
    4b16:	8201a783          	lw	a5,-2016(gp) # 20000090 <_edata>
    4b1a:	0007c783          	lbu	a5,0(a5)
    4b1e:	01f7f713          	andi	a4,a5,31
    4b22:	4789                	li	a5,2
    4b24:	14f71363          	bne	a4,a5,4c6a <USB_DevTransProcess+0x6ee>
E:/桌面/19th智能车/单片机培训、考核/CH32V103_Library-master/Seekfree_CH32V103R8T6_Opensource_Library/Libraries/seekfree_libraries/zf_usb_cdc.c:408
                                    if(( pSetupReqPak->wValue) == 0x00 )
    4b28:	8201a783          	lw	a5,-2016(gp) # 20000090 <_edata>
    4b2c:	0027c703          	lbu	a4,2(a5)
    4b30:	0037c783          	lbu	a5,3(a5)
    4b34:	07a2                	slli	a5,a5,0x8
    4b36:	8fd9                	or	a5,a5,a4
    4b38:	07c2                	slli	a5,a5,0x10
    4b3a:	83c1                	srli	a5,a5,0x10
    4b3c:	12079363          	bnez	a5,4c62 <USB_DevTransProcess+0x6e6>
E:/桌面/19th智能车/单片机培训、考核/CH32V103_Library-master/Seekfree_CH32V103R8T6_Opensource_Library/Libraries/seekfree_libraries/zf_usb_cdc.c:410
                                        switch(pSetupReqPak->wIndex)
    4b40:	8201a783          	lw	a5,-2016(gp) # 20000090 <_edata>
    4b44:	0047c703          	lbu	a4,4(a5)
    4b48:	0057c783          	lbu	a5,5(a5)
    4b4c:	07a2                	slli	a5,a5,0x8
    4b4e:	8fd9                	or	a5,a5,a4
    4b50:	07c2                	slli	a5,a5,0x10
    4b52:	83c1                	srli	a5,a5,0x10
    4b54:	4709                	li	a4,2
    4b56:	04e78d63          	beq	a5,a4,4bb0 <USB_DevTransProcess+0x634>
    4b5a:	4709                	li	a4,2
    4b5c:	00f74663          	blt	a4,a5,4b68 <USB_DevTransProcess+0x5ec>
    4b60:	4705                	li	a4,1
    4b62:	0ae78f63          	beq	a5,a4,4c20 <USB_DevTransProcess+0x6a4>
    4b66:	a8cd                	j	4c58 <USB_DevTransProcess+0x6dc>
    4b68:	08100713          	li	a4,129
    4b6c:	06e78e63          	beq	a5,a4,4be8 <USB_DevTransProcess+0x66c>
    4b70:	08200713          	li	a4,130
    4b74:	0ee79263          	bne	a5,a4,4c58 <USB_DevTransProcess+0x6dc>
E:/桌面/19th智能车/单片机培训、考核/CH32V103_Library-master/Seekfree_CH32V103R8T6_Opensource_Library/Libraries/seekfree_libraries/zf_usb_cdc.c:413
                                                    R8_UEP2_CTRL = (R8_UEP2_CTRL & (~RB_UEP_R_TOG)) | UEP_T_RES_STALL;/* 设置端点2 IN STALL */
    4b78:	400237b7          	lui	a5,0x40023
    4b7c:	43a78793          	addi	a5,a5,1082 # 4002343a <_eusrstack+0x2001e43a>
    4b80:	0007c783          	lbu	a5,0(a5)
    4b84:	0ff7f793          	andi	a5,a5,255
    4b88:	07e2                	slli	a5,a5,0x18
    4b8a:	87e1                	srai	a5,a5,0x18
    4b8c:	07c7f793          	andi	a5,a5,124
    4b90:	07e2                	slli	a5,a5,0x18
    4b92:	87e1                	srai	a5,a5,0x18
    4b94:	0037e793          	ori	a5,a5,3
    4b98:	01879713          	slli	a4,a5,0x18
    4b9c:	8761                	srai	a4,a4,0x18
    4b9e:	400237b7          	lui	a5,0x40023
    4ba2:	43a78793          	addi	a5,a5,1082 # 4002343a <_eusrstack+0x2001e43a>
    4ba6:	0ff77713          	andi	a4,a4,255
    4baa:	00e78023          	sb	a4,0(a5)
E:/桌面/19th智能车/单片机培训、考核/CH32V103_Library-master/Seekfree_CH32V103R8T6_Opensource_Library/Libraries/seekfree_libraries/zf_usb_cdc.c:414
                                                    break;
    4bae:	a0d1                	j	4c72 <USB_DevTransProcess+0x6f6>
E:/桌面/19th智能车/单片机培训、考核/CH32V103_Library-master/Seekfree_CH32V103R8T6_Opensource_Library/Libraries/seekfree_libraries/zf_usb_cdc.c:416
                                                    R8_UEP2_CTRL = (R8_UEP2_CTRL & (~RB_UEP_R_TOG)) | UEP_R_RES_STALL;/* 设置端点2 OUT Stall */
    4bb0:	400237b7          	lui	a5,0x40023
    4bb4:	43a78793          	addi	a5,a5,1082 # 4002343a <_eusrstack+0x2001e43a>
    4bb8:	0007c783          	lbu	a5,0(a5)
    4bbc:	0ff7f793          	andi	a5,a5,255
    4bc0:	07e2                	slli	a5,a5,0x18
    4bc2:	87e1                	srai	a5,a5,0x18
    4bc4:	0737f793          	andi	a5,a5,115
    4bc8:	07e2                	slli	a5,a5,0x18
    4bca:	87e1                	srai	a5,a5,0x18
    4bcc:	00c7e793          	ori	a5,a5,12
    4bd0:	01879713          	slli	a4,a5,0x18
    4bd4:	8761                	srai	a4,a4,0x18
    4bd6:	400237b7          	lui	a5,0x40023
    4bda:	43a78793          	addi	a5,a5,1082 # 4002343a <_eusrstack+0x2001e43a>
    4bde:	0ff77713          	andi	a4,a4,255
    4be2:	00e78023          	sb	a4,0(a5)
E:/桌面/19th智能车/单片机培训、考核/CH32V103_Library-master/Seekfree_CH32V103R8T6_Opensource_Library/Libraries/seekfree_libraries/zf_usb_cdc.c:417
                                                    break;
    4be6:	a071                	j	4c72 <USB_DevTransProcess+0x6f6>
E:/桌面/19th智能车/单片机培训、考核/CH32V103_Library-master/Seekfree_CH32V103R8T6_Opensource_Library/Libraries/seekfree_libraries/zf_usb_cdc.c:419
                                                    R8_UEP1_CTRL = (R8_UEP1_CTRL & (~RB_UEP_R_TOG)) | UEP_T_RES_STALL;/* 设置端点1 IN STALL */
    4be8:	400237b7          	lui	a5,0x40023
    4bec:	43678793          	addi	a5,a5,1078 # 40023436 <_eusrstack+0x2001e436>
    4bf0:	0007c783          	lbu	a5,0(a5)
    4bf4:	0ff7f793          	andi	a5,a5,255
    4bf8:	07e2                	slli	a5,a5,0x18
    4bfa:	87e1                	srai	a5,a5,0x18
    4bfc:	07c7f793          	andi	a5,a5,124
    4c00:	07e2                	slli	a5,a5,0x18
    4c02:	87e1                	srai	a5,a5,0x18
    4c04:	0037e793          	ori	a5,a5,3
    4c08:	01879713          	slli	a4,a5,0x18
    4c0c:	8761                	srai	a4,a4,0x18
    4c0e:	400237b7          	lui	a5,0x40023
    4c12:	43678793          	addi	a5,a5,1078 # 40023436 <_eusrstack+0x2001e436>
    4c16:	0ff77713          	andi	a4,a4,255
    4c1a:	00e78023          	sb	a4,0(a5)
E:/桌面/19th智能车/单片机培训、考核/CH32V103_Library-master/Seekfree_CH32V103R8T6_Opensource_Library/Libraries/seekfree_libraries/zf_usb_cdc.c:420
                                                    break;
    4c1e:	a891                	j	4c72 <USB_DevTransProcess+0x6f6>
E:/桌面/19th智能车/单片机培训、考核/CH32V103_Library-master/Seekfree_CH32V103R8T6_Opensource_Library/Libraries/seekfree_libraries/zf_usb_cdc.c:422
                                                    R8_UEP1_CTRL = (R8_UEP1_CTRL & (~RB_UEP_R_TOG)) | UEP_R_RES_STALL;/* 设置端点1 OUT Stall */
    4c20:	400237b7          	lui	a5,0x40023
    4c24:	43678793          	addi	a5,a5,1078 # 40023436 <_eusrstack+0x2001e436>
    4c28:	0007c783          	lbu	a5,0(a5)
    4c2c:	0ff7f793          	andi	a5,a5,255
    4c30:	07e2                	slli	a5,a5,0x18
    4c32:	87e1                	srai	a5,a5,0x18
    4c34:	0737f793          	andi	a5,a5,115
    4c38:	07e2                	slli	a5,a5,0x18
    4c3a:	87e1                	srai	a5,a5,0x18
    4c3c:	00c7e793          	ori	a5,a5,12
    4c40:	01879713          	slli	a4,a5,0x18
    4c44:	8761                	srai	a4,a4,0x18
    4c46:	400237b7          	lui	a5,0x40023
    4c4a:	43678793          	addi	a5,a5,1078 # 40023436 <_eusrstack+0x2001e436>
    4c4e:	0ff77713          	andi	a4,a4,255
    4c52:	00e78023          	sb	a4,0(a5)
E:/桌面/19th智能车/单片机培训、考核/CH32V103_Library-master/Seekfree_CH32V103R8T6_Opensource_Library/Libraries/seekfree_libraries/zf_usb_cdc.c:423
                                                    break;
    4c56:	a831                	j	4c72 <USB_DevTransProcess+0x6f6>
E:/桌面/19th智能车/单片机培训、考核/CH32V103_Library-master/Seekfree_CH32V103R8T6_Opensource_Library/Libraries/seekfree_libraries/zf_usb_cdc.c:425
                                                errflag = 0xFF;                              /* 操作失败 */
    4c58:	57fd                	li	a5,-1
    4c5a:	fef40623          	sb	a5,-20(s0)
E:/桌面/19th智能车/单片机培训、考核/CH32V103_Library-master/Seekfree_CH32V103R8T6_Opensource_Library/Libraries/seekfree_libraries/zf_usb_cdc.c:426
                                                break;
    4c5e:	0001                	nop
    4c60:	a809                	j	4c72 <USB_DevTransProcess+0x6f6>
E:/桌面/19th智能车/单片机培训、考核/CH32V103_Library-master/Seekfree_CH32V103R8T6_Opensource_Library/Libraries/seekfree_libraries/zf_usb_cdc.c:431
                                        errflag = 0xFF;                                      /* 操作失败 */
    4c62:	57fd                	li	a5,-1
    4c64:	fef40623          	sb	a5,-20(s0)
E:/桌面/19th智能车/单片机培训、考核/CH32V103_Library-master/Seekfree_CH32V103R8T6_Opensource_Library/Libraries/seekfree_libraries/zf_usb_cdc.c:438
                                break;
    4c68:	a0b5                	j	4cd4 <USB_DevTransProcess+0x758>
E:/桌面/19th智能车/单片机培训、考核/CH32V103_Library-master/Seekfree_CH32V103R8T6_Opensource_Library/Libraries/seekfree_libraries/zf_usb_cdc.c:436
                                    errflag = 0xFF;                                          /* 操作失败 */
    4c6a:	57fd                	li	a5,-1
    4c6c:	fef40623          	sb	a5,-20(s0)
E:/桌面/19th智能车/单片机培训、考核/CH32V103_Library-master/Seekfree_CH32V103R8T6_Opensource_Library/Libraries/seekfree_libraries/zf_usb_cdc.c:438
                                break;
    4c70:	a095                	j	4cd4 <USB_DevTransProcess+0x758>
E:/桌面/19th智能车/单片机培训、考核/CH32V103_Library-master/Seekfree_CH32V103R8T6_Opensource_Library/Libraries/seekfree_libraries/zf_usb_cdc.c:438 (discriminator 8)
    4c72:	a08d                	j	4cd4 <USB_DevTransProcess+0x758>
E:/桌面/19th智能车/单片机培训、考核/CH32V103_Library-master/Seekfree_CH32V103R8T6_Opensource_Library/Libraries/seekfree_libraries/zf_usb_cdc.c:441

                            case USB_GET_INTERFACE:
                                pEP0_DataBuf[0] = 0x00;
    4c74:	8201a783          	lw	a5,-2016(gp) # 20000090 <_edata>
    4c78:	00078023          	sb	zero,0(a5)
E:/桌面/19th智能车/单片机培训、考核/CH32V103_Library-master/Seekfree_CH32V103R8T6_Opensource_Library/Libraries/seekfree_libraries/zf_usb_cdc.c:442
                                if ( SetupReqLen > 1 ) SetupReqLen = 1;
    4c7c:	84e1d703          	lhu	a4,-1970(gp) # 200000be <SetupReqLen>
    4c80:	4785                	li	a5,1
    4c82:	04e7fb63          	bgeu	a5,a4,4cd8 <USB_DevTransProcess+0x75c>
E:/桌面/19th智能车/单片机培训、考核/CH32V103_Library-master/Seekfree_CH32V103R8T6_Opensource_Library/Libraries/seekfree_libraries/zf_usb_cdc.c:442 (discriminator 1)
    4c86:	4705                	li	a4,1
    4c88:	84e19723          	sh	a4,-1970(gp) # 200000be <SetupReqLen>
E:/桌面/19th智能车/单片机培训、考核/CH32V103_Library-master/Seekfree_CH32V103R8T6_Opensource_Library/Libraries/seekfree_libraries/zf_usb_cdc.c:443 (discriminator 1)
                                break;
    4c8c:	a0b1                	j	4cd8 <USB_DevTransProcess+0x75c>
E:/桌面/19th智能车/单片机培训、考核/CH32V103_Library-master/Seekfree_CH32V103R8T6_Opensource_Library/Libraries/seekfree_libraries/zf_usb_cdc.c:446

                            case USB_GET_STATUS:
                                pEP0_DataBuf[0] = 0x00;
    4c8e:	8201a783          	lw	a5,-2016(gp) # 20000090 <_edata>
    4c92:	00078023          	sb	zero,0(a5)
E:/桌面/19th智能车/单片机培训、考核/CH32V103_Library-master/Seekfree_CH32V103R8T6_Opensource_Library/Libraries/seekfree_libraries/zf_usb_cdc.c:447
                                pEP0_DataBuf[1] = 0x00;
    4c96:	8201a783          	lw	a5,-2016(gp) # 20000090 <_edata>
    4c9a:	0785                	addi	a5,a5,1
    4c9c:	00078023          	sb	zero,0(a5)
E:/桌面/19th智能车/单片机培训、考核/CH32V103_Library-master/Seekfree_CH32V103R8T6_Opensource_Library/Libraries/seekfree_libraries/zf_usb_cdc.c:448
                                if ( SetupReqLen > 2 ) SetupReqLen = 2;
    4ca0:	84e1d703          	lhu	a4,-1970(gp) # 200000be <SetupReqLen>
    4ca4:	4789                	li	a5,2
    4ca6:	02e7fb63          	bgeu	a5,a4,4cdc <USB_DevTransProcess+0x760>
E:/桌面/19th智能车/单片机培训、考核/CH32V103_Library-master/Seekfree_CH32V103R8T6_Opensource_Library/Libraries/seekfree_libraries/zf_usb_cdc.c:448 (discriminator 1)
    4caa:	4709                	li	a4,2
    4cac:	84e19723          	sh	a4,-1970(gp) # 200000be <SetupReqLen>
E:/桌面/19th智能车/单片机培训、考核/CH32V103_Library-master/Seekfree_CH32V103R8T6_Opensource_Library/Libraries/seekfree_libraries/zf_usb_cdc.c:449 (discriminator 1)
                                break;
    4cb0:	a035                	j	4cdc <USB_DevTransProcess+0x760>
E:/桌面/19th智能车/单片机培训、考核/CH32V103_Library-master/Seekfree_CH32V103R8T6_Opensource_Library/Libraries/seekfree_libraries/zf_usb_cdc.c:452

                            default:
                                errflag = 0xff;
    4cb2:	57fd                	li	a5,-1
    4cb4:	fef40623          	sb	a5,-20(s0)
E:/桌面/19th智能车/单片机培训、考核/CH32V103_Library-master/Seekfree_CH32V103R8T6_Opensource_Library/Libraries/seekfree_libraries/zf_usb_cdc.c:453
                                break;
    4cb8:	0001                	nop
    4cba:	a015                	j	4cde <USB_DevTransProcess+0x762>
E:/桌面/19th智能车/单片机培训、考核/CH32V103_Library-master/Seekfree_CH32V103R8T6_Opensource_Library/Libraries/seekfree_libraries/zf_usb_cdc.c:457
                        }
                    }
                }
                else    errflag = 0xff;
    4cbc:	57fd                	li	a5,-1
    4cbe:	fef40623          	sb	a5,-20(s0)
    4cc2:	a831                	j	4cde <USB_DevTransProcess+0x762>
E:/桌面/19th智能车/单片机培训、考核/CH32V103_Library-master/Seekfree_CH32V103R8T6_Opensource_Library/Libraries/seekfree_libraries/zf_usb_cdc.c:259
                                break;
    4cc4:	0001                	nop
    4cc6:	a821                	j	4cde <USB_DevTransProcess+0x762>
E:/桌面/19th智能车/单片机培训、考核/CH32V103_Library-master/Seekfree_CH32V103R8T6_Opensource_Library/Libraries/seekfree_libraries/zf_usb_cdc.c:261
                                break;
    4cc8:	0001                	nop
    4cca:	a811                	j	4cde <USB_DevTransProcess+0x762>
E:/桌面/19th智能车/单片机培训、考核/CH32V103_Library-master/Seekfree_CH32V103R8T6_Opensource_Library/Libraries/seekfree_libraries/zf_usb_cdc.c:333
                                break;
    4ccc:	0001                	nop
    4cce:	a801                	j	4cde <USB_DevTransProcess+0x762>
E:/桌面/19th智能车/单片机培训、考核/CH32V103_Library-master/Seekfree_CH32V103R8T6_Opensource_Library/Libraries/seekfree_libraries/zf_usb_cdc.c:385
                                break;
    4cd0:	0001                	nop
    4cd2:	a031                	j	4cde <USB_DevTransProcess+0x762>
E:/桌面/19th智能车/单片机培训、考核/CH32V103_Library-master/Seekfree_CH32V103R8T6_Opensource_Library/Libraries/seekfree_libraries/zf_usb_cdc.c:438
                                break;
    4cd4:	0001                	nop
    4cd6:	a021                	j	4cde <USB_DevTransProcess+0x762>
E:/桌面/19th智能车/单片机培训、考核/CH32V103_Library-master/Seekfree_CH32V103R8T6_Opensource_Library/Libraries/seekfree_libraries/zf_usb_cdc.c:443
                                break;
    4cd8:	0001                	nop
    4cda:	a011                	j	4cde <USB_DevTransProcess+0x762>
E:/桌面/19th智能车/单片机培训、考核/CH32V103_Library-master/Seekfree_CH32V103R8T6_Opensource_Library/Libraries/seekfree_libraries/zf_usb_cdc.c:449
                                break;
    4cdc:	0001                	nop
E:/桌面/19th智能车/单片机培训、考核/CH32V103_Library-master/Seekfree_CH32V103R8T6_Opensource_Library/Libraries/seekfree_libraries/zf_usb_cdc.c:459

                if( errflag == 0xff)
    4cde:	fec44703          	lbu	a4,-20(s0)
    4ce2:	0ff00793          	li	a5,255
    4ce6:	00f71b63          	bne	a4,a5,4cfc <USB_DevTransProcess+0x780>
E:/桌面/19th智能车/单片机培训、考核/CH32V103_Library-master/Seekfree_CH32V103R8T6_Opensource_Library/Libraries/seekfree_libraries/zf_usb_cdc.c:461
                {
                    R8_UEP0_CTRL = RB_UEP_R_TOG | RB_UEP_T_TOG | UEP_R_RES_STALL | UEP_T_RES_STALL;
    4cea:	400237b7          	lui	a5,0x40023
    4cee:	43278793          	addi	a5,a5,1074 # 40023432 <_eusrstack+0x2001e432>
    4cf2:	fcf00713          	li	a4,-49
    4cf6:	00e78023          	sb	a4,0(a5)
E:/桌面/19th智能车/单片机培训、考核/CH32V103_Library-master/Seekfree_CH32V103R8T6_Opensource_Library/Libraries/seekfree_libraries/zf_usb_cdc.c:475
                    else  len = 0;

                    R8_UEP0_T_LEN = len;
                    R8_UEP0_CTRL = RB_UEP_R_TOG | RB_UEP_T_TOG | UEP_R_RES_ACK | UEP_T_RES_ACK;
                }
                break;
    4cfa:	a489                	j	4f3c <USB_DevTransProcess+0x9c0>
E:/桌面/19th智能车/单片机培训、考核/CH32V103_Library-master/Seekfree_CH32V103R8T6_Opensource_Library/Libraries/seekfree_libraries/zf_usb_cdc.c:465
                    if( chtype & 0x80 )
    4cfc:	fee40783          	lb	a5,-18(s0)
    4d00:	0207df63          	bgez	a5,4d3e <USB_DevTransProcess+0x7c2>
E:/桌面/19th智能车/单片机培训、考核/CH32V103_Library-master/Seekfree_CH32V103R8T6_Opensource_Library/Libraries/seekfree_libraries/zf_usb_cdc.c:467
                        len = (SetupReqLen>DevEP0SIZE) ? DevEP0SIZE : SetupReqLen;
    4d04:	84e1d783          	lhu	a5,-1970(gp) # 200000be <SetupReqLen>
    4d08:	01079693          	slli	a3,a5,0x10
    4d0c:	82c1                	srli	a3,a3,0x10
    4d0e:	04000713          	li	a4,64
    4d12:	00d77463          	bgeu	a4,a3,4d1a <USB_DevTransProcess+0x79e>
    4d16:	04000793          	li	a5,64
    4d1a:	07c2                	slli	a5,a5,0x10
    4d1c:	83c1                	srli	a5,a5,0x10
    4d1e:	fef407a3          	sb	a5,-17(s0)
E:/桌面/19th智能车/单片机培训、考核/CH32V103_Library-master/Seekfree_CH32V103R8T6_Opensource_Library/Libraries/seekfree_libraries/zf_usb_cdc.c:468
                        SetupReqLen -= len;
    4d22:	84e1d703          	lhu	a4,-1970(gp) # 200000be <SetupReqLen>
    4d26:	fef44783          	lbu	a5,-17(s0)
    4d2a:	07c2                	slli	a5,a5,0x10
    4d2c:	83c1                	srli	a5,a5,0x10
    4d2e:	40f707b3          	sub	a5,a4,a5
    4d32:	01079713          	slli	a4,a5,0x10
    4d36:	8341                	srli	a4,a4,0x10
    4d38:	84e19723          	sh	a4,-1970(gp) # 200000be <SetupReqLen>
    4d3c:	a019                	j	4d42 <USB_DevTransProcess+0x7c6>
E:/桌面/19th智能车/单片机培训、考核/CH32V103_Library-master/Seekfree_CH32V103R8T6_Opensource_Library/Libraries/seekfree_libraries/zf_usb_cdc.c:470
                    else  len = 0;
    4d3e:	fe0407a3          	sb	zero,-17(s0)
E:/桌面/19th智能车/单片机培训、考核/CH32V103_Library-master/Seekfree_CH32V103R8T6_Opensource_Library/Libraries/seekfree_libraries/zf_usb_cdc.c:472
                    R8_UEP0_T_LEN = len;
    4d42:	400237b7          	lui	a5,0x40023
    4d46:	43078793          	addi	a5,a5,1072 # 40023430 <_eusrstack+0x2001e430>
    4d4a:	fef44703          	lbu	a4,-17(s0)
    4d4e:	00e78023          	sb	a4,0(a5)
E:/桌面/19th智能车/单片机培训、考核/CH32V103_Library-master/Seekfree_CH32V103R8T6_Opensource_Library/Libraries/seekfree_libraries/zf_usb_cdc.c:473
                    R8_UEP0_CTRL = RB_UEP_R_TOG | RB_UEP_T_TOG | UEP_R_RES_ACK | UEP_T_RES_ACK;
    4d52:	400237b7          	lui	a5,0x40023
    4d56:	43278793          	addi	a5,a5,1074 # 40023432 <_eusrstack+0x2001e432>
    4d5a:	fc000713          	li	a4,-64
    4d5e:	00e78023          	sb	a4,0(a5)
E:/桌面/19th智能车/单片机培训、考核/CH32V103_Library-master/Seekfree_CH32V103R8T6_Opensource_Library/Libraries/seekfree_libraries/zf_usb_cdc.c:475
                break;
    4d62:	aae9                	j	4f3c <USB_DevTransProcess+0x9c0>
E:/桌面/19th智能车/单片机培训、考核/CH32V103_Library-master/Seekfree_CH32V103R8T6_Opensource_Library/Libraries/seekfree_libraries/zf_usb_cdc.c:478

            case UIS_TOKEN_IN:
                switch( SetupReqCode )
    4d64:	84d1c783          	lbu	a5,-1971(gp) # 200000bd <SetupReqCode>
    4d68:	4715                	li	a4,5
    4d6a:	08e78e63          	beq	a5,a4,4e06 <USB_DevTransProcess+0x88a>
    4d6e:	4719                	li	a4,6
    4d70:	0ee79263          	bne	a5,a4,4e54 <USB_DevTransProcess+0x8d8>
E:/桌面/19th智能车/单片机培训、考核/CH32V103_Library-master/Seekfree_CH32V103R8T6_Opensource_Library/Libraries/seekfree_libraries/zf_usb_cdc.c:481
                {
                    case USB_GET_DESCRIPTOR:
                        len = SetupReqLen >= DevEP0SIZE ? DevEP0SIZE : SetupReqLen;
    4d74:	84e1d783          	lhu	a5,-1970(gp) # 200000be <SetupReqLen>
    4d78:	01079693          	slli	a3,a5,0x10
    4d7c:	82c1                	srli	a3,a3,0x10
    4d7e:	04000713          	li	a4,64
    4d82:	00d77463          	bgeu	a4,a3,4d8a <USB_DevTransProcess+0x80e>
    4d86:	04000793          	li	a5,64
    4d8a:	07c2                	slli	a5,a5,0x10
    4d8c:	83c1                	srli	a5,a5,0x10
    4d8e:	fef407a3          	sb	a5,-17(s0)
E:/桌面/19th智能车/单片机培训、考核/CH32V103_Library-master/Seekfree_CH32V103R8T6_Opensource_Library/Libraries/seekfree_libraries/zf_usb_cdc.c:482
                        memcpy( pEP0_DataBuf, pDescr, len );
    4d92:	8201a703          	lw	a4,-2016(gp) # 20000090 <_edata>
    4d96:	8541a783          	lw	a5,-1964(gp) # 200000c4 <pDescr>
    4d9a:	fef44683          	lbu	a3,-17(s0)
    4d9e:	8636                	mv	a2,a3
    4da0:	85be                	mv	a1,a5
    4da2:	853a                	mv	a0,a4
    4da4:	547000ef          	jal	ra,5aea <memcpy>
E:/桌面/19th智能车/单片机培训、考核/CH32V103_Library-master/Seekfree_CH32V103R8T6_Opensource_Library/Libraries/seekfree_libraries/zf_usb_cdc.c:483
                        SetupReqLen -= len;
    4da8:	84e1d703          	lhu	a4,-1970(gp) # 200000be <SetupReqLen>
    4dac:	fef44783          	lbu	a5,-17(s0)
    4db0:	07c2                	slli	a5,a5,0x10
    4db2:	83c1                	srli	a5,a5,0x10
    4db4:	40f707b3          	sub	a5,a4,a5
    4db8:	01079713          	slli	a4,a5,0x10
    4dbc:	8341                	srli	a4,a4,0x10
    4dbe:	84e19723          	sh	a4,-1970(gp) # 200000be <SetupReqLen>
E:/桌面/19th智能车/单片机培训、考核/CH32V103_Library-master/Seekfree_CH32V103R8T6_Opensource_Library/Libraries/seekfree_libraries/zf_usb_cdc.c:484
                        pDescr += len;
    4dc2:	8541a703          	lw	a4,-1964(gp) # 200000c4 <pDescr>
    4dc6:	fef44783          	lbu	a5,-17(s0)
    4dca:	973e                	add	a4,a4,a5
    4dcc:	84e1aa23          	sw	a4,-1964(gp) # 200000c4 <pDescr>
E:/桌面/19th智能车/单片机培训、考核/CH32V103_Library-master/Seekfree_CH32V103R8T6_Opensource_Library/Libraries/seekfree_libraries/zf_usb_cdc.c:485
                        R8_UEP0_T_LEN = len;
    4dd0:	400237b7          	lui	a5,0x40023
    4dd4:	43078793          	addi	a5,a5,1072 # 40023430 <_eusrstack+0x2001e430>
    4dd8:	fef44703          	lbu	a4,-17(s0)
    4ddc:	00e78023          	sb	a4,0(a5)
E:/桌面/19th智能车/单片机培训、考核/CH32V103_Library-master/Seekfree_CH32V103R8T6_Opensource_Library/Libraries/seekfree_libraries/zf_usb_cdc.c:486
                        R8_UEP0_CTRL ^= RB_UEP_T_TOG;
    4de0:	400237b7          	lui	a5,0x40023
    4de4:	43278793          	addi	a5,a5,1074 # 40023432 <_eusrstack+0x2001e432>
    4de8:	0007c783          	lbu	a5,0(a5)
    4dec:	0ff7f713          	andi	a4,a5,255
    4df0:	400237b7          	lui	a5,0x40023
    4df4:	43278793          	addi	a5,a5,1074 # 40023432 <_eusrstack+0x2001e432>
    4df8:	04074713          	xori	a4,a4,64
    4dfc:	0ff77713          	andi	a4,a4,255
    4e00:	00e78023          	sb	a4,0(a5)
E:/桌面/19th智能车/单片机培训、考核/CH32V103_Library-master/Seekfree_CH32V103R8T6_Opensource_Library/Libraries/seekfree_libraries/zf_usb_cdc.c:487
                        break;
    4e04:	a0b5                	j	4e70 <USB_DevTransProcess+0x8f4>
E:/桌面/19th智能车/单片机培训、考核/CH32V103_Library-master/Seekfree_CH32V103R8T6_Opensource_Library/Libraries/seekfree_libraries/zf_usb_cdc.c:490

                    case USB_SET_ADDRESS:
                        R8_USB_DEV_AD = (R8_USB_DEV_AD&RB_UDA_GP_BIT) | SetupReqLen;
    4e06:	400237b7          	lui	a5,0x40023
    4e0a:	40378793          	addi	a5,a5,1027 # 40023403 <_eusrstack+0x2001e403>
    4e0e:	0007c783          	lbu	a5,0(a5)
    4e12:	0ff7f793          	andi	a5,a5,255
    4e16:	07e2                	slli	a5,a5,0x18
    4e18:	87e1                	srai	a5,a5,0x18
    4e1a:	f807f793          	andi	a5,a5,-128
    4e1e:	01879713          	slli	a4,a5,0x18
    4e22:	8761                	srai	a4,a4,0x18
    4e24:	84e1d783          	lhu	a5,-1970(gp) # 200000be <SetupReqLen>
    4e28:	07e2                	slli	a5,a5,0x18
    4e2a:	87e1                	srai	a5,a5,0x18
    4e2c:	8fd9                	or	a5,a5,a4
    4e2e:	01879713          	slli	a4,a5,0x18
    4e32:	8761                	srai	a4,a4,0x18
    4e34:	400237b7          	lui	a5,0x40023
    4e38:	40378793          	addi	a5,a5,1027 # 40023403 <_eusrstack+0x2001e403>
    4e3c:	0ff77713          	andi	a4,a4,255
    4e40:	00e78023          	sb	a4,0(a5)
E:/桌面/19th智能车/单片机培训、考核/CH32V103_Library-master/Seekfree_CH32V103R8T6_Opensource_Library/Libraries/seekfree_libraries/zf_usb_cdc.c:491
                        R8_UEP0_CTRL = UEP_R_RES_ACK | UEP_T_RES_NAK;
    4e44:	400237b7          	lui	a5,0x40023
    4e48:	43278793          	addi	a5,a5,1074 # 40023432 <_eusrstack+0x2001e432>
    4e4c:	4709                	li	a4,2
    4e4e:	00e78023          	sb	a4,0(a5)
E:/桌面/19th智能车/单片机培训、考核/CH32V103_Library-master/Seekfree_CH32V103R8T6_Opensource_Library/Libraries/seekfree_libraries/zf_usb_cdc.c:492
                        break;
    4e52:	a839                	j	4e70 <USB_DevTransProcess+0x8f4>
E:/桌面/19th智能车/单片机培训、考核/CH32V103_Library-master/Seekfree_CH32V103R8T6_Opensource_Library/Libraries/seekfree_libraries/zf_usb_cdc.c:495

                    default:
                        R8_UEP0_T_LEN = 0;
    4e54:	400237b7          	lui	a5,0x40023
    4e58:	43078793          	addi	a5,a5,1072 # 40023430 <_eusrstack+0x2001e430>
    4e5c:	00078023          	sb	zero,0(a5)
E:/桌面/19th智能车/单片机培训、考核/CH32V103_Library-master/Seekfree_CH32V103R8T6_Opensource_Library/Libraries/seekfree_libraries/zf_usb_cdc.c:496
                        R8_UEP0_CTRL = UEP_R_RES_ACK | UEP_T_RES_NAK;
    4e60:	400237b7          	lui	a5,0x40023
    4e64:	43278793          	addi	a5,a5,1074 # 40023432 <_eusrstack+0x2001e432>
    4e68:	4709                	li	a4,2
    4e6a:	00e78023          	sb	a4,0(a5)
E:/桌面/19th智能车/单片机培训、考核/CH32V103_Library-master/Seekfree_CH32V103R8T6_Opensource_Library/Libraries/seekfree_libraries/zf_usb_cdc.c:497
                        break;
    4e6e:	0001                	nop
E:/桌面/19th智能车/单片机培训、考核/CH32V103_Library-master/Seekfree_CH32V103R8T6_Opensource_Library/Libraries/seekfree_libraries/zf_usb_cdc.c:500

                }
                break;
    4e70:	a0f1                	j	4f3c <USB_DevTransProcess+0x9c0>
E:/桌面/19th智能车/单片机培训、考核/CH32V103_Library-master/Seekfree_CH32V103R8T6_Opensource_Library/Libraries/seekfree_libraries/zf_usb_cdc.c:503

            case UIS_TOKEN_OUT:
                if(SetupReqCode ==SET_LINE_CODING)                      //设置串口属性
    4e72:	84d1c703          	lbu	a4,-1971(gp) # 200000bd <SetupReqCode>
    4e76:	02000793          	li	a5,32
    4e7a:	04f71263          	bne	a4,a5,4ebe <USB_DevTransProcess+0x942>
E:/桌面/19th智能车/单片机培训、考核/CH32V103_Library-master/Seekfree_CH32V103R8T6_Opensource_Library/Libraries/seekfree_libraries/zf_usb_cdc.c:505
                {
                    if (R8_USB_INT_FG & RB_U_TOG_OK)
    4e7e:	400237b7          	lui	a5,0x40023
    4e82:	40678793          	addi	a5,a5,1030 # 40023406 <_eusrstack+0x2001e406>
    4e86:	0007c783          	lbu	a5,0(a5)
    4e8a:	0ff7f793          	andi	a5,a5,255
    4e8e:	0407f793          	andi	a5,a5,64
    4e92:	c7c5                	beqz	a5,4f3a <USB_DevTransProcess+0x9be>
E:/桌面/19th智能车/单片机培训、考核/CH32V103_Library-master/Seekfree_CH32V103R8T6_Opensource_Library/Libraries/seekfree_libraries/zf_usb_cdc.c:507
                    {
                        R8_UEP0_T_LEN = 0;
    4e94:	400237b7          	lui	a5,0x40023
    4e98:	43078793          	addi	a5,a5,1072 # 40023430 <_eusrstack+0x2001e430>
    4e9c:	00078023          	sb	zero,0(a5)
E:/桌面/19th智能车/单片机培训、考核/CH32V103_Library-master/Seekfree_CH32V103R8T6_Opensource_Library/Libraries/seekfree_libraries/zf_usb_cdc.c:508
                        R8_UEP0_CTRL |= UEP_R_RES_ACK | UEP_T_RES_ACK;  // 准备上传0包
    4ea0:	400237b7          	lui	a5,0x40023
    4ea4:	43278713          	addi	a4,a5,1074 # 40023432 <_eusrstack+0x2001e432>
    4ea8:	400237b7          	lui	a5,0x40023
    4eac:	43278793          	addi	a5,a5,1074 # 40023432 <_eusrstack+0x2001e432>
    4eb0:	00074703          	lbu	a4,0(a4)
    4eb4:	0ff77713          	andi	a4,a4,255
    4eb8:	00e78023          	sb	a4,0(a5)
E:/桌面/19th智能车/单片机培训、考核/CH32V103_Library-master/Seekfree_CH32V103R8T6_Opensource_Library/Libraries/seekfree_libraries/zf_usb_cdc.c:516
                else
                {
                        R8_UEP0_T_LEN = 0;
                        R8_UEP0_CTRL |= UEP_R_RES_ACK | UEP_T_RES_NAK;  //状态阶段，对IN响应NAK
                }
                break;
    4ebc:	a8bd                	j	4f3a <USB_DevTransProcess+0x9be>
E:/桌面/19th智能车/单片机培训、考核/CH32V103_Library-master/Seekfree_CH32V103R8T6_Opensource_Library/Libraries/seekfree_libraries/zf_usb_cdc.c:513
                        R8_UEP0_T_LEN = 0;
    4ebe:	400237b7          	lui	a5,0x40023
    4ec2:	43078793          	addi	a5,a5,1072 # 40023430 <_eusrstack+0x2001e430>
    4ec6:	00078023          	sb	zero,0(a5)
E:/桌面/19th智能车/单片机培训、考核/CH32V103_Library-master/Seekfree_CH32V103R8T6_Opensource_Library/Libraries/seekfree_libraries/zf_usb_cdc.c:514
                        R8_UEP0_CTRL |= UEP_R_RES_ACK | UEP_T_RES_NAK;  //状态阶段，对IN响应NAK
    4eca:	400237b7          	lui	a5,0x40023
    4ece:	43278793          	addi	a5,a5,1074 # 40023432 <_eusrstack+0x2001e432>
    4ed2:	0007c783          	lbu	a5,0(a5)
    4ed6:	0ff7f713          	andi	a4,a5,255
    4eda:	400237b7          	lui	a5,0x40023
    4ede:	43278793          	addi	a5,a5,1074 # 40023432 <_eusrstack+0x2001e432>
    4ee2:	00276713          	ori	a4,a4,2
    4ee6:	0ff77713          	andi	a4,a4,255
    4eea:	00e78023          	sb	a4,0(a5)
E:/桌面/19th智能车/单片机培训、考核/CH32V103_Library-master/Seekfree_CH32V103R8T6_Opensource_Library/Libraries/seekfree_libraries/zf_usb_cdc.c:516
                break;
    4eee:	a0b1                	j	4f3a <USB_DevTransProcess+0x9be>
E:/桌面/19th智能车/单片机培训、考核/CH32V103_Library-master/Seekfree_CH32V103R8T6_Opensource_Library/Libraries/seekfree_libraries/zf_usb_cdc.c:522

            case UIS_TOKEN_OUT | 1:
                break;

            case UIS_TOKEN_IN | 1:
                R8_UEP1_T_LEN = 0;
    4ef0:	400237b7          	lui	a5,0x40023
    4ef4:	43478793          	addi	a5,a5,1076 # 40023434 <_eusrstack+0x2001e434>
    4ef8:	00078023          	sb	zero,0(a5)
E:/桌面/19th智能车/单片机培训、考核/CH32V103_Library-master/Seekfree_CH32V103R8T6_Opensource_Library/Libraries/seekfree_libraries/zf_usb_cdc.c:523
                R8_UEP1_CTRL = (R8_UEP1_CTRL & ~MASK_UEP_T_RES) | UEP_T_RES_NAK;
    4efc:	400237b7          	lui	a5,0x40023
    4f00:	43678793          	addi	a5,a5,1078 # 40023436 <_eusrstack+0x2001e436>
    4f04:	0007c783          	lbu	a5,0(a5)
    4f08:	0ff7f793          	andi	a5,a5,255
    4f0c:	07e2                	slli	a5,a5,0x18
    4f0e:	87e1                	srai	a5,a5,0x18
    4f10:	9bf1                	andi	a5,a5,-4
    4f12:	07e2                	slli	a5,a5,0x18
    4f14:	87e1                	srai	a5,a5,0x18
    4f16:	0027e793          	ori	a5,a5,2
    4f1a:	01879713          	slli	a4,a5,0x18
    4f1e:	8761                	srai	a4,a4,0x18
    4f20:	400237b7          	lui	a5,0x40023
    4f24:	43678793          	addi	a5,a5,1078 # 40023436 <_eusrstack+0x2001e436>
    4f28:	0ff77713          	andi	a4,a4,255
    4f2c:	00e78023          	sb	a4,0(a5)
E:/桌面/19th智能车/单片机培训、考核/CH32V103_Library-master/Seekfree_CH32V103R8T6_Opensource_Library/Libraries/seekfree_libraries/zf_usb_cdc.c:524
                break;
    4f30:	a031                	j	4f3c <USB_DevTransProcess+0x9c0>
E:/桌面/19th智能车/单片机培训、考核/CH32V103_Library-master/Seekfree_CH32V103R8T6_Opensource_Library/Libraries/seekfree_libraries/zf_usb_cdc.c:527

            default :
                break;
    4f32:	0001                	nop
    4f34:	a021                	j	4f3c <USB_DevTransProcess+0x9c0>
E:/桌面/19th智能车/单片机培训、考核/CH32V103_Library-master/Seekfree_CH32V103R8T6_Opensource_Library/Libraries/seekfree_libraries/zf_usb_cdc.c:227
                break;
    4f36:	0001                	nop
    4f38:	a011                	j	4f3c <USB_DevTransProcess+0x9c0>
E:/桌面/19th智能车/单片机培训、考核/CH32V103_Library-master/Seekfree_CH32V103R8T6_Opensource_Library/Libraries/seekfree_libraries/zf_usb_cdc.c:516
                break;
    4f3a:	0001                	nop
E:/桌面/19th智能车/单片机培训、考核/CH32V103_Library-master/Seekfree_CH32V103R8T6_Opensource_Library/Libraries/seekfree_libraries/zf_usb_cdc.c:529
        }
        R8_USB_INT_FG = RB_UIF_TRANSFER;
    4f3c:	400237b7          	lui	a5,0x40023
    4f40:	40678793          	addi	a5,a5,1030 # 40023406 <_eusrstack+0x2001e406>
    4f44:	4709                	li	a4,2
    4f46:	00e78023          	sb	a4,0(a5)
E:/桌面/19th智能车/单片机培训、考核/CH32V103_Library-master/Seekfree_CH32V103R8T6_Opensource_Library/Libraries/seekfree_libraries/zf_usb_cdc.c:549
    }
    else
    {
        R8_USB_INT_FG = intflag;
    }
}
    4f4a:	a869                	j	4fe4 <USB_DevTransProcess+0xa68>
E:/桌面/19th智能车/单片机培训、考核/CH32V103_Library-master/Seekfree_CH32V103R8T6_Opensource_Library/Libraries/seekfree_libraries/zf_usb_cdc.c:531
    else if( intflag & RB_UIF_BUS_RST )
    4f4c:	feb44783          	lbu	a5,-21(s0)
    4f50:	8b85                	andi	a5,a5,1
    4f52:	cfb9                	beqz	a5,4fb0 <USB_DevTransProcess+0xa34>
E:/桌面/19th智能车/单片机培训、考核/CH32V103_Library-master/Seekfree_CH32V103R8T6_Opensource_Library/Libraries/seekfree_libraries/zf_usb_cdc.c:533
        R8_USB_DEV_AD = 0;
    4f54:	400237b7          	lui	a5,0x40023
    4f58:	40378793          	addi	a5,a5,1027 # 40023403 <_eusrstack+0x2001e403>
    4f5c:	00078023          	sb	zero,0(a5)
E:/桌面/19th智能车/单片机培训、考核/CH32V103_Library-master/Seekfree_CH32V103R8T6_Opensource_Library/Libraries/seekfree_libraries/zf_usb_cdc.c:534
        R8_UEP0_CTRL = UEP_R_RES_ACK | UEP_T_RES_NAK;
    4f60:	400237b7          	lui	a5,0x40023
    4f64:	43278793          	addi	a5,a5,1074 # 40023432 <_eusrstack+0x2001e432>
    4f68:	4709                	li	a4,2
    4f6a:	00e78023          	sb	a4,0(a5)
E:/桌面/19th智能车/单片机培训、考核/CH32V103_Library-master/Seekfree_CH32V103R8T6_Opensource_Library/Libraries/seekfree_libraries/zf_usb_cdc.c:535
        R8_UEP1_CTRL = UEP_R_RES_ACK | UEP_T_RES_NAK | RB_UEP_AUTO_TOG;
    4f6e:	400237b7          	lui	a5,0x40023
    4f72:	43678793          	addi	a5,a5,1078 # 40023436 <_eusrstack+0x2001e436>
    4f76:	4749                	li	a4,18
    4f78:	00e78023          	sb	a4,0(a5)
E:/桌面/19th智能车/单片机培训、考核/CH32V103_Library-master/Seekfree_CH32V103R8T6_Opensource_Library/Libraries/seekfree_libraries/zf_usb_cdc.c:536
        R8_UEP2_CTRL = UEP_R_RES_ACK | UEP_T_RES_NAK | RB_UEP_AUTO_TOG;
    4f7c:	400237b7          	lui	a5,0x40023
    4f80:	43a78793          	addi	a5,a5,1082 # 4002343a <_eusrstack+0x2001e43a>
    4f84:	4749                	li	a4,18
    4f86:	00e78023          	sb	a4,0(a5)
E:/桌面/19th智能车/单片机培训、考核/CH32V103_Library-master/Seekfree_CH32V103R8T6_Opensource_Library/Libraries/seekfree_libraries/zf_usb_cdc.c:537
        R8_USB_INT_FG |= RB_UIF_BUS_RST;
    4f8a:	400237b7          	lui	a5,0x40023
    4f8e:	40678793          	addi	a5,a5,1030 # 40023406 <_eusrstack+0x2001e406>
    4f92:	0007c783          	lbu	a5,0(a5)
    4f96:	0ff7f713          	andi	a4,a5,255
    4f9a:	400237b7          	lui	a5,0x40023
    4f9e:	40678793          	addi	a5,a5,1030 # 40023406 <_eusrstack+0x2001e406>
    4fa2:	00176713          	ori	a4,a4,1
    4fa6:	0ff77713          	andi	a4,a4,255
    4faa:	00e78023          	sb	a4,0(a5)
E:/桌面/19th智能车/单片机培训、考核/CH32V103_Library-master/Seekfree_CH32V103R8T6_Opensource_Library/Libraries/seekfree_libraries/zf_usb_cdc.c:549
}
    4fae:	a81d                	j	4fe4 <USB_DevTransProcess+0xa68>
E:/桌面/19th智能车/单片机培训、考核/CH32V103_Library-master/Seekfree_CH32V103R8T6_Opensource_Library/Libraries/seekfree_libraries/zf_usb_cdc.c:539
    else if( intflag & RB_UIF_SUSPEND )
    4fb0:	feb44783          	lbu	a5,-21(s0)
    4fb4:	8b91                	andi	a5,a5,4
    4fb6:	cf99                	beqz	a5,4fd4 <USB_DevTransProcess+0xa58>
E:/桌面/19th智能车/单片机培训、考核/CH32V103_Library-master/Seekfree_CH32V103R8T6_Opensource_Library/Libraries/seekfree_libraries/zf_usb_cdc.c:541
        if ( R8_USB_MIS_ST & RB_UMS_SUSPEND ) {;}
    4fb8:	400237b7          	lui	a5,0x40023
    4fbc:	40578793          	addi	a5,a5,1029 # 40023405 <_eusrstack+0x2001e405>
    4fc0:	0007c783          	lbu	a5,0(a5)
E:/桌面/19th智能车/单片机培训、考核/CH32V103_Library-master/Seekfree_CH32V103R8T6_Opensource_Library/Libraries/seekfree_libraries/zf_usb_cdc.c:543
        R8_USB_INT_FG = RB_UIF_SUSPEND;
    4fc4:	400237b7          	lui	a5,0x40023
    4fc8:	40678793          	addi	a5,a5,1030 # 40023406 <_eusrstack+0x2001e406>
    4fcc:	4711                	li	a4,4
    4fce:	00e78023          	sb	a4,0(a5)
E:/桌面/19th智能车/单片机培训、考核/CH32V103_Library-master/Seekfree_CH32V103R8T6_Opensource_Library/Libraries/seekfree_libraries/zf_usb_cdc.c:549
}
    4fd2:	a809                	j	4fe4 <USB_DevTransProcess+0xa68>
E:/桌面/19th智能车/单片机培训、考核/CH32V103_Library-master/Seekfree_CH32V103R8T6_Opensource_Library/Libraries/seekfree_libraries/zf_usb_cdc.c:547
        R8_USB_INT_FG = intflag;
    4fd4:	400237b7          	lui	a5,0x40023
    4fd8:	40678793          	addi	a5,a5,1030 # 40023406 <_eusrstack+0x2001e406>
    4fdc:	feb44703          	lbu	a4,-21(s0)
    4fe0:	00e78023          	sb	a4,0(a5)
E:/桌面/19th智能车/单片机培训、考核/CH32V103_Library-master/Seekfree_CH32V103R8T6_Opensource_Library/Libraries/seekfree_libraries/zf_usb_cdc.c:549
}
    4fe4:	0001                	nop
    4fe6:	40f2                	lw	ra,28(sp)
    4fe8:	4462                	lw	s0,24(sp)
    4fea:	6105                	addi	sp,sp,32
    4fec:	8082                	ret

00004fee <USBHD_IRQHandler>:
USBHD_IRQHandler():
E:/桌面/19th智能车/单片机培训、考核/CH32V103_Library-master/Seekfree_CH32V103R8T6_Opensource_Library/Libraries/seekfree_libraries/zf_usb_cdc.c:581
* Description    : This function handles USB exception.
* Input          : None
* Return         : None
*******************************************************************************/
void USBHD_IRQHandler (void)
{
    4fee:	1141                	addi	sp,sp,-16
    4ff0:	c622                	sw	s0,12(sp)
    4ff2:	0800                	addi	s0,sp,16
E:/桌面/19th智能车/单片机培训、考核/CH32V103_Library-master/Seekfree_CH32V103R8T6_Opensource_Library/Libraries/seekfree_libraries/zf_usb_cdc.c:582
    USB_DevTransProcess();
    4ff4:	d88ff0ef          	jal	ra,457c <USB_DevTransProcess>
E:/桌面/19th智能车/单片机培训、考核/CH32V103_Library-master/Seekfree_CH32V103R8T6_Opensource_Library/Libraries/seekfree_libraries/zf_usb_cdc.c:583
}
    4ff8:	0001                	nop
    4ffa:	4432                	lw	s0,12(sp)
    4ffc:	0141                	addi	sp,sp,16
    4ffe:	30200073          	mret

00005002 <EXTI0_IRQHandler>:
EXTI0_IRQHandler():
E:/桌面/19th智能车/单片机培训、考核/CH32V103_Library-master/Seekfree_CH32V103R8T6_Opensource_Library/Project/USER/isr.c:63
//void RTCAlarm_IRQHandler(void) __attribute__((interrupt("WCH-Interrupt-fast")));
//void USBWakeUp_IRQHandler(void) __attribute__((interrupt("WCH-Interrupt-fast")));
//void USBHD_IRQHandler(void) __attribute__((interrupt("WCH-Interrupt-fast")));

void EXTI0_IRQHandler(void)
{
    5002:	1141                	addi	sp,sp,-16
    5004:	c622                	sw	s0,12(sp)
    5006:	0800                	addi	s0,sp,16
E:/桌面/19th智能车/单片机培训、考核/CH32V103_Library-master/Seekfree_CH32V103R8T6_Opensource_Library/Project/USER/isr.c:64
    if(SET == EXTI_GetITStatus(EXTI_Line0))
    5008:	4505                	li	a0,1
    500a:	f52fb0ef          	jal	ra,75c <EXTI_GetITStatus>
    500e:	872a                	mv	a4,a0
    5010:	4785                	li	a5,1
    5012:	00f71563          	bne	a4,a5,501c <EXTI0_IRQHandler+0x1a>
E:/桌面/19th智能车/单片机培训、考核/CH32V103_Library-master/Seekfree_CH32V103R8T6_Opensource_Library/Project/USER/isr.c:66
    {
        EXTI_ClearITPendingBit(EXTI_Line0);
    5016:	4505                	li	a0,1
    5018:	f9afb0ef          	jal	ra,7b2 <EXTI_ClearITPendingBit>
E:/桌面/19th智能车/单片机培训、考核/CH32V103_Library-master/Seekfree_CH32V103R8T6_Opensource_Library/Project/USER/isr.c:68
    }
}
    501c:	0001                	nop
    501e:	4432                	lw	s0,12(sp)
    5020:	0141                	addi	sp,sp,16
    5022:	30200073          	mret

00005026 <EXTI1_IRQHandler>:
EXTI1_IRQHandler():
E:/桌面/19th智能车/单片机培训、考核/CH32V103_Library-master/Seekfree_CH32V103R8T6_Opensource_Library/Project/USER/isr.c:71

void EXTI1_IRQHandler(void)
{
    5026:	1141                	addi	sp,sp,-16
    5028:	c622                	sw	s0,12(sp)
    502a:	0800                	addi	s0,sp,16
E:/桌面/19th智能车/单片机培训、考核/CH32V103_Library-master/Seekfree_CH32V103R8T6_Opensource_Library/Project/USER/isr.c:72
    if(SET == EXTI_GetITStatus(EXTI_Line1))
    502c:	4509                	li	a0,2
    502e:	f2efb0ef          	jal	ra,75c <EXTI_GetITStatus>
    5032:	872a                	mv	a4,a0
    5034:	4785                	li	a5,1
    5036:	02f71463          	bne	a4,a5,505e <EXTI1_IRQHandler+0x38>
E:/桌面/19th智能车/单片机培训、考核/CH32V103_Library-master/Seekfree_CH32V103R8T6_Opensource_Library/Project/USER/isr.c:74
    {
        if(camera_type == CAMERA_BIN_UART)
    503a:	8401a703          	lw	a4,-1984(gp) # 200000b0 <camera_type>
    503e:	478d                	li	a5,3
    5040:	00f71563          	bne	a4,a5,504a <EXTI1_IRQHandler+0x24>
E:/桌面/19th智能车/单片机培训、考核/CH32V103_Library-master/Seekfree_CH32V103R8T6_Opensource_Library/Project/USER/isr.c:76
        {
            ov7725_uart_vsync();
    5044:	aa9fd0ef          	jal	ra,2aec <ov7725_uart_vsync>
    5048:	a801                	j	5058 <EXTI1_IRQHandler+0x32>
E:/桌面/19th智能车/单片机培训、考核/CH32V103_Library-master/Seekfree_CH32V103R8T6_Opensource_Library/Project/USER/isr.c:78
        }
        else if(camera_type == CAMERA_GRAYSCALE)
    504a:	8401a703          	lw	a4,-1984(gp) # 200000b0 <camera_type>
    504e:	4789                	li	a5,2
    5050:	00f71463          	bne	a4,a5,5058 <EXTI1_IRQHandler+0x32>
E:/桌面/19th智能车/单片机培训、考核/CH32V103_Library-master/Seekfree_CH32V103R8T6_Opensource_Library/Project/USER/isr.c:80
        {
            mt9v03x_vsync();
    5054:	977fd0ef          	jal	ra,29ca <mt9v03x_vsync>
E:/桌面/19th智能车/单片机培训、考核/CH32V103_Library-master/Seekfree_CH32V103R8T6_Opensource_Library/Project/USER/isr.c:82
        }
        EXTI_ClearITPendingBit(EXTI_Line1);
    5058:	4509                	li	a0,2
    505a:	f58fb0ef          	jal	ra,7b2 <EXTI_ClearITPendingBit>
E:/桌面/19th智能车/单片机培训、考核/CH32V103_Library-master/Seekfree_CH32V103R8T6_Opensource_Library/Project/USER/isr.c:84
    }
}
    505e:	0001                	nop
    5060:	4432                	lw	s0,12(sp)
    5062:	0141                	addi	sp,sp,16
    5064:	30200073          	mret

00005068 <EXTI2_IRQHandler>:
EXTI2_IRQHandler():
E:/桌面/19th智能车/单片机培训、考核/CH32V103_Library-master/Seekfree_CH32V103R8T6_Opensource_Library/Project/USER/isr.c:87

void EXTI2_IRQHandler(void)
{
    5068:	1141                	addi	sp,sp,-16
    506a:	c622                	sw	s0,12(sp)
    506c:	0800                	addi	s0,sp,16
E:/桌面/19th智能车/单片机培训、考核/CH32V103_Library-master/Seekfree_CH32V103R8T6_Opensource_Library/Project/USER/isr.c:88
    if(SET == EXTI_GetITStatus(EXTI_Line2))
    506e:	4511                	li	a0,4
    5070:	eecfb0ef          	jal	ra,75c <EXTI_GetITStatus>
    5074:	872a                	mv	a4,a0
    5076:	4785                	li	a5,1
    5078:	00f71563          	bne	a4,a5,5082 <EXTI2_IRQHandler+0x1a>
E:/桌面/19th智能车/单片机培训、考核/CH32V103_Library-master/Seekfree_CH32V103R8T6_Opensource_Library/Project/USER/isr.c:90
    {
        EXTI_ClearITPendingBit(EXTI_Line2);
    507c:	4511                	li	a0,4
    507e:	f34fb0ef          	jal	ra,7b2 <EXTI_ClearITPendingBit>
E:/桌面/19th智能车/单片机培训、考核/CH32V103_Library-master/Seekfree_CH32V103R8T6_Opensource_Library/Project/USER/isr.c:92
    }
}
    5082:	0001                	nop
    5084:	4432                	lw	s0,12(sp)
    5086:	0141                	addi	sp,sp,16
    5088:	30200073          	mret

0000508c <EXTI3_IRQHandler>:
EXTI3_IRQHandler():
E:/桌面/19th智能车/单片机培训、考核/CH32V103_Library-master/Seekfree_CH32V103R8T6_Opensource_Library/Project/USER/isr.c:95

void EXTI3_IRQHandler(void)
{
    508c:	1141                	addi	sp,sp,-16
    508e:	c622                	sw	s0,12(sp)
    5090:	0800                	addi	s0,sp,16
E:/桌面/19th智能车/单片机培训、考核/CH32V103_Library-master/Seekfree_CH32V103R8T6_Opensource_Library/Project/USER/isr.c:96
    if(SET == EXTI_GetITStatus(EXTI_Line3))
    5092:	4521                	li	a0,8
    5094:	ec8fb0ef          	jal	ra,75c <EXTI_GetITStatus>
    5098:	872a                	mv	a4,a0
    509a:	4785                	li	a5,1
    509c:	00f71563          	bne	a4,a5,50a6 <EXTI3_IRQHandler+0x1a>
E:/桌面/19th智能车/单片机培训、考核/CH32V103_Library-master/Seekfree_CH32V103R8T6_Opensource_Library/Project/USER/isr.c:98
    {
        EXTI_ClearITPendingBit(EXTI_Line3);
    50a0:	4521                	li	a0,8
    50a2:	f10fb0ef          	jal	ra,7b2 <EXTI_ClearITPendingBit>
E:/桌面/19th智能车/单片机培训、考核/CH32V103_Library-master/Seekfree_CH32V103R8T6_Opensource_Library/Project/USER/isr.c:101
    }

}
    50a6:	0001                	nop
    50a8:	4432                	lw	s0,12(sp)
    50aa:	0141                	addi	sp,sp,16
    50ac:	30200073          	mret

000050b0 <EXTI4_IRQHandler>:
EXTI4_IRQHandler():
E:/桌面/19th智能车/单片机培训、考核/CH32V103_Library-master/Seekfree_CH32V103R8T6_Opensource_Library/Project/USER/isr.c:104

void EXTI4_IRQHandler(void)
{
    50b0:	1141                	addi	sp,sp,-16
    50b2:	c622                	sw	s0,12(sp)
    50b4:	0800                	addi	s0,sp,16
E:/桌面/19th智能车/单片机培训、考核/CH32V103_Library-master/Seekfree_CH32V103R8T6_Opensource_Library/Project/USER/isr.c:105
    if(SET == EXTI_GetITStatus(EXTI_Line4))
    50b6:	4541                	li	a0,16
    50b8:	ea4fb0ef          	jal	ra,75c <EXTI_GetITStatus>
    50bc:	872a                	mv	a4,a0
    50be:	4785                	li	a5,1
    50c0:	00f71563          	bne	a4,a5,50ca <EXTI4_IRQHandler+0x1a>
E:/桌面/19th智能车/单片机培训、考核/CH32V103_Library-master/Seekfree_CH32V103R8T6_Opensource_Library/Project/USER/isr.c:107
    {
        EXTI_ClearITPendingBit(EXTI_Line4);
    50c4:	4541                	li	a0,16
    50c6:	eecfb0ef          	jal	ra,7b2 <EXTI_ClearITPendingBit>
E:/桌面/19th智能车/单片机培训、考核/CH32V103_Library-master/Seekfree_CH32V103R8T6_Opensource_Library/Project/USER/isr.c:110
    }

}
    50ca:	0001                	nop
    50cc:	4432                	lw	s0,12(sp)
    50ce:	0141                	addi	sp,sp,16
    50d0:	30200073          	mret

000050d4 <EXTI9_5_IRQHandler>:
EXTI9_5_IRQHandler():
E:/桌面/19th智能车/单片机培训、考核/CH32V103_Library-master/Seekfree_CH32V103R8T6_Opensource_Library/Project/USER/isr.c:113

void EXTI9_5_IRQHandler(void)
{
    50d4:	1141                	addi	sp,sp,-16
    50d6:	c622                	sw	s0,12(sp)
    50d8:	0800                	addi	s0,sp,16
E:/桌面/19th智能车/单片机培训、考核/CH32V103_Library-master/Seekfree_CH32V103R8T6_Opensource_Library/Project/USER/isr.c:114
    if(SET == EXTI_GetITStatus(EXTI_Line5))
    50da:	02000513          	li	a0,32
    50de:	e7efb0ef          	jal	ra,75c <EXTI_GetITStatus>
    50e2:	872a                	mv	a4,a0
    50e4:	4785                	li	a5,1
    50e6:	00f71763          	bne	a4,a5,50f4 <EXTI9_5_IRQHandler+0x20>
E:/桌面/19th智能车/单片机培训、考核/CH32V103_Library-master/Seekfree_CH32V103R8T6_Opensource_Library/Project/USER/isr.c:116
    {
        EXTI_ClearITPendingBit(EXTI_Line5);
    50ea:	02000513          	li	a0,32
    50ee:	ec4fb0ef          	jal	ra,7b2 <EXTI_ClearITPendingBit>
E:/桌面/19th智能车/单片机培训、考核/CH32V103_Library-master/Seekfree_CH32V103R8T6_Opensource_Library/Project/USER/isr.c:134
    }
    else if(SET == EXTI_GetITStatus(EXTI_Line9))
    {
        EXTI_ClearITPendingBit(EXTI_Line9);
    }
}
    50f2:	a0a5                	j	515a <EXTI9_5_IRQHandler+0x86>
E:/桌面/19th智能车/单片机培训、考核/CH32V103_Library-master/Seekfree_CH32V103R8T6_Opensource_Library/Project/USER/isr.c:118
    else if(SET == EXTI_GetITStatus(EXTI_Line6))
    50f4:	04000513          	li	a0,64
    50f8:	e64fb0ef          	jal	ra,75c <EXTI_GetITStatus>
    50fc:	872a                	mv	a4,a0
    50fe:	4785                	li	a5,1
    5100:	00f71763          	bne	a4,a5,510e <EXTI9_5_IRQHandler+0x3a>
E:/桌面/19th智能车/单片机培训、考核/CH32V103_Library-master/Seekfree_CH32V103R8T6_Opensource_Library/Project/USER/isr.c:120
        EXTI_ClearITPendingBit(EXTI_Line6);
    5104:	04000513          	li	a0,64
    5108:	eaafb0ef          	jal	ra,7b2 <EXTI_ClearITPendingBit>
E:/桌面/19th智能车/单片机培训、考核/CH32V103_Library-master/Seekfree_CH32V103R8T6_Opensource_Library/Project/USER/isr.c:134
}
    510c:	a0b9                	j	515a <EXTI9_5_IRQHandler+0x86>
E:/桌面/19th智能车/单片机培训、考核/CH32V103_Library-master/Seekfree_CH32V103R8T6_Opensource_Library/Project/USER/isr.c:122
    else if(SET == EXTI_GetITStatus(EXTI_Line7))
    510e:	08000513          	li	a0,128
    5112:	e4afb0ef          	jal	ra,75c <EXTI_GetITStatus>
    5116:	872a                	mv	a4,a0
    5118:	4785                	li	a5,1
    511a:	00f71763          	bne	a4,a5,5128 <EXTI9_5_IRQHandler+0x54>
E:/桌面/19th智能车/单片机培训、考核/CH32V103_Library-master/Seekfree_CH32V103R8T6_Opensource_Library/Project/USER/isr.c:124
        EXTI_ClearITPendingBit(EXTI_Line7);
    511e:	08000513          	li	a0,128
    5122:	e90fb0ef          	jal	ra,7b2 <EXTI_ClearITPendingBit>
E:/桌面/19th智能车/单片机培训、考核/CH32V103_Library-master/Seekfree_CH32V103R8T6_Opensource_Library/Project/USER/isr.c:134
}
    5126:	a815                	j	515a <EXTI9_5_IRQHandler+0x86>
E:/桌面/19th智能车/单片机培训、考核/CH32V103_Library-master/Seekfree_CH32V103R8T6_Opensource_Library/Project/USER/isr.c:126
    else if(SET == EXTI_GetITStatus(EXTI_Line8))
    5128:	10000513          	li	a0,256
    512c:	e30fb0ef          	jal	ra,75c <EXTI_GetITStatus>
    5130:	872a                	mv	a4,a0
    5132:	4785                	li	a5,1
    5134:	00f71763          	bne	a4,a5,5142 <EXTI9_5_IRQHandler+0x6e>
E:/桌面/19th智能车/单片机培训、考核/CH32V103_Library-master/Seekfree_CH32V103R8T6_Opensource_Library/Project/USER/isr.c:128
        EXTI_ClearITPendingBit(EXTI_Line8);
    5138:	10000513          	li	a0,256
    513c:	e76fb0ef          	jal	ra,7b2 <EXTI_ClearITPendingBit>
E:/桌面/19th智能车/单片机培训、考核/CH32V103_Library-master/Seekfree_CH32V103R8T6_Opensource_Library/Project/USER/isr.c:134
}
    5140:	a829                	j	515a <EXTI9_5_IRQHandler+0x86>
E:/桌面/19th智能车/单片机培训、考核/CH32V103_Library-master/Seekfree_CH32V103R8T6_Opensource_Library/Project/USER/isr.c:130
    else if(SET == EXTI_GetITStatus(EXTI_Line9))
    5142:	20000513          	li	a0,512
    5146:	e16fb0ef          	jal	ra,75c <EXTI_GetITStatus>
    514a:	872a                	mv	a4,a0
    514c:	4785                	li	a5,1
    514e:	00f71663          	bne	a4,a5,515a <EXTI9_5_IRQHandler+0x86>
E:/桌面/19th智能车/单片机培训、考核/CH32V103_Library-master/Seekfree_CH32V103R8T6_Opensource_Library/Project/USER/isr.c:132
        EXTI_ClearITPendingBit(EXTI_Line9);
    5152:	20000513          	li	a0,512
    5156:	e5cfb0ef          	jal	ra,7b2 <EXTI_ClearITPendingBit>
E:/桌面/19th智能车/单片机培训、考核/CH32V103_Library-master/Seekfree_CH32V103R8T6_Opensource_Library/Project/USER/isr.c:134
}
    515a:	0001                	nop
    515c:	4432                	lw	s0,12(sp)
    515e:	0141                	addi	sp,sp,16
    5160:	30200073          	mret

00005164 <EXTI15_10_IRQHandler>:
EXTI15_10_IRQHandler():
E:/桌面/19th智能车/单片机培训、考核/CH32V103_Library-master/Seekfree_CH32V103R8T6_Opensource_Library/Project/USER/isr.c:137

void EXTI15_10_IRQHandler(void)
{
    5164:	1141                	addi	sp,sp,-16
    5166:	c622                	sw	s0,12(sp)
    5168:	0800                	addi	s0,sp,16
E:/桌面/19th智能车/单片机培训、考核/CH32V103_Library-master/Seekfree_CH32V103R8T6_Opensource_Library/Project/USER/isr.c:138
    if(SET == EXTI_GetITStatus(EXTI_Line10))
    516a:	40000513          	li	a0,1024
    516e:	deefb0ef          	jal	ra,75c <EXTI_GetITStatus>
    5172:	872a                	mv	a4,a0
    5174:	4785                	li	a5,1
    5176:	00f71763          	bne	a4,a5,5184 <EXTI15_10_IRQHandler+0x20>
E:/桌面/19th智能车/单片机培训、考核/CH32V103_Library-master/Seekfree_CH32V103R8T6_Opensource_Library/Project/USER/isr.c:140
    {
        EXTI_ClearITPendingBit(EXTI_Line10);
    517a:	40000513          	li	a0,1024
    517e:	e34fb0ef          	jal	ra,7b2 <EXTI_ClearITPendingBit>
E:/桌面/19th智能车/单片机培训、考核/CH32V103_Library-master/Seekfree_CH32V103R8T6_Opensource_Library/Project/USER/isr.c:162
    }
    else if(SET == EXTI_GetITStatus(EXTI_Line15))
    {
        EXTI_ClearITPendingBit(EXTI_Line15);
    }
}
    5182:	a89d                	j	51f8 <EXTI15_10_IRQHandler+0x94>
E:/桌面/19th智能车/单片机培训、考核/CH32V103_Library-master/Seekfree_CH32V103R8T6_Opensource_Library/Project/USER/isr.c:142
    else if(SET == EXTI_GetITStatus(EXTI_Line11))
    5184:	6785                	lui	a5,0x1
    5186:	80078513          	addi	a0,a5,-2048 # 800 <__stack_size>
    518a:	dd2fb0ef          	jal	ra,75c <EXTI_GetITStatus>
    518e:	872a                	mv	a4,a0
    5190:	4785                	li	a5,1
    5192:	00f71863          	bne	a4,a5,51a2 <EXTI15_10_IRQHandler+0x3e>
E:/桌面/19th智能车/单片机培训、考核/CH32V103_Library-master/Seekfree_CH32V103R8T6_Opensource_Library/Project/USER/isr.c:144
        EXTI_ClearITPendingBit(EXTI_Line11);
    5196:	6785                	lui	a5,0x1
    5198:	80078513          	addi	a0,a5,-2048 # 800 <__stack_size>
    519c:	e16fb0ef          	jal	ra,7b2 <EXTI_ClearITPendingBit>
E:/桌面/19th智能车/单片机培训、考核/CH32V103_Library-master/Seekfree_CH32V103R8T6_Opensource_Library/Project/USER/isr.c:162
}
    51a0:	a8a1                	j	51f8 <EXTI15_10_IRQHandler+0x94>
E:/桌面/19th智能车/单片机培训、考核/CH32V103_Library-master/Seekfree_CH32V103R8T6_Opensource_Library/Project/USER/isr.c:146
    else if(SET == EXTI_GetITStatus(EXTI_Line12))
    51a2:	6505                	lui	a0,0x1
    51a4:	db8fb0ef          	jal	ra,75c <EXTI_GetITStatus>
    51a8:	872a                	mv	a4,a0
    51aa:	4785                	li	a5,1
    51ac:	00f71663          	bne	a4,a5,51b8 <EXTI15_10_IRQHandler+0x54>
E:/桌面/19th智能车/单片机培训、考核/CH32V103_Library-master/Seekfree_CH32V103R8T6_Opensource_Library/Project/USER/isr.c:148
        EXTI_ClearITPendingBit(EXTI_Line12);
    51b0:	6505                	lui	a0,0x1
    51b2:	e00fb0ef          	jal	ra,7b2 <EXTI_ClearITPendingBit>
E:/桌面/19th智能车/单片机培训、考核/CH32V103_Library-master/Seekfree_CH32V103R8T6_Opensource_Library/Project/USER/isr.c:162
}
    51b6:	a089                	j	51f8 <EXTI15_10_IRQHandler+0x94>
E:/桌面/19th智能车/单片机培训、考核/CH32V103_Library-master/Seekfree_CH32V103R8T6_Opensource_Library/Project/USER/isr.c:150
    else if(SET == EXTI_GetITStatus(EXTI_Line13))
    51b8:	6509                	lui	a0,0x2
    51ba:	da2fb0ef          	jal	ra,75c <EXTI_GetITStatus>
    51be:	872a                	mv	a4,a0
    51c0:	4785                	li	a5,1
    51c2:	00f71663          	bne	a4,a5,51ce <EXTI15_10_IRQHandler+0x6a>
E:/桌面/19th智能车/单片机培训、考核/CH32V103_Library-master/Seekfree_CH32V103R8T6_Opensource_Library/Project/USER/isr.c:152
        EXTI_ClearITPendingBit(EXTI_Line13);
    51c6:	6509                	lui	a0,0x2
    51c8:	deafb0ef          	jal	ra,7b2 <EXTI_ClearITPendingBit>
E:/桌面/19th智能车/单片机培训、考核/CH32V103_Library-master/Seekfree_CH32V103R8T6_Opensource_Library/Project/USER/isr.c:162
}
    51cc:	a035                	j	51f8 <EXTI15_10_IRQHandler+0x94>
E:/桌面/19th智能车/单片机培训、考核/CH32V103_Library-master/Seekfree_CH32V103R8T6_Opensource_Library/Project/USER/isr.c:154
    else if(SET == EXTI_GetITStatus(EXTI_Line14))
    51ce:	6511                	lui	a0,0x4
    51d0:	d8cfb0ef          	jal	ra,75c <EXTI_GetITStatus>
    51d4:	872a                	mv	a4,a0
    51d6:	4785                	li	a5,1
    51d8:	00f71663          	bne	a4,a5,51e4 <EXTI15_10_IRQHandler+0x80>
E:/桌面/19th智能车/单片机培训、考核/CH32V103_Library-master/Seekfree_CH32V103R8T6_Opensource_Library/Project/USER/isr.c:156
        EXTI_ClearITPendingBit(EXTI_Line14);
    51dc:	6511                	lui	a0,0x4
    51de:	dd4fb0ef          	jal	ra,7b2 <EXTI_ClearITPendingBit>
E:/桌面/19th智能车/单片机培训、考核/CH32V103_Library-master/Seekfree_CH32V103R8T6_Opensource_Library/Project/USER/isr.c:162
}
    51e2:	a819                	j	51f8 <EXTI15_10_IRQHandler+0x94>
E:/桌面/19th智能车/单片机培训、考核/CH32V103_Library-master/Seekfree_CH32V103R8T6_Opensource_Library/Project/USER/isr.c:158
    else if(SET == EXTI_GetITStatus(EXTI_Line15))
    51e4:	6521                	lui	a0,0x8
    51e6:	d76fb0ef          	jal	ra,75c <EXTI_GetITStatus>
    51ea:	872a                	mv	a4,a0
    51ec:	4785                	li	a5,1
    51ee:	00f71563          	bne	a4,a5,51f8 <EXTI15_10_IRQHandler+0x94>
E:/桌面/19th智能车/单片机培训、考核/CH32V103_Library-master/Seekfree_CH32V103R8T6_Opensource_Library/Project/USER/isr.c:160
        EXTI_ClearITPendingBit(EXTI_Line15);
    51f2:	6521                	lui	a0,0x8
    51f4:	dbefb0ef          	jal	ra,7b2 <EXTI_ClearITPendingBit>
E:/桌面/19th智能车/单片机培训、考核/CH32V103_Library-master/Seekfree_CH32V103R8T6_Opensource_Library/Project/USER/isr.c:162
}
    51f8:	0001                	nop
    51fa:	4432                	lw	s0,12(sp)
    51fc:	0141                	addi	sp,sp,16
    51fe:	30200073          	mret

00005202 <ADC1_2_IRQHandler>:
ADC1_2_IRQHandler():
E:/桌面/19th智能车/单片机培训、考核/CH32V103_Library-master/Seekfree_CH32V103R8T6_Opensource_Library/Project/USER/isr.c:165

void ADC1_2_IRQHandler(void)
{
    5202:	1141                	addi	sp,sp,-16
    5204:	c622                	sw	s0,12(sp)
    5206:	0800                	addi	s0,sp,16
E:/桌面/19th智能车/单片机培训、考核/CH32V103_Library-master/Seekfree_CH32V103R8T6_Opensource_Library/Project/USER/isr.c:168


}
    5208:	0001                	nop
    520a:	4432                	lw	s0,12(sp)
    520c:	0141                	addi	sp,sp,16
    520e:	30200073          	mret

00005212 <TIM1_BRK_IRQHandler>:
TIM1_BRK_IRQHandler():
E:/桌面/19th智能车/单片机培训、考核/CH32V103_Library-master/Seekfree_CH32V103R8T6_Opensource_Library/Project/USER/isr.c:171

void TIM1_BRK_IRQHandler(void)
{
    5212:	1141                	addi	sp,sp,-16
    5214:	c622                	sw	s0,12(sp)
    5216:	0800                	addi	s0,sp,16
E:/桌面/19th智能车/单片机培训、考核/CH32V103_Library-master/Seekfree_CH32V103R8T6_Opensource_Library/Project/USER/isr.c:172
    if(TIM_GetITStatus(TIM1, TIM_IT_Break) != RESET)
    5218:	08000593          	li	a1,128
    521c:	400137b7          	lui	a5,0x40013
    5220:	c0078513          	addi	a0,a5,-1024 # 40012c00 <_eusrstack+0x2000dc00>
    5224:	a35fc0ef          	jal	ra,1c58 <TIM_GetITStatus>
    5228:	87aa                	mv	a5,a0
    522a:	cb89                	beqz	a5,523c <TIM1_BRK_IRQHandler+0x2a>
E:/桌面/19th智能车/单片机培训、考核/CH32V103_Library-master/Seekfree_CH32V103R8T6_Opensource_Library/Project/USER/isr.c:174
    {
        TIM_ClearITPendingBit(TIM1, TIM_IT_Break);
    522c:	08000593          	li	a1,128
    5230:	400137b7          	lui	a5,0x40013
    5234:	c0078513          	addi	a0,a5,-1024 # 40012c00 <_eusrstack+0x2000dc00>
    5238:	a91fc0ef          	jal	ra,1cc8 <TIM_ClearITPendingBit>
E:/桌面/19th智能车/单片机培训、考核/CH32V103_Library-master/Seekfree_CH32V103R8T6_Opensource_Library/Project/USER/isr.c:177

    }
}
    523c:	0001                	nop
    523e:	4432                	lw	s0,12(sp)
    5240:	0141                	addi	sp,sp,16
    5242:	30200073          	mret

00005246 <TIM1_UP_IRQHandler>:
TIM1_UP_IRQHandler():
E:/桌面/19th智能车/单片机培训、考核/CH32V103_Library-master/Seekfree_CH32V103R8T6_Opensource_Library/Project/USER/isr.c:181


void TIM1_UP_IRQHandler(void)
{
    5246:	1141                	addi	sp,sp,-16
    5248:	c622                	sw	s0,12(sp)
    524a:	0800                	addi	s0,sp,16
E:/桌面/19th智能车/单片机培训、考核/CH32V103_Library-master/Seekfree_CH32V103R8T6_Opensource_Library/Project/USER/isr.c:183
    //定时器1的周期中断函数
    if(TIM_GetITStatus(TIM1, TIM_IT_Update) != RESET)
    524c:	4585                	li	a1,1
    524e:	400137b7          	lui	a5,0x40013
    5252:	c0078513          	addi	a0,a5,-1024 # 40012c00 <_eusrstack+0x2000dc00>
    5256:	a03fc0ef          	jal	ra,1c58 <TIM_GetITStatus>
    525a:	87aa                	mv	a5,a0
    525c:	cb81                	beqz	a5,526c <TIM1_UP_IRQHandler+0x26>
E:/桌面/19th智能车/单片机培训、考核/CH32V103_Library-master/Seekfree_CH32V103R8T6_Opensource_Library/Project/USER/isr.c:185
    {
        TIM_ClearITPendingBit(TIM1, TIM_IT_Update);
    525e:	4585                	li	a1,1
    5260:	400137b7          	lui	a5,0x40013
    5264:	c0078513          	addi	a0,a5,-1024 # 40012c00 <_eusrstack+0x2000dc00>
    5268:	a61fc0ef          	jal	ra,1cc8 <TIM_ClearITPendingBit>
E:/桌面/19th智能车/单片机培训、考核/CH32V103_Library-master/Seekfree_CH32V103R8T6_Opensource_Library/Project/USER/isr.c:188

    }
}
    526c:	0001                	nop
    526e:	4432                	lw	s0,12(sp)
    5270:	0141                	addi	sp,sp,16
    5272:	30200073          	mret

00005276 <TIM1_TRG_COM_IRQHandler>:
TIM1_TRG_COM_IRQHandler():
E:/桌面/19th智能车/单片机培训、考核/CH32V103_Library-master/Seekfree_CH32V103R8T6_Opensource_Library/Project/USER/isr.c:191

void TIM1_TRG_COM_IRQHandler(void)
{
    5276:	1141                	addi	sp,sp,-16
    5278:	c622                	sw	s0,12(sp)
    527a:	0800                	addi	s0,sp,16
E:/桌面/19th智能车/单片机培训、考核/CH32V103_Library-master/Seekfree_CH32V103R8T6_Opensource_Library/Project/USER/isr.c:192
    if(TIM_GetITStatus(TIM1, TIM_IT_Trigger) != RESET)
    527c:	04000593          	li	a1,64
    5280:	400137b7          	lui	a5,0x40013
    5284:	c0078513          	addi	a0,a5,-1024 # 40012c00 <_eusrstack+0x2000dc00>
    5288:	9d1fc0ef          	jal	ra,1c58 <TIM_GetITStatus>
    528c:	87aa                	mv	a5,a0
    528e:	cb89                	beqz	a5,52a0 <TIM1_TRG_COM_IRQHandler+0x2a>
E:/桌面/19th智能车/单片机培训、考核/CH32V103_Library-master/Seekfree_CH32V103R8T6_Opensource_Library/Project/USER/isr.c:194
    {
        TIM_ClearITPendingBit(TIM1, TIM_IT_Trigger);
    5290:	04000593          	li	a1,64
    5294:	400137b7          	lui	a5,0x40013
    5298:	c0078513          	addi	a0,a5,-1024 # 40012c00 <_eusrstack+0x2000dc00>
    529c:	a2dfc0ef          	jal	ra,1cc8 <TIM_ClearITPendingBit>
E:/桌面/19th智能车/单片机培训、考核/CH32V103_Library-master/Seekfree_CH32V103R8T6_Opensource_Library/Project/USER/isr.c:197

    }
    if(TIM_GetITStatus(TIM1, TIM_IT_COM) != RESET)
    52a0:	02000593          	li	a1,32
    52a4:	400137b7          	lui	a5,0x40013
    52a8:	c0078513          	addi	a0,a5,-1024 # 40012c00 <_eusrstack+0x2000dc00>
    52ac:	9adfc0ef          	jal	ra,1c58 <TIM_GetITStatus>
    52b0:	87aa                	mv	a5,a0
    52b2:	cb89                	beqz	a5,52c4 <TIM1_TRG_COM_IRQHandler+0x4e>
E:/桌面/19th智能车/单片机培训、考核/CH32V103_Library-master/Seekfree_CH32V103R8T6_Opensource_Library/Project/USER/isr.c:199
    {
        TIM_ClearITPendingBit(TIM1, TIM_IT_COM);
    52b4:	02000593          	li	a1,32
    52b8:	400137b7          	lui	a5,0x40013
    52bc:	c0078513          	addi	a0,a5,-1024 # 40012c00 <_eusrstack+0x2000dc00>
    52c0:	a09fc0ef          	jal	ra,1cc8 <TIM_ClearITPendingBit>
E:/桌面/19th智能车/单片机培训、考核/CH32V103_Library-master/Seekfree_CH32V103R8T6_Opensource_Library/Project/USER/isr.c:202

    }
}
    52c4:	0001                	nop
    52c6:	4432                	lw	s0,12(sp)
    52c8:	0141                	addi	sp,sp,16
    52ca:	30200073          	mret

000052ce <TIM1_CC_IRQHandler>:
TIM1_CC_IRQHandler():
E:/桌面/19th智能车/单片机培训、考核/CH32V103_Library-master/Seekfree_CH32V103R8T6_Opensource_Library/Project/USER/isr.c:205

void TIM1_CC_IRQHandler(void)
{
    52ce:	1141                	addi	sp,sp,-16
    52d0:	c622                	sw	s0,12(sp)
    52d2:	0800                	addi	s0,sp,16
E:/桌面/19th智能车/单片机培训、考核/CH32V103_Library-master/Seekfree_CH32V103R8T6_Opensource_Library/Project/USER/isr.c:206
    if(TIM_GetITStatus(TIM1, TIM_IT_CC1) != RESET)
    52d4:	4589                	li	a1,2
    52d6:	400137b7          	lui	a5,0x40013
    52da:	c0078513          	addi	a0,a5,-1024 # 40012c00 <_eusrstack+0x2000dc00>
    52de:	97bfc0ef          	jal	ra,1c58 <TIM_GetITStatus>
    52e2:	87aa                	mv	a5,a0
    52e4:	cb81                	beqz	a5,52f4 <TIM1_CC_IRQHandler+0x26>
E:/桌面/19th智能车/单片机培训、考核/CH32V103_Library-master/Seekfree_CH32V103R8T6_Opensource_Library/Project/USER/isr.c:208
    {
        TIM_ClearITPendingBit(TIM1, TIM_IT_CC1);
    52e6:	4589                	li	a1,2
    52e8:	400137b7          	lui	a5,0x40013
    52ec:	c0078513          	addi	a0,a5,-1024 # 40012c00 <_eusrstack+0x2000dc00>
    52f0:	9d9fc0ef          	jal	ra,1cc8 <TIM_ClearITPendingBit>
E:/桌面/19th智能车/单片机培训、考核/CH32V103_Library-master/Seekfree_CH32V103R8T6_Opensource_Library/Project/USER/isr.c:211

    }
    if(TIM_GetITStatus(TIM1, TIM_IT_CC2) != RESET)
    52f4:	4591                	li	a1,4
    52f6:	400137b7          	lui	a5,0x40013
    52fa:	c0078513          	addi	a0,a5,-1024 # 40012c00 <_eusrstack+0x2000dc00>
    52fe:	95bfc0ef          	jal	ra,1c58 <TIM_GetITStatus>
    5302:	87aa                	mv	a5,a0
    5304:	cb81                	beqz	a5,5314 <TIM1_CC_IRQHandler+0x46>
E:/桌面/19th智能车/单片机培训、考核/CH32V103_Library-master/Seekfree_CH32V103R8T6_Opensource_Library/Project/USER/isr.c:213
    {
        TIM_ClearITPendingBit(TIM1, TIM_IT_CC2);
    5306:	4591                	li	a1,4
    5308:	400137b7          	lui	a5,0x40013
    530c:	c0078513          	addi	a0,a5,-1024 # 40012c00 <_eusrstack+0x2000dc00>
    5310:	9b9fc0ef          	jal	ra,1cc8 <TIM_ClearITPendingBit>
E:/桌面/19th智能车/单片机培训、考核/CH32V103_Library-master/Seekfree_CH32V103R8T6_Opensource_Library/Project/USER/isr.c:216

    }
    if(TIM_GetITStatus(TIM1, TIM_IT_CC3) != RESET)
    5314:	45a1                	li	a1,8
    5316:	400137b7          	lui	a5,0x40013
    531a:	c0078513          	addi	a0,a5,-1024 # 40012c00 <_eusrstack+0x2000dc00>
    531e:	93bfc0ef          	jal	ra,1c58 <TIM_GetITStatus>
    5322:	87aa                	mv	a5,a0
    5324:	cb81                	beqz	a5,5334 <TIM1_CC_IRQHandler+0x66>
E:/桌面/19th智能车/单片机培训、考核/CH32V103_Library-master/Seekfree_CH32V103R8T6_Opensource_Library/Project/USER/isr.c:218
    {
        TIM_ClearITPendingBit(TIM1, TIM_IT_CC3);
    5326:	45a1                	li	a1,8
    5328:	400137b7          	lui	a5,0x40013
    532c:	c0078513          	addi	a0,a5,-1024 # 40012c00 <_eusrstack+0x2000dc00>
    5330:	999fc0ef          	jal	ra,1cc8 <TIM_ClearITPendingBit>
E:/桌面/19th智能车/单片机培训、考核/CH32V103_Library-master/Seekfree_CH32V103R8T6_Opensource_Library/Project/USER/isr.c:221

    }
    if(TIM_GetITStatus(TIM1, TIM_IT_CC4) != RESET)
    5334:	45c1                	li	a1,16
    5336:	400137b7          	lui	a5,0x40013
    533a:	c0078513          	addi	a0,a5,-1024 # 40012c00 <_eusrstack+0x2000dc00>
    533e:	91bfc0ef          	jal	ra,1c58 <TIM_GetITStatus>
    5342:	87aa                	mv	a5,a0
    5344:	cb81                	beqz	a5,5354 <TIM1_CC_IRQHandler+0x86>
E:/桌面/19th智能车/单片机培训、考核/CH32V103_Library-master/Seekfree_CH32V103R8T6_Opensource_Library/Project/USER/isr.c:223
    {
        TIM_ClearITPendingBit(TIM1, TIM_IT_CC4);
    5346:	45c1                	li	a1,16
    5348:	400137b7          	lui	a5,0x40013
    534c:	c0078513          	addi	a0,a5,-1024 # 40012c00 <_eusrstack+0x2000dc00>
    5350:	979fc0ef          	jal	ra,1cc8 <TIM_ClearITPendingBit>
E:/桌面/19th智能车/单片机培训、考核/CH32V103_Library-master/Seekfree_CH32V103R8T6_Opensource_Library/Project/USER/isr.c:226

    }
}
    5354:	0001                	nop
    5356:	4432                	lw	s0,12(sp)
    5358:	0141                	addi	sp,sp,16
    535a:	30200073          	mret

0000535e <TIM2_IRQHandler>:
TIM2_IRQHandler():
E:/桌面/19th智能车/单片机培训、考核/CH32V103_Library-master/Seekfree_CH32V103R8T6_Opensource_Library/Project/USER/isr.c:229

void TIM2_IRQHandler(void)
{
    535e:	1141                	addi	sp,sp,-16
    5360:	c622                	sw	s0,12(sp)
    5362:	0800                	addi	s0,sp,16
E:/桌面/19th智能车/单片机培训、考核/CH32V103_Library-master/Seekfree_CH32V103R8T6_Opensource_Library/Project/USER/isr.c:231

    if(TIM_GetITStatus(TIM2, TIM_IT_Update) != RESET)
    5364:	4585                	li	a1,1
    5366:	40000537          	lui	a0,0x40000
    536a:	8effc0ef          	jal	ra,1c58 <TIM_GetITStatus>
    536e:	87aa                	mv	a5,a0
    5370:	c791                	beqz	a5,537c <TIM2_IRQHandler+0x1e>
E:/桌面/19th智能车/单片机培训、考核/CH32V103_Library-master/Seekfree_CH32V103R8T6_Opensource_Library/Project/USER/isr.c:233
    {
        TIM_ClearITPendingBit(TIM2, TIM_IT_Update );
    5372:	4585                	li	a1,1
    5374:	40000537          	lui	a0,0x40000
    5378:	951fc0ef          	jal	ra,1cc8 <TIM_ClearITPendingBit>
E:/桌面/19th智能车/单片机培训、考核/CH32V103_Library-master/Seekfree_CH32V103R8T6_Opensource_Library/Project/USER/isr.c:236
        //ccd_collect();//CCD数据采集
    }
}
    537c:	0001                	nop
    537e:	4432                	lw	s0,12(sp)
    5380:	0141                	addi	sp,sp,16
    5382:	30200073          	mret

00005386 <TIM3_IRQHandler>:
TIM3_IRQHandler():
E:/桌面/19th智能车/单片机培训、考核/CH32V103_Library-master/Seekfree_CH32V103R8T6_Opensource_Library/Project/USER/isr.c:239

void TIM3_IRQHandler(void)
{
    5386:	1141                	addi	sp,sp,-16
    5388:	c622                	sw	s0,12(sp)
    538a:	0800                	addi	s0,sp,16
E:/桌面/19th智能车/单片机培训、考核/CH32V103_Library-master/Seekfree_CH32V103R8T6_Opensource_Library/Project/USER/isr.c:240
    if(TIM_GetITStatus(TIM3, TIM_IT_Update) != RESET)
    538c:	4585                	li	a1,1
    538e:	400007b7          	lui	a5,0x40000
    5392:	40078513          	addi	a0,a5,1024 # 40000400 <_eusrstack+0x1fffb400>
    5396:	8c3fc0ef          	jal	ra,1c58 <TIM_GetITStatus>
    539a:	87aa                	mv	a5,a0
    539c:	cb81                	beqz	a5,53ac <TIM3_IRQHandler+0x26>
E:/桌面/19th智能车/单片机培训、考核/CH32V103_Library-master/Seekfree_CH32V103R8T6_Opensource_Library/Project/USER/isr.c:242
    {
        TIM_ClearITPendingBit(TIM3, TIM_IT_Update );
    539e:	4585                	li	a1,1
    53a0:	400007b7          	lui	a5,0x40000
    53a4:	40078513          	addi	a0,a5,1024 # 40000400 <_eusrstack+0x1fffb400>
    53a8:	921fc0ef          	jal	ra,1cc8 <TIM_ClearITPendingBit>
E:/桌面/19th智能车/单片机培训、考核/CH32V103_Library-master/Seekfree_CH32V103R8T6_Opensource_Library/Project/USER/isr.c:245

    }
}
    53ac:	0001                	nop
    53ae:	4432                	lw	s0,12(sp)
    53b0:	0141                	addi	sp,sp,16
    53b2:	30200073          	mret

000053b6 <TIM4_IRQHandler>:
TIM4_IRQHandler():
E:/桌面/19th智能车/单片机培训、考核/CH32V103_Library-master/Seekfree_CH32V103R8T6_Opensource_Library/Project/USER/isr.c:248

void TIM4_IRQHandler(void)
{
    53b6:	1141                	addi	sp,sp,-16
    53b8:	c622                	sw	s0,12(sp)
    53ba:	0800                	addi	s0,sp,16
E:/桌面/19th智能车/单片机培训、考核/CH32V103_Library-master/Seekfree_CH32V103R8T6_Opensource_Library/Project/USER/isr.c:249
    if(TIM_GetITStatus(TIM4, TIM_IT_Update) != RESET)
    53bc:	4585                	li	a1,1
    53be:	400017b7          	lui	a5,0x40001
    53c2:	80078513          	addi	a0,a5,-2048 # 40000800 <_eusrstack+0x1fffb800>
    53c6:	893fc0ef          	jal	ra,1c58 <TIM_GetITStatus>
    53ca:	87aa                	mv	a5,a0
    53cc:	cb81                	beqz	a5,53dc <TIM4_IRQHandler+0x26>
E:/桌面/19th智能车/单片机培训、考核/CH32V103_Library-master/Seekfree_CH32V103R8T6_Opensource_Library/Project/USER/isr.c:251
    {
        TIM_ClearITPendingBit(TIM4, TIM_IT_Update );
    53ce:	4585                	li	a1,1
    53d0:	400017b7          	lui	a5,0x40001
    53d4:	80078513          	addi	a0,a5,-2048 # 40000800 <_eusrstack+0x1fffb800>
    53d8:	8f1fc0ef          	jal	ra,1cc8 <TIM_ClearITPendingBit>
E:/桌面/19th智能车/单片机培训、考核/CH32V103_Library-master/Seekfree_CH32V103R8T6_Opensource_Library/Project/USER/isr.c:254

    }
}
    53dc:	0001                	nop
    53de:	4432                	lw	s0,12(sp)
    53e0:	0141                	addi	sp,sp,16
    53e2:	30200073          	mret

000053e6 <USART1_IRQHandler>:
USART1_IRQHandler():
E:/桌面/19th智能车/单片机培训、考核/CH32V103_Library-master/Seekfree_CH32V103R8T6_Opensource_Library/Project/USER/isr.c:257

void USART1_IRQHandler(void)
{
    53e6:	1141                	addi	sp,sp,-16
    53e8:	c622                	sw	s0,12(sp)
    53ea:	0800                	addi	s0,sp,16
E:/桌面/19th智能车/单片机培训、考核/CH32V103_Library-master/Seekfree_CH32V103R8T6_Opensource_Library/Project/USER/isr.c:258
    if(USART_GetITStatus(USART1, USART_IT_RXNE) != RESET)
    53ec:	52500593          	li	a1,1317
    53f0:	400147b7          	lui	a5,0x40014
    53f4:	80078513          	addi	a0,a5,-2048 # 40013800 <_eusrstack+0x2000e800>
    53f8:	c07fc0ef          	jal	ra,1ffe <USART_GetITStatus>
    53fc:	87aa                	mv	a5,a0
    53fe:	cb85                	beqz	a5,542e <USART1_IRQHandler+0x48>
E:/桌面/19th智能车/单片机培训、考核/CH32V103_Library-master/Seekfree_CH32V103R8T6_Opensource_Library/Project/USER/isr.c:260
    {
        USART_ClearITPendingBit(USART1, USART_IT_RXNE);
    5400:	52500593          	li	a1,1317
    5404:	400147b7          	lui	a5,0x40014
    5408:	80078513          	addi	a0,a5,-2048 # 40013800 <_eusrstack+0x2000e800>
    540c:	cf5fc0ef          	jal	ra,2100 <USART_ClearITPendingBit>
E:/桌面/19th智能车/单片机培训、考核/CH32V103_Library-master/Seekfree_CH32V103R8T6_Opensource_Library/Project/USER/isr.c:261
        if(wireless_type == WIRELESS_SI24R1)
    5410:	8441a703          	lw	a4,-1980(gp) # 200000b4 <wireless_type>
    5414:	4785                	li	a5,1
    5416:	00f71563          	bne	a4,a5,5420 <USART1_IRQHandler+0x3a>
E:/桌面/19th智能车/单片机培训、考核/CH32V103_Library-master/Seekfree_CH32V103R8T6_Opensource_Library/Project/USER/isr.c:263
        {
            wireless_uart_callback();
    541a:	f84fd0ef          	jal	ra,2b9e <wireless_uart_callback>
E:/桌面/19th智能车/单片机培训、考核/CH32V103_Library-master/Seekfree_CH32V103R8T6_Opensource_Library/Project/USER/isr.c:270
        else if(wireless_type == WIRELESS_CH9141)
        {
            bluetooth_ch9141_uart_callback();
        }
    }
}
    541e:	a801                	j	542e <USART1_IRQHandler+0x48>
E:/桌面/19th智能车/单片机培训、考核/CH32V103_Library-master/Seekfree_CH32V103R8T6_Opensource_Library/Project/USER/isr.c:265
        else if(wireless_type == WIRELESS_CH9141)
    5420:	8441a703          	lw	a4,-1980(gp) # 200000b4 <wireless_type>
    5424:	4789                	li	a5,2
    5426:	00f71463          	bne	a4,a5,542e <USART1_IRQHandler+0x48>
E:/桌面/19th智能车/单片机培训、考核/CH32V103_Library-master/Seekfree_CH32V103R8T6_Opensource_Library/Project/USER/isr.c:267
            bluetooth_ch9141_uart_callback();
    542a:	d25fc0ef          	jal	ra,214e <bluetooth_ch9141_uart_callback>
E:/桌面/19th智能车/单片机培训、考核/CH32V103_Library-master/Seekfree_CH32V103R8T6_Opensource_Library/Project/USER/isr.c:270
}
    542e:	0001                	nop
    5430:	4432                	lw	s0,12(sp)
    5432:	0141                	addi	sp,sp,16
    5434:	30200073          	mret

00005438 <USART2_IRQHandler>:
USART2_IRQHandler():
E:/桌面/19th智能车/单片机培训、考核/CH32V103_Library-master/Seekfree_CH32V103R8T6_Opensource_Library/Project/USER/isr.c:273

void USART2_IRQHandler(void)
{
    5438:	1141                	addi	sp,sp,-16
    543a:	c622                	sw	s0,12(sp)
    543c:	0800                	addi	s0,sp,16
E:/桌面/19th智能车/单片机培训、考核/CH32V103_Library-master/Seekfree_CH32V103R8T6_Opensource_Library/Project/USER/isr.c:274
    if(USART_GetITStatus(USART2, USART_IT_RXNE) != RESET)
    543e:	52500593          	li	a1,1317
    5442:	400047b7          	lui	a5,0x40004
    5446:	40078513          	addi	a0,a5,1024 # 40004400 <_eusrstack+0x1ffff400>
    544a:	bb5fc0ef          	jal	ra,1ffe <USART_GetITStatus>
    544e:	87aa                	mv	a5,a0
    5450:	cb85                	beqz	a5,5480 <USART2_IRQHandler+0x48>
E:/桌面/19th智能车/单片机培训、考核/CH32V103_Library-master/Seekfree_CH32V103R8T6_Opensource_Library/Project/USER/isr.c:276
    {
        USART_ClearITPendingBit(USART2, USART_IT_RXNE);
    5452:	52500593          	li	a1,1317
    5456:	400047b7          	lui	a5,0x40004
    545a:	40078513          	addi	a0,a5,1024 # 40004400 <_eusrstack+0x1ffff400>
    545e:	ca3fc0ef          	jal	ra,2100 <USART_ClearITPendingBit>
E:/桌面/19th智能车/单片机培训、考核/CH32V103_Library-master/Seekfree_CH32V103R8T6_Opensource_Library/Project/USER/isr.c:277
        if(camera_type == CAMERA_BIN_UART)
    5462:	8401a703          	lw	a4,-1984(gp) # 200000b0 <camera_type>
    5466:	478d                	li	a5,3
    5468:	00f71563          	bne	a4,a5,5472 <USART2_IRQHandler+0x3a>
E:/桌面/19th智能车/单片机培训、考核/CH32V103_Library-master/Seekfree_CH32V103R8T6_Opensource_Library/Project/USER/isr.c:279
        {
            ov7725_cof_uart_interrupt();
    546c:	e10fd0ef          	jal	ra,2a7c <ov7725_cof_uart_interrupt>
E:/桌面/19th智能车/单片机培训、考核/CH32V103_Library-master/Seekfree_CH32V103R8T6_Opensource_Library/Project/USER/isr.c:286
        else if(camera_type == CAMERA_GRAYSCALE)
        {
            mt9v03x_uart_callback();
        }
    }
}
    5470:	a801                	j	5480 <USART2_IRQHandler+0x48>
E:/桌面/19th智能车/单片机培训、考核/CH32V103_Library-master/Seekfree_CH32V103R8T6_Opensource_Library/Project/USER/isr.c:281
        else if(camera_type == CAMERA_GRAYSCALE)
    5472:	8401a703          	lw	a4,-1984(gp) # 200000b0 <camera_type>
    5476:	4789                	li	a5,2
    5478:	00f71463          	bne	a4,a5,5480 <USART2_IRQHandler+0x48>
E:/桌面/19th智能车/单片机培训、考核/CH32V103_Library-master/Seekfree_CH32V103R8T6_Opensource_Library/Project/USER/isr.c:283
            mt9v03x_uart_callback();
    547c:	cdefd0ef          	jal	ra,295a <mt9v03x_uart_callback>
E:/桌面/19th智能车/单片机培训、考核/CH32V103_Library-master/Seekfree_CH32V103R8T6_Opensource_Library/Project/USER/isr.c:286
}
    5480:	0001                	nop
    5482:	4432                	lw	s0,12(sp)
    5484:	0141                	addi	sp,sp,16
    5486:	30200073          	mret

0000548a <USART3_IRQHandler>:
USART3_IRQHandler():
E:/桌面/19th智能车/单片机培训、考核/CH32V103_Library-master/Seekfree_CH32V103R8T6_Opensource_Library/Project/USER/isr.c:289

void USART3_IRQHandler(void)
{
    548a:	1141                	addi	sp,sp,-16
    548c:	c622                	sw	s0,12(sp)
    548e:	0800                	addi	s0,sp,16
E:/桌面/19th智能车/单片机培训、考核/CH32V103_Library-master/Seekfree_CH32V103R8T6_Opensource_Library/Project/USER/isr.c:290
    if(USART_GetITStatus(USART3, USART_IT_RXNE) != RESET)
    5490:	52500593          	li	a1,1317
    5494:	400057b7          	lui	a5,0x40005
    5498:	80078513          	addi	a0,a5,-2048 # 40004800 <_eusrstack+0x1ffff800>
    549c:	b63fc0ef          	jal	ra,1ffe <USART_GetITStatus>
    54a0:	87aa                	mv	a5,a0
    54a2:	cb89                	beqz	a5,54b4 <USART3_IRQHandler+0x2a>
E:/桌面/19th智能车/单片机培训、考核/CH32V103_Library-master/Seekfree_CH32V103R8T6_Opensource_Library/Project/USER/isr.c:292
    {
        USART_ClearITPendingBit(USART3, USART_IT_RXNE);
    54a4:	52500593          	li	a1,1317
    54a8:	400057b7          	lui	a5,0x40005
    54ac:	80078513          	addi	a0,a5,-2048 # 40004800 <_eusrstack+0x1ffff800>
    54b0:	c51fc0ef          	jal	ra,2100 <USART_ClearITPendingBit>
E:/桌面/19th智能车/单片机培训、考核/CH32V103_Library-master/Seekfree_CH32V103R8T6_Opensource_Library/Project/USER/isr.c:294
    }
}
    54b4:	0001                	nop
    54b6:	4432                	lw	s0,12(sp)
    54b8:	0141                	addi	sp,sp,16
    54ba:	30200073          	mret

000054be <DMA1_Channel4_IRQHandler>:
DMA1_Channel4_IRQHandler():
E:/桌面/19th智能车/单片机培训、考核/CH32V103_Library-master/Seekfree_CH32V103R8T6_Opensource_Library/Project/USER/isr.c:297

void DMA1_Channel4_IRQHandler(void)
{
    54be:	1141                	addi	sp,sp,-16
    54c0:	c622                	sw	s0,12(sp)
    54c2:	0800                	addi	s0,sp,16
E:/桌面/19th智能车/单片机培训、考核/CH32V103_Library-master/Seekfree_CH32V103R8T6_Opensource_Library/Project/USER/isr.c:298
    if(SET == DMA_GetFlagStatus(DMA1_FLAG_TC4))
    54c4:	6509                	lui	a0,0x2
    54c6:	a02fb0ef          	jal	ra,6c8 <DMA_GetFlagStatus>
    54ca:	872a                	mv	a4,a0
    54cc:	4785                	li	a5,1
    54ce:	02f71463          	bne	a4,a5,54f6 <DMA1_Channel4_IRQHandler+0x38>
E:/桌面/19th智能车/单片机培训、考核/CH32V103_Library-master/Seekfree_CH32V103R8T6_Opensource_Library/Project/USER/isr.c:300
    {
        DMA_ClearFlag(DMA1_FLAG_TC4);
    54d2:	6509                	lui	a0,0x2
    54d4:	a50fb0ef          	jal	ra,724 <DMA_ClearFlag>
E:/桌面/19th智能车/单片机培训、考核/CH32V103_Library-master/Seekfree_CH32V103R8T6_Opensource_Library/Project/USER/isr.c:301
        if(camera_type == CAMERA_BIN_UART)
    54d8:	8401a703          	lw	a4,-1984(gp) # 200000b0 <camera_type>
    54dc:	478d                	li	a5,3
    54de:	00f71563          	bne	a4,a5,54e8 <DMA1_Channel4_IRQHandler+0x2a>
E:/桌面/19th智能车/单片机培训、考核/CH32V103_Library-master/Seekfree_CH32V103R8T6_Opensource_Library/Project/USER/isr.c:303
        {
            ov7725_uart_dma();
    54e2:	e66fd0ef          	jal	ra,2b48 <ov7725_uart_dma>
E:/桌面/19th智能车/单片机培训、考核/CH32V103_Library-master/Seekfree_CH32V103R8T6_Opensource_Library/Project/USER/isr.c:310
        else if(camera_type == CAMERA_GRAYSCALE)
        {
            mt9v03x_dma();
        }
    }
}
    54e6:	a801                	j	54f6 <DMA1_Channel4_IRQHandler+0x38>
E:/桌面/19th智能车/单片机培训、考核/CH32V103_Library-master/Seekfree_CH32V103R8T6_Opensource_Library/Project/USER/isr.c:305
        else if(camera_type == CAMERA_GRAYSCALE)
    54e8:	8401a703          	lw	a4,-1984(gp) # 200000b0 <camera_type>
    54ec:	4789                	li	a5,2
    54ee:	00f71463          	bne	a4,a5,54f6 <DMA1_Channel4_IRQHandler+0x38>
E:/桌面/19th智能车/单片机培训、考核/CH32V103_Library-master/Seekfree_CH32V103R8T6_Opensource_Library/Project/USER/isr.c:307
            mt9v03x_dma();
    54f2:	d34fd0ef          	jal	ra,2a26 <mt9v03x_dma>
E:/桌面/19th智能车/单片机培训、考核/CH32V103_Library-master/Seekfree_CH32V103R8T6_Opensource_Library/Project/USER/isr.c:310
}
    54f6:	0001                	nop
    54f8:	4432                	lw	s0,12(sp)
    54fa:	0141                	addi	sp,sp,16
    54fc:	30200073          	mret

00005500 <NMI_Handler>:
NMI_Handler():
E:/桌面/19th智能车/单片机培训、考核/CH32V103_Library-master/Seekfree_CH32V103R8T6_Opensource_Library/Project/USER/isr.c:319
* Description    : This function handles NMI exception.
* Input          : None
* Return         : None
*******************************************************************************/
void NMI_Handler(void)
{
    5500:	1141                	addi	sp,sp,-16
    5502:	c622                	sw	s0,12(sp)
    5504:	0800                	addi	s0,sp,16
E:/桌面/19th智能车/单片机培训、考核/CH32V103_Library-master/Seekfree_CH32V103R8T6_Opensource_Library/Project/USER/isr.c:321

}
    5506:	0001                	nop
    5508:	4432                	lw	s0,12(sp)
    550a:	0141                	addi	sp,sp,16
    550c:	30200073          	mret

00005510 <HardFault_Handler>:
HardFault_Handler():
E:/桌面/19th智能车/单片机培训、考核/CH32V103_Library-master/Seekfree_CH32V103R8T6_Opensource_Library/Project/USER/isr.c:330
* Description    : This function handles Hard Fault exception.
* Input          : None
* Return         : None
*******************************************************************************/
void HardFault_Handler(void)
{
    5510:	1141                	addi	sp,sp,-16
    5512:	c622                	sw	s0,12(sp)
    5514:	0800                	addi	s0,sp,16
E:/桌面/19th智能车/单片机培训、考核/CH32V103_Library-master/Seekfree_CH32V103R8T6_Opensource_Library/Project/USER/isr.c:332 (discriminator 1)

  while (1)
    5516:	a001                	j	5516 <HardFault_Handler+0x6>

00005518 <main>:
main():
E:/桌面/19th智能车/单片机培训、考核/CH32V103_Library-master/Seekfree_CH32V103R8T6_Opensource_Library/Project/USER/main.c:31

int enc=0;
int adc=0;

int main(void)
{
    5518:	1141                	addi	sp,sp,-16
    551a:	c606                	sw	ra,12(sp)
    551c:	c422                	sw	s0,8(sp)
    551e:	c24a                	sw	s2,4(sp)
    5520:	c04e                	sw	s3,0(sp)
    5522:	0800                	addi	s0,sp,16
E:/桌面/19th智能车/单片机培训、考核/CH32V103_Library-master/Seekfree_CH32V103R8T6_Opensource_Library/Project/USER/main.c:32
    DisableGlobalIRQ();
    5524:	e7ffd0ef          	jal	ra,33a2 <DisableGlobalIRQ>
E:/桌面/19th智能车/单片机培训、考核/CH32V103_Library-master/Seekfree_CH32V103R8T6_Opensource_Library/Project/USER/main.c:33
    board_init();   //务必保留，本函数用于初始化MPU 时钟 调试串口
    5528:	e9cfd0ef          	jal	ra,2bc4 <board_init>
E:/桌面/19th智能车/单片机培训、考核/CH32V103_Library-master/Seekfree_CH32V103R8T6_Opensource_Library/Project/USER/main.c:34
    ips_init();
    552c:	2279                	jal	56ba <ips_init>
E:/桌面/19th智能车/单片机培训、考核/CH32V103_Library-master/Seekfree_CH32V103R8T6_Opensource_Library/Project/USER/main.c:35
    ADC_init(ADC_IN6_A6);
    552e:	4519                	li	a0,6
    5530:	2a2d                	jal	566a <ADC_init>
E:/桌面/19th智能车/单片机培训、考核/CH32V103_Library-master/Seekfree_CH32V103R8T6_Opensource_Library/Project/USER/main.c:37

    key_init(C0);
    5532:	04000513          	li	a0,64
    5536:	2c0d                	jal	5768 <key_init>
E:/桌面/19th智能车/单片机培训、考核/CH32V103_Library-master/Seekfree_CH32V103R8T6_Opensource_Library/Project/USER/main.c:41
//    gpio_init(C0, GPI, 1, GPIO_PIN_CONFIG);

//    motor_enable_init_made();
    motor_enable_init(C9, A8, A11, C10, C12);
    5538:	04c00713          	li	a4,76
    553c:	04a00693          	li	a3,74
    5540:	462d                	li	a2,11
    5542:	45a1                	li	a1,8
    5544:	04900513          	li	a0,73
    5548:	261d                	jal	586e <motor_enable_init>
E:/桌面/19th智能车/单片机培训、考核/CH32V103_Library-master/Seekfree_CH32V103R8T6_Opensource_Library/Project/USER/main.c:44

//    PWM_init_made();
    PWM_init(PWM3_CH1_C6, PWM3_CH2_C7, 5000, 0);
    554a:	4681                	li	a3,0
    554c:	6785                	lui	a5,0x1
    554e:	38878613          	addi	a2,a5,904 # 1388 <TIM_OC2Init+0x3c>
    5552:	21100593          	li	a1,529
    5556:	21000513          	li	a0,528
    555a:	2669                	jal	58e4 <PWM_init>
E:/桌面/19th智能车/单片机培训、考核/CH32V103_Library-master/Seekfree_CH32V103R8T6_Opensource_Library/Project/USER/main.c:46

    encoder_init(TIMER_2, TIMER2_CHA_A0, TIMER2_CHB_A1);
    555c:	460d                	li	a2,3
    555e:	4589                	li	a1,2
    5560:	4505                	li	a0,1
    5562:	2931                	jal	597e <encoder_init>
E:/桌面/19th智能车/单片机培训、考核/CH32V103_Library-master/Seekfree_CH32V103R8T6_Opensource_Library/Project/USER/main.c:47
    gpio_init(C0, GPI, 1, GPIO_PIN_CONFIG);
    5564:	31000693          	li	a3,784
    5568:	4605                	li	a2,1
    556a:	4581                	li	a1,0
    556c:	04000513          	li	a0,64
    5570:	bbbfd0ef          	jal	ra,312a <gpio_init>
E:/桌面/19th智能车/单片机培训、考核/CH32V103_Library-master/Seekfree_CH32V103R8T6_Opensource_Library/Project/USER/main.c:48
    EnableGlobalIRQ(0);
    5574:	4501                	li	a0,0
    5576:	e45fd0ef          	jal	ra,33ba <EnableGlobalIRQ>
E:/桌面/19th智能车/单片机培训、考核/CH32V103_Library-master/Seekfree_CH32V103R8T6_Opensource_Library/Project/USER/main.c:50

    key_start(C0);
    557a:	04000513          	li	a0,64
    557e:	2c2d                	jal	57b8 <key_start>
E:/桌面/19th智能车/单片机培训、考核/CH32V103_Library-master/Seekfree_CH32V103R8T6_Opensource_Library/Project/USER/main.c:57 (discriminator 1)

    while(1)
    {
//        set_PWM_motor_made(1800 ,0);

        set_PWM_motor(A8 , A11, PWM3_CH1_C6, 2000, 1);
    5580:	4705                	li	a4,1
    5582:	7d000693          	li	a3,2000
    5586:	21000613          	li	a2,528
    558a:	45ad                	li	a1,11
    558c:	4521                	li	a0,8
    558e:	2e61                	jal	5926 <set_PWM_motor>
E:/桌面/19th智能车/单片机培训、考核/CH32V103_Library-master/Seekfree_CH32V103R8T6_Opensource_Library/Project/USER/main.c:58 (discriminator 1)
        set_PWM_motor(C10, C12, PWM3_CH2_C7, 2000, 1);
    5590:	4705                	li	a4,1
    5592:	7d000693          	li	a3,2000
    5596:	21100613          	li	a2,529
    559a:	04c00593          	li	a1,76
    559e:	04a00513          	li	a0,74
    55a2:	2651                	jal	5926 <set_PWM_motor>
E:/桌面/19th智能车/单片机培训、考核/CH32V103_Library-master/Seekfree_CH32V103R8T6_Opensource_Library/Project/USER/main.c:62 (discriminator 1)

//        x = timer_quad_get(TIMER_2);        //编码器取值
//        timer_quad_clear(TIMER_2);          //清空定时器的计数器值
        enc=encoder_get(TIMER_2);
    55a4:	4505                	li	a0,1
    55a6:	2119                	jal	59ac <encoder_get>
    55a8:	872a                	mv	a4,a0
    55aa:	84e1ac23          	sw	a4,-1960(gp) # 200000c8 <enc>
E:/桌面/19th智能车/单片机培训、考核/CH32V103_Library-master/Seekfree_CH32V103R8T6_Opensource_Library/Project/USER/main.c:64 (discriminator 1)

        adc=ADC_get(ADC_IN6_A6, ADC_12BIT);
    55ae:	4581                	li	a1,0
    55b0:	4519                	li	a0,6
    55b2:	28d9                	jal	5688 <ADC_get>
    55b4:	872a                	mv	a4,a0
    55b6:	84e1ae23          	sw	a4,-1956(gp) # 200000cc <adc>
E:/桌面/19th智能车/单片机培训、考核/CH32V103_Library-master/Seekfree_CH32V103R8T6_Opensource_Library/Project/USER/main.c:66 (discriminator 1)

        ips_show_string(5,4 ,"ADC:");
    55ba:	679d                	lui	a5,0x7
    55bc:	43078613          	addi	a2,a5,1072 # 7430 <_exit+0x1dc>
    55c0:	4591                	li	a1,4
    55c2:	4515                	li	a0,5
    55c4:	22a9                	jal	570e <ips_show_string>
E:/桌面/19th智能车/单片机培训、考核/CH32V103_Library-master/Seekfree_CH32V103R8T6_Opensource_Library/Project/USER/main.c:67 (discriminator 1)
        ips_show_date(40,4,adc);
    55c6:	85c1a783          	lw	a5,-1956(gp) # 200000cc <adc>
    55ca:	07c2                	slli	a5,a5,0x10
    55cc:	87c1                	srai	a5,a5,0x10
    55ce:	863e                	mv	a2,a5
    55d0:	4591                	li	a1,4
    55d2:	02800513          	li	a0,40
    55d6:	28ed                	jal	56d0 <ips_show_date>
E:/桌面/19th智能车/单片机培训、考核/CH32V103_Library-master/Seekfree_CH32V103R8T6_Opensource_Library/Project/USER/main.c:69 (discriminator 1)

        ips_show_date(40,6,key_get(C0));
    55d8:	04000513          	li	a0,64
    55dc:	2a4d                	jal	578e <key_get>
    55de:	87aa                	mv	a5,a0
    55e0:	07c2                	slli	a5,a5,0x10
    55e2:	87c1                	srai	a5,a5,0x10
    55e4:	863e                	mv	a2,a5
    55e6:	4599                	li	a1,6
    55e8:	02800513          	li	a0,40
    55ec:	20d5                	jal	56d0 <ips_show_date>
E:/桌面/19th智能车/单片机培训、考核/CH32V103_Library-master/Seekfree_CH32V103R8T6_Opensource_Library/Project/USER/main.c:71 (discriminator 1)

        uart_show_string(UART_1,"ADC:");
    55ee:	679d                	lui	a5,0x7
    55f0:	43078593          	addi	a1,a5,1072 # 7430 <_exit+0x1dc>
    55f4:	4501                	li	a0,0
    55f6:	2991                	jal	5a4a <uart_show_string>
E:/桌面/19th智能车/单片机培训、考核/CH32V103_Library-master/Seekfree_CH32V103R8T6_Opensource_Library/Project/USER/main.c:72 (discriminator 1)
        uart_show_date(UART_1,adc);
    55f8:	85c1a783          	lw	a5,-1956(gp) # 200000cc <adc>
    55fc:	85be                	mv	a1,a5
    55fe:	4501                	li	a0,0
    5600:	2ef9                	jal	59de <uart_show_date>
E:/桌面/19th智能车/单片机培训、考核/CH32V103_Library-master/Seekfree_CH32V103R8T6_Opensource_Library/Project/USER/main.c:75 (discriminator 1)


        ips_show_string(5,2 ,"ENC:");
    5602:	679d                	lui	a5,0x7
    5604:	43878613          	addi	a2,a5,1080 # 7438 <_exit+0x1e4>
    5608:	4589                	li	a1,2
    560a:	4515                	li	a0,5
    560c:	2209                	jal	570e <ips_show_string>
E:/桌面/19th智能车/单片机培训、考核/CH32V103_Library-master/Seekfree_CH32V103R8T6_Opensource_Library/Project/USER/main.c:76 (discriminator 1)
        ips_show_date(40,2,enc);
    560e:	8581a783          	lw	a5,-1960(gp) # 200000c8 <enc>
    5612:	07c2                	slli	a5,a5,0x10
    5614:	87c1                	srai	a5,a5,0x10
    5616:	863e                	mv	a2,a5
    5618:	4589                	li	a1,2
    561a:	02800513          	li	a0,40
    561e:	284d                	jal	56d0 <ips_show_date>
E:/桌面/19th智能车/单片机培训、考核/CH32V103_Library-master/Seekfree_CH32V103R8T6_Opensource_Library/Project/USER/main.c:78 (discriminator 1)

        uart_show_string(UART_1," ENC:");
    5620:	679d                	lui	a5,0x7
    5622:	44078593          	addi	a1,a5,1088 # 7440 <_exit+0x1ec>
    5626:	4501                	li	a0,0
    5628:	210d                	jal	5a4a <uart_show_string>
E:/桌面/19th智能车/单片机培训、考核/CH32V103_Library-master/Seekfree_CH32V103R8T6_Opensource_Library/Project/USER/main.c:79 (discriminator 1)
        uart_show_date(UART_1,enc);
    562a:	8581a783          	lw	a5,-1960(gp) # 200000c8 <enc>
    562e:	85be                	mv	a1,a5
    5630:	4501                	li	a0,0
    5632:	2675                	jal	59de <uart_show_date>
E:/桌面/19th智能车/单片机培训、考核/CH32V103_Library-master/Seekfree_CH32V103R8T6_Opensource_Library/Project/USER/main.c:81 (discriminator 1)

        uart_show_string(UART_1," PWM:");
    5634:	679d                	lui	a5,0x7
    5636:	44878593          	addi	a1,a5,1096 # 7448 <_exit+0x1f4>
    563a:	4501                	li	a0,0
    563c:	2139                	jal	5a4a <uart_show_string>
E:/桌面/19th智能车/单片机培训、考核/CH32V103_Library-master/Seekfree_CH32V103R8T6_Opensource_Library/Project/USER/main.c:82 (discriminator 1)
        uart_show_date(UART_1,2000);
    563e:	7d000593          	li	a1,2000
    5642:	4501                	li	a0,0
    5644:	2e69                	jal	59de <uart_show_date>
E:/桌面/19th智能车/单片机培训、考核/CH32V103_Library-master/Seekfree_CH32V103R8T6_Opensource_Library/Project/USER/main.c:85 (discriminator 1)


        systick_delay_ms(500);
    5646:	8481a703          	lw	a4,-1976(gp) # 200000b8 <sys_clk>
    564a:	6789                	lui	a5,0x2
    564c:	f4078793          	addi	a5,a5,-192 # 1f40 <USART_Cmd+0x16>
    5650:	02f75733          	divu	a4,a4,a5
    5654:	1f400793          	li	a5,500
    5658:	02f707b3          	mul	a5,a4,a5
    565c:	893e                	mv	s2,a5
    565e:	4981                	li	s3,0
    5660:	854a                	mv	a0,s2
    5662:	85ce                	mv	a1,s3
    5664:	91ffe0ef          	jal	ra,3f82 <systick_delay>
E:/桌面/19th智能车/单片机培训、考核/CH32V103_Library-master/Seekfree_CH32V103R8T6_Opensource_Library/Project/USER/main.c:57 (discriminator 1)
        set_PWM_motor(A8 , A11, PWM3_CH1_C6, 2000, 1);
    5668:	bf21                	j	5580 <main+0x68>

0000566a <ADC_init>:
ADC_init():
E:/桌面/19th智能车/单片机培训、考核/CH32V103_Library-master/Seekfree_CH32V103R8T6_Opensource_Library/Project/CODE/ADC_measure.c:18
//  @param      ch              选择ADC通道
//  @return     void
//  Sample usage:               adc_init(ADC_IN0_A0);//初始化A0引脚为ADC功能
//-------------------------------------------------------------------------------------------------------------------
void ADC_init(ADCCH_enum ch)
{
    566a:	1101                	addi	sp,sp,-32
    566c:	ce06                	sw	ra,28(sp)
    566e:	cc22                	sw	s0,24(sp)
    5670:	1000                	addi	s0,sp,32
    5672:	fea42623          	sw	a0,-20(s0)
E:/桌面/19th智能车/单片机培训、考核/CH32V103_Library-master/Seekfree_CH32V103R8T6_Opensource_Library/Project/CODE/ADC_measure.c:19
    adc_init(ch);
    5676:	fec42503          	lw	a0,-20(s0)
    567a:	973fd0ef          	jal	ra,2fec <adc_init>
E:/桌面/19th智能车/单片机培训、考核/CH32V103_Library-master/Seekfree_CH32V103R8T6_Opensource_Library/Project/CODE/ADC_measure.c:20
}
    567e:	0001                	nop
    5680:	40f2                	lw	ra,28(sp)
    5682:	4462                	lw	s0,24(sp)
    5684:	6105                	addi	sp,sp,32
    5686:	8082                	ret

00005688 <ADC_get>:
ADC_get():
E:/桌面/19th智能车/单片机培训、考核/CH32V103_Library-master/Seekfree_CH32V103R8T6_Opensource_Library/Project/CODE/ADC_measure.c:33
//  @param      resolution      分辨率(8位 10位 12位)
//  @return     void
//  Sample usage:               ADC_get(ADC_IN0_A0, ADC_8BIT);  //采集A0端口返回8位分辨率的AD值
//-------------------------------------------------------------------------------------------------------------------
int ADC_get(ADCCH_enum ch, ADCRES_enum resolution)
{
    5688:	1101                	addi	sp,sp,-32
    568a:	ce06                	sw	ra,28(sp)
    568c:	cc22                	sw	s0,24(sp)
    568e:	1000                	addi	s0,sp,32
    5690:	fea42623          	sw	a0,-20(s0)
    5694:	feb42423          	sw	a1,-24(s0)
E:/桌面/19th智能车/单片机培训、考核/CH32V103_Library-master/Seekfree_CH32V103R8T6_Opensource_Library/Project/CODE/ADC_measure.c:34
    ADC_date = adc_convert(ch ,resolution);
    5698:	fe842583          	lw	a1,-24(s0)
    569c:	fec42503          	lw	a0,-20(s0)
    56a0:	a17fd0ef          	jal	ra,30b6 <adc_convert>
    56a4:	87aa                	mv	a5,a0
    56a6:	873e                	mv	a4,a5
    56a8:	86e1a023          	sw	a4,-1952(gp) # 200000d0 <ADC_date>
E:/桌面/19th智能车/单片机培训、考核/CH32V103_Library-master/Seekfree_CH32V103R8T6_Opensource_Library/Project/CODE/ADC_measure.c:35
    return ADC_date;
    56ac:	8601a783          	lw	a5,-1952(gp) # 200000d0 <ADC_date>
E:/桌面/19th智能车/单片机培训、考核/CH32V103_Library-master/Seekfree_CH32V103R8T6_Opensource_Library/Project/CODE/ADC_measure.c:36
}
    56b0:	853e                	mv	a0,a5
    56b2:	40f2                	lw	ra,28(sp)
    56b4:	4462                	lw	s0,24(sp)
    56b6:	6105                	addi	sp,sp,32
    56b8:	8082                	ret

000056ba <ips_init>:
ips_init():
E:/桌面/19th智能车/单片机培训、考核/CH32V103_Library-master/Seekfree_CH32V103R8T6_Opensource_Library/Project/CODE/ips_show.c:19
//  @return     void
//  @since      v1.0
//  Sample usage:               ips_init();//初始化ips屏幕
//-------------------------------------------------------------------------------------------------------------------
void ips_init()
{
    56ba:	1141                	addi	sp,sp,-16
    56bc:	c606                	sw	ra,12(sp)
    56be:	c422                	sw	s0,8(sp)
    56c0:	0800                	addi	s0,sp,16
E:/桌面/19th智能车/单片机培训、考核/CH32V103_Library-master/Seekfree_CH32V103R8T6_Opensource_Library/Project/CODE/ips_show.c:20
    ips114_init();
    56c2:	c81fc0ef          	jal	ra,2342 <ips114_init>
E:/桌面/19th智能车/单片机培训、考核/CH32V103_Library-master/Seekfree_CH32V103R8T6_Opensource_Library/Project/CODE/ips_show.c:21
}
    56c6:	0001                	nop
    56c8:	40b2                	lw	ra,12(sp)
    56ca:	4422                	lw	s0,8(sp)
    56cc:	0141                	addi	sp,sp,16
    56ce:	8082                	ret

000056d0 <ips_show_date>:
ips_show_date():
E:/桌面/19th智能车/单片机培训、考核/CH32V103_Library-master/Seekfree_CH32V103R8T6_Opensource_Library/Project/CODE/ips_show.c:33
//  @return     void
//  @since      v1.0
//  Sample usage:               ips_show_date(0,1,x);//在第1行第0列显示一个x，x为int16类型
//-------------------------------------------------------------------------------------------------------------------
void ips_show_date(uint16 x,uint16 y,int16 dat)
{
    56d0:	1101                	addi	sp,sp,-32
    56d2:	ce06                	sw	ra,28(sp)
    56d4:	cc22                	sw	s0,24(sp)
    56d6:	1000                	addi	s0,sp,32
    56d8:	87aa                	mv	a5,a0
    56da:	86ae                	mv	a3,a1
    56dc:	8732                	mv	a4,a2
    56de:	fef41723          	sh	a5,-18(s0)
    56e2:	87b6                	mv	a5,a3
    56e4:	fef41623          	sh	a5,-20(s0)
    56e8:	87ba                	mv	a5,a4
    56ea:	fef41523          	sh	a5,-22(s0)
E:/桌面/19th智能车/单片机培训、考核/CH32V103_Library-master/Seekfree_CH32V103R8T6_Opensource_Library/Project/CODE/ips_show.c:34
    ips114_showint16(x,y,dat);
    56ee:	fea41683          	lh	a3,-22(s0)
    56f2:	fec45703          	lhu	a4,-20(s0)
    56f6:	fee45783          	lhu	a5,-18(s0)
    56fa:	8636                	mv	a2,a3
    56fc:	85ba                	mv	a1,a4
    56fe:	853e                	mv	a0,a5
    5700:	8e4fd0ef          	jal	ra,27e4 <ips114_showint16>
E:/桌面/19th智能车/单片机培训、考核/CH32V103_Library-master/Seekfree_CH32V103R8T6_Opensource_Library/Project/CODE/ips_show.c:35
}
    5704:	0001                	nop
    5706:	40f2                	lw	ra,28(sp)
    5708:	4462                	lw	s0,24(sp)
    570a:	6105                	addi	sp,sp,32
    570c:	8082                	ret

0000570e <ips_show_string>:
ips_show_string():
E:/桌面/19th智能车/单片机培训、考核/CH32V103_Library-master/Seekfree_CH32V103R8T6_Opensource_Library/Project/CODE/ips_show.c:47
//  @return     void
//  @since      v1.0
//  Sample usage:               ips_show_string(2,3,"NEUQ SMART CAR");//从第3行第2列开始显示字符串“NEUQ SMART CAR”
//-------------------------------------------------------------------------------------------------------------------
void ips_show_string(uint16 x,uint16 y,const int8 dat[])
{
    570e:	1101                	addi	sp,sp,-32
    5710:	ce06                	sw	ra,28(sp)
    5712:	cc22                	sw	s0,24(sp)
    5714:	1000                	addi	s0,sp,32
    5716:	87aa                	mv	a5,a0
    5718:	872e                	mv	a4,a1
    571a:	fec42423          	sw	a2,-24(s0)
    571e:	fef41723          	sh	a5,-18(s0)
    5722:	87ba                	mv	a5,a4
    5724:	fef41623          	sh	a5,-20(s0)
E:/桌面/19th智能车/单片机培训、考核/CH32V103_Library-master/Seekfree_CH32V103R8T6_Opensource_Library/Project/CODE/ips_show.c:48
    ips114_showstr(x,y ,dat);
    5728:	fec45703          	lhu	a4,-20(s0)
    572c:	fee45783          	lhu	a5,-18(s0)
    5730:	fe842603          	lw	a2,-24(s0)
    5734:	85ba                	mv	a1,a4
    5736:	853e                	mv	a0,a5
    5738:	830fd0ef          	jal	ra,2768 <ips114_showstr>
E:/桌面/19th智能车/单片机培训、考核/CH32V103_Library-master/Seekfree_CH32V103R8T6_Opensource_Library/Project/CODE/ips_show.c:49
}
    573c:	0001                	nop
    573e:	40f2                	lw	ra,28(sp)
    5740:	4462                	lw	s0,24(sp)
    5742:	6105                	addi	sp,sp,32
    5744:	8082                	ret

00005746 <ips_show_clear>:
ips_show_clear():
E:/桌面/19th智能车/单片机培训、考核/CH32V103_Library-master/Seekfree_CH32V103R8T6_Opensource_Library/Project/CODE/ips_show.c:71
//  @return     void
//  @since      v1.0
//  Sample usage:               ips_show_clear(YELLOW);// 全屏设置为黄色背景    ips_show_clear();// 默认将全屏设置为白色背景
//-------------------------------------------------------------------------------------------------------------------
void ips_show_clear(uint16 color)
{
    5746:	1101                	addi	sp,sp,-32
    5748:	ce06                	sw	ra,28(sp)
    574a:	cc22                	sw	s0,24(sp)
    574c:	1000                	addi	s0,sp,32
    574e:	87aa                	mv	a5,a0
    5750:	fef41723          	sh	a5,-18(s0)
E:/桌面/19th智能车/单片机培训、考核/CH32V103_Library-master/Seekfree_CH32V103R8T6_Opensource_Library/Project/CODE/ips_show.c:72
    ips114_clear(color);
    5754:	fee45783          	lhu	a5,-18(s0)
    5758:	853e                	mv	a0,a5
    575a:	ec7fc0ef          	jal	ra,2620 <ips114_clear>
E:/桌面/19th智能车/单片机培训、考核/CH32V103_Library-master/Seekfree_CH32V103R8T6_Opensource_Library/Project/CODE/ips_show.c:73
}
    575e:	0001                	nop
    5760:	40f2                	lw	ra,28(sp)
    5762:	4462                	lw	s0,24(sp)
    5764:	6105                	addi	sp,sp,32
    5766:	8082                	ret

00005768 <key_init>:
key_init():
E:/桌面/19th智能车/单片机培训、考核/CH32V103_Library-master/Seekfree_CH32V103R8T6_Opensource_Library/Project/CODE/key_make.c:18
//  @param      pin         选择的引脚 (可选择范围由 common.h 内PIN_enum枚举值确定)
//  @return     void
//  Sample usage:           key_init(C0);//C0初始化为GPIO功能、输入模式、输入低电平、推挽输入，即初始化为按键引脚
//-------------------------------------------------------------------------------------------------------------------
void key_init(PIN_enum pin)
{
    5768:	1101                	addi	sp,sp,-32
    576a:	ce06                	sw	ra,28(sp)
    576c:	cc22                	sw	s0,24(sp)
    576e:	1000                	addi	s0,sp,32
    5770:	fea42623          	sw	a0,-20(s0)
E:/桌面/19th智能车/单片机培训、考核/CH32V103_Library-master/Seekfree_CH32V103R8T6_Opensource_Library/Project/CODE/key_make.c:19
    gpio_init(pin, GPI, 0, GPIO_PIN_CONFIG);  //作为按键初始化则引脚方向为GPI输入
    5774:	31000693          	li	a3,784
    5778:	4601                	li	a2,0
    577a:	4581                	li	a1,0
    577c:	fec42503          	lw	a0,-20(s0)
    5780:	9abfd0ef          	jal	ra,312a <gpio_init>
E:/桌面/19th智能车/单片机培训、考核/CH32V103_Library-master/Seekfree_CH32V103R8T6_Opensource_Library/Project/CODE/key_make.c:20
}
    5784:	0001                	nop
    5786:	40f2                	lw	ra,28(sp)
    5788:	4462                	lw	s0,24(sp)
    578a:	6105                	addi	sp,sp,32
    578c:	8082                	ret

0000578e <key_get>:
key_get():
E:/桌面/19th智能车/单片机培训、考核/CH32V103_Library-master/Seekfree_CH32V103R8T6_Opensource_Library/Project/CODE/key_make.c:31
//  @param      pin         选择的引脚 (可选择范围由 common.h 内PIN_enum枚举值确定)
//  @return     uint8       0：低电平 1：高电平
//  Sample usage:           uint8 key_01 = gpio_get(C0);//获取C0引脚电平
//-------------------------------------------------------------------------------------------------------------------
uint8 key_get(PIN_enum pin)
{
    578e:	1101                	addi	sp,sp,-32
    5790:	ce06                	sw	ra,28(sp)
    5792:	cc22                	sw	s0,24(sp)
    5794:	1000                	addi	s0,sp,32
    5796:	fea42623          	sw	a0,-20(s0)
E:/桌面/19th智能车/单片机培训、考核/CH32V103_Library-master/Seekfree_CH32V103R8T6_Opensource_Library/Project/CODE/key_make.c:32
    key_01=gpio_get(pin);
    579a:	fec42503          	lw	a0,-20(s0)
    579e:	baffd0ef          	jal	ra,334c <gpio_get>
    57a2:	87aa                	mv	a5,a0
    57a4:	873e                	mv	a4,a5
    57a6:	86e18223          	sb	a4,-1948(gp) # 200000d4 <key_01>
E:/桌面/19th智能车/单片机培训、考核/CH32V103_Library-master/Seekfree_CH32V103R8T6_Opensource_Library/Project/CODE/key_make.c:33
    return key_01;
    57aa:	8641c783          	lbu	a5,-1948(gp) # 200000d4 <key_01>
E:/桌面/19th智能车/单片机培训、考核/CH32V103_Library-master/Seekfree_CH32V103R8T6_Opensource_Library/Project/CODE/key_make.c:34
}
    57ae:	853e                	mv	a0,a5
    57b0:	40f2                	lw	ra,28(sp)
    57b2:	4462                	lw	s0,24(sp)
    57b4:	6105                	addi	sp,sp,32
    57b6:	8082                	ret

000057b8 <key_start>:
key_start():
E:/桌面/19th智能车/单片机培训、考核/CH32V103_Library-master/Seekfree_CH32V103R8T6_Opensource_Library/Project/CODE/key_make.c:45
//  @param      pin         选择的引脚 (可选择范围由 common.h 内PIN_enum枚举值确定)
//  @return     void
//  Sample usage:               key_start(C0);//设置C0口作为程序启动按键
//-------------------------------------------------------------------------------------------------------------------
void key_start(PIN_enum pin)
{
    57b8:	7179                	addi	sp,sp,-48
    57ba:	d606                	sw	ra,44(sp)
    57bc:	d422                	sw	s0,40(sp)
    57be:	d24a                	sw	s2,36(sp)
    57c0:	d04e                	sw	s3,32(sp)
    57c2:	ce52                	sw	s4,28(sp)
    57c4:	cc56                	sw	s5,24(sp)
    57c6:	1800                	addi	s0,sp,48
    57c8:	fca42e23          	sw	a0,-36(s0)
E:/桌面/19th智能车/单片机培训、考核/CH32V103_Library-master/Seekfree_CH32V103R8T6_Opensource_Library/Project/CODE/key_make.c:46
    while(!key_able)
    57cc:	a069                	j	5856 <key_start+0x9e>
E:/桌面/19th智能车/单片机培训、考核/CH32V103_Library-master/Seekfree_CH32V103R8T6_Opensource_Library/Project/CODE/key_make.c:48
    {
        ips_show_string(5,0 ,"Please press the key.");
    57ce:	679d                	lui	a5,0x7
    57d0:	45078613          	addi	a2,a5,1104 # 7450 <_exit+0x1fc>
    57d4:	4581                	li	a1,0
    57d6:	4515                	li	a0,5
    57d8:	f37ff0ef          	jal	ra,570e <ips_show_string>
E:/桌面/19th智能车/单片机培训、考核/CH32V103_Library-master/Seekfree_CH32V103R8T6_Opensource_Library/Project/CODE/key_make.c:49
        if(key_get(pin))
    57dc:	fdc42503          	lw	a0,-36(s0)
    57e0:	fafff0ef          	jal	ra,578e <key_get>
    57e4:	87aa                	mv	a5,a0
    57e6:	cba5                	beqz	a5,5856 <key_start+0x9e>
E:/桌面/19th智能车/单片机培训、考核/CH32V103_Library-master/Seekfree_CH32V103R8T6_Opensource_Library/Project/CODE/key_make.c:51
        {
            systick_delay_ms(200);
    57e8:	8481a703          	lw	a4,-1976(gp) # 200000b8 <sys_clk>
    57ec:	6789                	lui	a5,0x2
    57ee:	f4078793          	addi	a5,a5,-192 # 1f40 <USART_Cmd+0x16>
    57f2:	02f75733          	divu	a4,a4,a5
    57f6:	0c800793          	li	a5,200
    57fa:	02f707b3          	mul	a5,a4,a5
    57fe:	893e                	mv	s2,a5
    5800:	4981                	li	s3,0
    5802:	854a                	mv	a0,s2
    5804:	85ce                	mv	a1,s3
    5806:	f7cfe0ef          	jal	ra,3f82 <systick_delay>
E:/桌面/19th智能车/单片机培训、考核/CH32V103_Library-master/Seekfree_CH32V103R8T6_Opensource_Library/Project/CODE/key_make.c:52
          if(key_get(pin))
    580a:	fdc42503          	lw	a0,-36(s0)
    580e:	f81ff0ef          	jal	ra,578e <key_get>
    5812:	87aa                	mv	a5,a0
    5814:	c3a9                	beqz	a5,5856 <key_start+0x9e>
E:/桌面/19th智能车/单片机培训、考核/CH32V103_Library-master/Seekfree_CH32V103R8T6_Opensource_Library/Project/CODE/key_make.c:54
          {
                key_able=1;
    5816:	4705                	li	a4,1
    5818:	86e182a3          	sb	a4,-1947(gp) # 200000d5 <key_able>
E:/桌面/19th智能车/单片机培训、考核/CH32V103_Library-master/Seekfree_CH32V103R8T6_Opensource_Library/Project/CODE/key_make.c:55
                ips_show_clear(WHITE);
    581c:	67c1                	lui	a5,0x10
    581e:	fff78513          	addi	a0,a5,-1 # ffff <_data_lma+0x82ff>
    5822:	f25ff0ef          	jal	ra,5746 <ips_show_clear>
E:/桌面/19th智能车/单片机培训、考核/CH32V103_Library-master/Seekfree_CH32V103R8T6_Opensource_Library/Project/CODE/key_make.c:56
                ips_show_string(5,1 ,"key pressed.");
    5826:	679d                	lui	a5,0x7
    5828:	46878613          	addi	a2,a5,1128 # 7468 <_exit+0x214>
    582c:	4585                	li	a1,1
    582e:	4515                	li	a0,5
    5830:	edfff0ef          	jal	ra,570e <ips_show_string>
E:/桌面/19th智能车/单片机培训、考核/CH32V103_Library-master/Seekfree_CH32V103R8T6_Opensource_Library/Project/CODE/key_make.c:57
                systick_delay_ms(1000);
    5834:	8481a703          	lw	a4,-1976(gp) # 200000b8 <sys_clk>
    5838:	6789                	lui	a5,0x2
    583a:	f4078793          	addi	a5,a5,-192 # 1f40 <USART_Cmd+0x16>
    583e:	02f75733          	divu	a4,a4,a5
    5842:	3e800793          	li	a5,1000
    5846:	02f707b3          	mul	a5,a4,a5
    584a:	8a3e                	mv	s4,a5
    584c:	4a81                	li	s5,0
    584e:	8552                	mv	a0,s4
    5850:	85d6                	mv	a1,s5
    5852:	f30fe0ef          	jal	ra,3f82 <systick_delay>
E:/桌面/19th智能车/单片机培训、考核/CH32V103_Library-master/Seekfree_CH32V103R8T6_Opensource_Library/Project/CODE/key_make.c:46
    while(!key_able)
    5856:	86518783          	lb	a5,-1947(gp) # 200000d5 <key_able>
    585a:	dbb5                	beqz	a5,57ce <key_start+0x16>
E:/桌面/19th智能车/单片机培训、考核/CH32V103_Library-master/Seekfree_CH32V103R8T6_Opensource_Library/Project/CODE/key_make.c:62
          }
       }
    }

}
    585c:	0001                	nop
    585e:	50b2                	lw	ra,44(sp)
    5860:	5422                	lw	s0,40(sp)
    5862:	5912                	lw	s2,36(sp)
    5864:	5982                	lw	s3,32(sp)
    5866:	4a72                	lw	s4,28(sp)
    5868:	4ae2                	lw	s5,24(sp)
    586a:	6145                	addi	sp,sp,48
    586c:	8082                	ret

0000586e <motor_enable_init>:
motor_enable_init():
E:/桌面/19th智能车/单片机培训、考核/CH32V103_Library-master/Seekfree_CH32V103R8T6_Opensource_Library/Project/CODE/motor_PWM.c:43
//  @param      pin_BIN2       电机2方向控制引脚2     pin_BIN1=1，pin_BIN2=0则开启正转状态
//  @return     void
//  Sample usage:          motor_enable_init(C9, A8, A11, C10, C12);   //初始化电机使能转向引脚
//-------------------------------------------------------------------------------------------------------------------------------------------------------------------------------
void motor_enable_init(PIN_enum pin_STBY, PIN_enum pin_AIN1, PIN_enum pin_AIN2, PIN_enum pin_BIN1,PIN_enum pin_BIN2)
{
    586e:	7179                	addi	sp,sp,-48
    5870:	d606                	sw	ra,44(sp)
    5872:	d422                	sw	s0,40(sp)
    5874:	1800                	addi	s0,sp,48
    5876:	fea42623          	sw	a0,-20(s0)
    587a:	feb42423          	sw	a1,-24(s0)
    587e:	fec42223          	sw	a2,-28(s0)
    5882:	fed42023          	sw	a3,-32(s0)
    5886:	fce42e23          	sw	a4,-36(s0)
E:/桌面/19th智能车/单片机培训、考核/CH32V103_Library-master/Seekfree_CH32V103R8T6_Opensource_Library/Project/CODE/motor_PWM.c:44
    gpio_init(pin_STBY, GPO, 1, GPIO_PIN_CONFIG);  //STBY使能
    588a:	31000693          	li	a3,784
    588e:	4605                	li	a2,1
    5890:	4585                	li	a1,1
    5892:	fec42503          	lw	a0,-20(s0)
    5896:	895fd0ef          	jal	ra,312a <gpio_init>
E:/桌面/19th智能车/单片机培训、考核/CH32V103_Library-master/Seekfree_CH32V103R8T6_Opensource_Library/Project/CODE/motor_PWM.c:47

    //左轮：
    gpio_init(pin_AIN1, GPO, 0, GPIO_PIN_CONFIG);  //AIN1
    589a:	31000693          	li	a3,784
    589e:	4601                	li	a2,0
    58a0:	4585                	li	a1,1
    58a2:	fe842503          	lw	a0,-24(s0)
    58a6:	885fd0ef          	jal	ra,312a <gpio_init>
E:/桌面/19th智能车/单片机培训、考核/CH32V103_Library-master/Seekfree_CH32V103R8T6_Opensource_Library/Project/CODE/motor_PWM.c:48
    gpio_init(pin_AIN2, GPO, 0, GPIO_PIN_CONFIG);  //AIN2
    58aa:	31000693          	li	a3,784
    58ae:	4601                	li	a2,0
    58b0:	4585                	li	a1,1
    58b2:	fe442503          	lw	a0,-28(s0)
    58b6:	875fd0ef          	jal	ra,312a <gpio_init>
E:/桌面/19th智能车/单片机培训、考核/CH32V103_Library-master/Seekfree_CH32V103R8T6_Opensource_Library/Project/CODE/motor_PWM.c:51

    //右轮：
    gpio_init(pin_BIN1, GPO, 0, GPIO_PIN_CONFIG);  //BIN1
    58ba:	31000693          	li	a3,784
    58be:	4601                	li	a2,0
    58c0:	4585                	li	a1,1
    58c2:	fe042503          	lw	a0,-32(s0)
    58c6:	865fd0ef          	jal	ra,312a <gpio_init>
E:/桌面/19th智能车/单片机培训、考核/CH32V103_Library-master/Seekfree_CH32V103R8T6_Opensource_Library/Project/CODE/motor_PWM.c:52
    gpio_init(pin_BIN2, GPO, 0, GPIO_PIN_CONFIG);  //BIN2
    58ca:	31000693          	li	a3,784
    58ce:	4601                	li	a2,0
    58d0:	4585                	li	a1,1
    58d2:	fdc42503          	lw	a0,-36(s0)
    58d6:	855fd0ef          	jal	ra,312a <gpio_init>
E:/桌面/19th智能车/单片机培训、考核/CH32V103_Library-master/Seekfree_CH32V103R8T6_Opensource_Library/Project/CODE/motor_PWM.c:53
}
    58da:	0001                	nop
    58dc:	50b2                	lw	ra,44(sp)
    58de:	5422                	lw	s0,40(sp)
    58e0:	6145                	addi	sp,sp,48
    58e2:	8082                	ret

000058e4 <PWM_init>:
PWM_init():
E:/桌面/19th智能车/单片机培训、考核/CH32V103_Library-master/Seekfree_CH32V103R8T6_Opensource_Library/Project/CODE/motor_PWM.c:77
//  @return     void
//  Sample usage:          PWM_init(PWM3_CH1_C6, PWM3_CH2_C7, 5000, 0); //初始化PWM3 通道1与通道2 使用引脚C6与C7  输出PWM频率5KHZ   占空比为百分之 5000/PWM_DUTY_MAX*100
//                                                                                                                              PWM_DUTY_MAX在zf_pwm.h文件中 默认为10000
//-------------------------------------------------------------------------------------------------------------------------------------------------------------------------------
void PWM_init(PWMCH_enum pwmch1, PWMCH_enum pwmch2, uint32 freq, uint32 duty)
{
    58e4:	1101                	addi	sp,sp,-32
    58e6:	ce06                	sw	ra,28(sp)
    58e8:	cc22                	sw	s0,24(sp)
    58ea:	1000                	addi	s0,sp,32
    58ec:	fea42623          	sw	a0,-20(s0)
    58f0:	feb42423          	sw	a1,-24(s0)
    58f4:	fec42223          	sw	a2,-28(s0)
    58f8:	fed42023          	sw	a3,-32(s0)
E:/桌面/19th智能车/单片机培训、考核/CH32V103_Library-master/Seekfree_CH32V103R8T6_Opensource_Library/Project/CODE/motor_PWM.c:78
    timer_pwm_init(pwmch1, freq, duty);//初始化PWM 通道 使用引脚  输出PWM频率freq HZ   占空比为百分之 duty/PWM_DUTY_MAX*100
    58fc:	fe042603          	lw	a2,-32(s0)
    5900:	fe442583          	lw	a1,-28(s0)
    5904:	fec42503          	lw	a0,-20(s0)
    5908:	e3dfd0ef          	jal	ra,3744 <timer_pwm_init>
E:/桌面/19th智能车/单片机培训、考核/CH32V103_Library-master/Seekfree_CH32V103R8T6_Opensource_Library/Project/CODE/motor_PWM.c:79
    timer_pwm_init(pwmch2, freq, duty);//初始化PWM 通道 使用引脚  输出PWM频率freq HZ   占空比为百分之 duty/PWM_DUTY_MAX*100
    590c:	fe042603          	lw	a2,-32(s0)
    5910:	fe442583          	lw	a1,-28(s0)
    5914:	fe842503          	lw	a0,-24(s0)
    5918:	e2dfd0ef          	jal	ra,3744 <timer_pwm_init>
E:/桌面/19th智能车/单片机培训、考核/CH32V103_Library-master/Seekfree_CH32V103R8T6_Opensource_Library/Project/CODE/motor_PWM.c:80
}
    591c:	0001                	nop
    591e:	40f2                	lw	ra,28(sp)
    5920:	4462                	lw	s0,24(sp)
    5922:	6105                	addi	sp,sp,32
    5924:	8082                	ret

00005926 <set_PWM_motor>:
set_PWM_motor():
E:/桌面/19th智能车/单片机培训、考核/CH32V103_Library-master/Seekfree_CH32V103R8T6_Opensource_Library/Project/CODE/motor_PWM.c:112
//  @return     void
//  Sample usage:          set_PWM_motor(A8 , A11, PWM3_CH1_C6, 2000, 1); //通过引脚A8,A9作为正反转控制引脚  通过引脚C6输出PWM 占空比为百分之 2000/PWM_DUTY_MAX*100   控制正转
//                                                                                                             PWM_DUTY_MAX在zf_pwm.h文件中 默认为10000
//-------------------------------------------------------------------------------------------------------------------------------------------------------------------------------
void set_PWM_motor(PIN_enum pin_1, PIN_enum pin_2, PWMCH_enum pwmch, uint32 duty, uint8 dat)
{
    5926:	7179                	addi	sp,sp,-48
    5928:	d606                	sw	ra,44(sp)
    592a:	d422                	sw	s0,40(sp)
    592c:	1800                	addi	s0,sp,48
    592e:	fea42623          	sw	a0,-20(s0)
    5932:	feb42423          	sw	a1,-24(s0)
    5936:	fec42223          	sw	a2,-28(s0)
    593a:	fed42023          	sw	a3,-32(s0)
    593e:	87ba                	mv	a5,a4
    5940:	fcf40fa3          	sb	a5,-33(s0)
E:/桌面/19th智能车/单片机培训、考核/CH32V103_Library-master/Seekfree_CH32V103R8T6_Opensource_Library/Project/CODE/motor_PWM.c:113
    gpio_set(pin_1,  dat);
    5944:	fdf44783          	lbu	a5,-33(s0)
    5948:	85be                	mv	a1,a5
    594a:	fec42503          	lw	a0,-20(s0)
    594e:	981fd0ef          	jal	ra,32ce <gpio_set>
E:/桌面/19th智能车/单片机培训、考核/CH32V103_Library-master/Seekfree_CH32V103R8T6_Opensource_Library/Project/CODE/motor_PWM.c:114
    gpio_set(pin_2, !dat);
    5952:	fdf44783          	lbu	a5,-33(s0)
    5956:	0017b793          	seqz	a5,a5
    595a:	0ff7f793          	andi	a5,a5,255
    595e:	85be                	mv	a1,a5
    5960:	fe842503          	lw	a0,-24(s0)
    5964:	96bfd0ef          	jal	ra,32ce <gpio_set>
E:/桌面/19th智能车/单片机培训、考核/CH32V103_Library-master/Seekfree_CH32V103R8T6_Opensource_Library/Project/CODE/motor_PWM.c:115
    timer_pwm_duty(pwmch, duty);  //改变A15输出PWM的占空比为百分之 duty/PWM_DUTY_MAX*100
    5968:	fe042583          	lw	a1,-32(s0)
    596c:	fe442503          	lw	a0,-28(s0)
    5970:	998fe0ef          	jal	ra,3b08 <timer_pwm_duty>
E:/桌面/19th智能车/单片机培训、考核/CH32V103_Library-master/Seekfree_CH32V103R8T6_Opensource_Library/Project/CODE/motor_PWM.c:116
}
    5974:	0001                	nop
    5976:	50b2                	lw	ra,44(sp)
    5978:	5422                	lw	s0,40(sp)
    597a:	6145                	addi	sp,sp,48
    597c:	8082                	ret

0000597e <encoder_init>:
encoder_init():
E:/桌面/19th智能车/单片机培训、考核/CH32V103_Library-master/Seekfree_CH32V103R8T6_Opensource_Library/Project/CODE/timer_encoder.c:21
//  @param      phaseB      通道B以及引脚
//  @return     void
//  Sample usage:           推荐使用正交解码编码器。
//-------------------------------------------------------------------------------------------------------------------
void encoder_init(TIMERN_enum timern, TIMER_PIN_enum phaseA, TIMER_PIN_enum phaseB)
{
    597e:	1101                	addi	sp,sp,-32
    5980:	ce06                	sw	ra,28(sp)
    5982:	cc22                	sw	s0,24(sp)
    5984:	1000                	addi	s0,sp,32
    5986:	fea42623          	sw	a0,-20(s0)
    598a:	feb42423          	sw	a1,-24(s0)
    598e:	fec42223          	sw	a2,-28(s0)
E:/桌面/19th智能车/单片机培训、考核/CH32V103_Library-master/Seekfree_CH32V103R8T6_Opensource_Library/Project/CODE/timer_encoder.c:22
    timer_quad_init(timern, phaseA, phaseB);
    5992:	fe442603          	lw	a2,-28(s0)
    5996:	fe842583          	lw	a1,-24(s0)
    599a:	fec42503          	lw	a0,-20(s0)
    599e:	fe8fe0ef          	jal	ra,4186 <timer_quad_init>
E:/桌面/19th智能车/单片机培训、考核/CH32V103_Library-master/Seekfree_CH32V103R8T6_Opensource_Library/Project/CODE/timer_encoder.c:23
}
    59a2:	0001                	nop
    59a4:	40f2                	lw	ra,28(sp)
    59a6:	4462                	lw	s0,24(sp)
    59a8:	6105                	addi	sp,sp,32
    59aa:	8082                	ret

000059ac <encoder_get>:
encoder_get():
E:/桌面/19th智能车/单片机培训、考核/CH32V103_Library-master/Seekfree_CH32V103R8T6_Opensource_Library/Project/CODE/timer_encoder.c:34
//  @param      timern      定时器枚举体      定义于zf.timer.h中
//  @return     int  编码器数值
//  Sample usage:              enc=encoder_get(TIMER_2);//将定时器2口读到的编码器值传输给enc并清空定时器2的计数器值
//-------------------------------------------------------------------------------------------------------------------
int encoder_get(TIMERN_enum timern)
{
    59ac:	1101                	addi	sp,sp,-32
    59ae:	ce06                	sw	ra,28(sp)
    59b0:	cc22                	sw	s0,24(sp)
    59b2:	1000                	addi	s0,sp,32
    59b4:	fea42623          	sw	a0,-20(s0)
E:/桌面/19th智能车/单片机培训、考核/CH32V103_Library-master/Seekfree_CH32V103R8T6_Opensource_Library/Project/CODE/timer_encoder.c:35
    enc_date = timer_quad_get(timern);        //编码器取值
    59b8:	fec42503          	lw	a0,-20(s0)
    59bc:	927fe0ef          	jal	ra,42e2 <timer_quad_get>
    59c0:	87aa                	mv	a5,a0
    59c2:	873e                	mv	a4,a5
    59c4:	86e1a423          	sw	a4,-1944(gp) # 200000d8 <enc_date>
E:/桌面/19th智能车/单片机培训、考核/CH32V103_Library-master/Seekfree_CH32V103R8T6_Opensource_Library/Project/CODE/timer_encoder.c:36
    timer_quad_clear(timern);          //清空定时器的计数器值
    59c8:	fec42503          	lw	a0,-20(s0)
    59cc:	945fe0ef          	jal	ra,4310 <timer_quad_clear>
E:/桌面/19th智能车/单片机培训、考核/CH32V103_Library-master/Seekfree_CH32V103R8T6_Opensource_Library/Project/CODE/timer_encoder.c:37
    return enc_date;
    59d0:	8681a783          	lw	a5,-1944(gp) # 200000d8 <enc_date>
E:/桌面/19th智能车/单片机培训、考核/CH32V103_Library-master/Seekfree_CH32V103R8T6_Opensource_Library/Project/CODE/timer_encoder.c:38
}
    59d4:	853e                	mv	a0,a5
    59d6:	40f2                	lw	ra,28(sp)
    59d8:	4462                	lw	s0,24(sp)
    59da:	6105                	addi	sp,sp,32
    59dc:	8082                	ret

000059de <uart_show_date>:
uart_show_date():
E:/桌面/19th智能车/单片机培训、考核/CH32V103_Library-master/Seekfree_CH32V103R8T6_Opensource_Library/Project/CODE/uart_showdate.c:19
//  @param      date        数据变量
//  @return     void
//  Sample usage:                   uart_show_date(UART_1,adc);   //串口1发送int型变量adc中的值
//-------------------------------------------------------------------------------------------------------------------
void uart_show_date(UARTN_enum uartn,int date)
{
    59de:	7179                	addi	sp,sp,-48
    59e0:	d606                	sw	ra,44(sp)
    59e2:	d422                	sw	s0,40(sp)
    59e4:	1800                	addi	s0,sp,48
    59e6:	fca42e23          	sw	a0,-36(s0)
    59ea:	fcb42c23          	sw	a1,-40(s0)
E:/桌面/19th智能车/单片机培训、考核/CH32V103_Library-master/Seekfree_CH32V103R8T6_Opensource_Library/Project/CODE/uart_showdate.c:22
    // 将 'x' 的值转换为字符串
    char x_str[10];
    snprintf(x_str, sizeof(x_str), "%d", date);
    59ee:	fe040713          	addi	a4,s0,-32
    59f2:	fd842683          	lw	a3,-40(s0)
    59f6:	679d                	lui	a5,0x7
    59f8:	47878613          	addi	a2,a5,1144 # 7478 <_exit+0x224>
    59fc:	45a9                	li	a1,10
    59fe:	853a                	mv	a0,a4
    5a00:	065000ef          	jal	ra,6264 <sniprintf>
E:/桌面/19th智能车/单片机培训、考核/CH32V103_Library-master/Seekfree_CH32V103R8T6_Opensource_Library/Project/CODE/uart_showdate.c:25

    // 逐个发送 'x_str' 中的每个字符
    for (int i = 0; x_str[i] != '\0'; i++)
    5a04:	fe042623          	sw	zero,-20(s0)
    5a08:	a025                	j	5a30 <uart_show_date+0x52>
E:/桌面/19th智能车/单片机培训、考核/CH32V103_Library-master/Seekfree_CH32V103R8T6_Opensource_Library/Project/CODE/uart_showdate.c:27 (discriminator 3)
    {
        uart_putchar(uartn, x_str[i]);
    5a0a:	fec42783          	lw	a5,-20(s0)
    5a0e:	ff040713          	addi	a4,s0,-16
    5a12:	97ba                	add	a5,a5,a4
    5a14:	ff078783          	lb	a5,-16(a5)
    5a18:	0ff7f793          	andi	a5,a5,255
    5a1c:	85be                	mv	a1,a5
    5a1e:	fdc42503          	lw	a0,-36(s0)
    5a22:	b05fe0ef          	jal	ra,4526 <uart_putchar>
E:/桌面/19th智能车/单片机培训、考核/CH32V103_Library-master/Seekfree_CH32V103R8T6_Opensource_Library/Project/CODE/uart_showdate.c:25 (discriminator 3)
    for (int i = 0; x_str[i] != '\0'; i++)
    5a26:	fec42783          	lw	a5,-20(s0)
    5a2a:	0785                	addi	a5,a5,1
    5a2c:	fef42623          	sw	a5,-20(s0)
E:/桌面/19th智能车/单片机培训、考核/CH32V103_Library-master/Seekfree_CH32V103R8T6_Opensource_Library/Project/CODE/uart_showdate.c:25 (discriminator 1)
    5a30:	fec42783          	lw	a5,-20(s0)
    5a34:	ff040713          	addi	a4,s0,-16
    5a38:	97ba                	add	a5,a5,a4
    5a3a:	ff078783          	lb	a5,-16(a5)
    5a3e:	f7f1                	bnez	a5,5a0a <uart_show_date+0x2c>
E:/桌面/19th智能车/单片机培训、考核/CH32V103_Library-master/Seekfree_CH32V103R8T6_Opensource_Library/Project/CODE/uart_showdate.c:33
    }

    // 发送回车换行字符以进行格式化
//    uart_putchar(uartn, '\r');
//    uart_putchar(uartn, '\n');
}
    5a40:	0001                	nop
    5a42:	50b2                	lw	ra,44(sp)
    5a44:	5422                	lw	s0,40(sp)
    5a46:	6145                	addi	sp,sp,48
    5a48:	8082                	ret

00005a4a <uart_show_string>:
uart_show_string():
E:/桌面/19th智能车/单片机培训、考核/CH32V103_Library-master/Seekfree_CH32V103R8T6_Opensource_Library/Project/CODE/uart_showdate.c:43
//  @param      str         字符串首地址
//  @return     void
//  Sample usage:                   uart_show_string(UART_1,"ADC:");   //串口1发送“ADC：”这个字符串
//-------------------------------------------------------------------------------------------------------------------
void uart_show_string(UARTN_enum uartn, const uint8 *str)
{
    5a4a:	1101                	addi	sp,sp,-32
    5a4c:	ce06                	sw	ra,28(sp)
    5a4e:	cc22                	sw	s0,24(sp)
    5a50:	1000                	addi	s0,sp,32
    5a52:	fea42623          	sw	a0,-20(s0)
    5a56:	feb42423          	sw	a1,-24(s0)
E:/桌面/19th智能车/单片机培训、考核/CH32V103_Library-master/Seekfree_CH32V103R8T6_Opensource_Library/Project/CODE/uart_showdate.c:44
    while(*str)
    5a5a:	a831                	j	5a76 <uart_show_string+0x2c>
E:/桌面/19th智能车/单片机培训、考核/CH32V103_Library-master/Seekfree_CH32V103R8T6_Opensource_Library/Project/CODE/uart_showdate.c:46
    {
        uart_putchar(uartn, *str++);
    5a5c:	fe842783          	lw	a5,-24(s0)
    5a60:	00178713          	addi	a4,a5,1
    5a64:	fee42423          	sw	a4,-24(s0)
    5a68:	0007c783          	lbu	a5,0(a5)
    5a6c:	85be                	mv	a1,a5
    5a6e:	fec42503          	lw	a0,-20(s0)
    5a72:	ab5fe0ef          	jal	ra,4526 <uart_putchar>
E:/桌面/19th智能车/单片机培训、考核/CH32V103_Library-master/Seekfree_CH32V103R8T6_Opensource_Library/Project/CODE/uart_showdate.c:44
    while(*str)
    5a76:	fe842783          	lw	a5,-24(s0)
    5a7a:	0007c783          	lbu	a5,0(a5)
    5a7e:	fff9                	bnez	a5,5a5c <uart_show_string+0x12>
E:/桌面/19th智能车/单片机培训、考核/CH32V103_Library-master/Seekfree_CH32V103R8T6_Opensource_Library/Project/CODE/uart_showdate.c:48
    }
}
    5a80:	0001                	nop
    5a82:	40f2                	lw	ra,28(sp)
    5a84:	4462                	lw	s0,24(sp)
    5a86:	6105                	addi	sp,sp,32
    5a88:	8082                	ret

00005a8a <__assert_func>:
__assert_func():
    5a8a:	80c18793          	addi	a5,gp,-2036 # 2000007c <_impure_ptr>
    5a8e:	439c                	lw	a5,0(a5)
    5a90:	1141                	addi	sp,sp,-16
    5a92:	8832                	mv	a6,a2
    5a94:	c606                	sw	ra,12(sp)
    5a96:	88aa                	mv	a7,a0
    5a98:	872e                	mv	a4,a1
    5a9a:	47c8                	lw	a0,12(a5)
    5a9c:	8636                	mv	a2,a3
    5a9e:	00002797          	auipc	a5,0x2
    5aa2:	18678793          	addi	a5,a5,390 # 7c24 <MyProdInfo+0xfc>
    5aa6:	00081763          	bnez	a6,5ab4 <__assert_func+0x2a>
    5aaa:	00002797          	auipc	a5,0x2
    5aae:	18678793          	addi	a5,a5,390 # 7c30 <MyProdInfo+0x108>
    5ab2:	883e                	mv	a6,a5
    5ab4:	86c6                	mv	a3,a7
    5ab6:	00002597          	auipc	a1,0x2
    5aba:	17e58593          	addi	a1,a1,382 # 7c34 <MyProdInfo+0x10c>
    5abe:	2019                	jal	5ac4 <fiprintf>
    5ac0:	20d000ef          	jal	ra,64cc <abort>

00005ac4 <fiprintf>:
fprintf():
    5ac4:	7139                	addi	sp,sp,-64
    5ac6:	d432                	sw	a2,40(sp)
    5ac8:	d636                	sw	a3,44(sp)
    5aca:	da3e                	sw	a5,52(sp)
    5acc:	d83a                	sw	a4,48(sp)
    5ace:	dc42                	sw	a6,56(sp)
    5ad0:	de46                	sw	a7,60(sp)
    5ad2:	80c18793          	addi	a5,gp,-2036 # 2000007c <_impure_ptr>
    5ad6:	862e                	mv	a2,a1
    5ad8:	85aa                	mv	a1,a0
    5ada:	4388                	lw	a0,0(a5)
    5adc:	1034                	addi	a3,sp,40
    5ade:	ce06                	sw	ra,28(sp)
    5ae0:	c636                	sw	a3,12(sp)
    5ae2:	222d                	jal	5c0c <_vfiprintf_r>
    5ae4:	40f2                	lw	ra,28(sp)
    5ae6:	6121                	addi	sp,sp,64
    5ae8:	8082                	ret

00005aea <memcpy>:
memcpy():
    5aea:	00a5c7b3          	xor	a5,a1,a0
    5aee:	8b8d                	andi	a5,a5,3
    5af0:	00c50733          	add	a4,a0,a2
    5af4:	e781                	bnez	a5,5afc <memcpy+0x12>
    5af6:	478d                	li	a5,3
    5af8:	00c7ee63          	bltu	a5,a2,5b14 <memcpy+0x2a>
    5afc:	87aa                	mv	a5,a0
    5afe:	0ae57063          	bgeu	a0,a4,5b9e <memcpy+0xb4>
    5b02:	0005c683          	lbu	a3,0(a1)
    5b06:	0785                	addi	a5,a5,1
    5b08:	0585                	addi	a1,a1,1
    5b0a:	fed78fa3          	sb	a3,-1(a5)
    5b0e:	fee7eae3          	bltu	a5,a4,5b02 <memcpy+0x18>
    5b12:	8082                	ret
    5b14:	00357693          	andi	a3,a0,3
    5b18:	87aa                	mv	a5,a0
    5b1a:	ca91                	beqz	a3,5b2e <memcpy+0x44>
    5b1c:	0005c683          	lbu	a3,0(a1)
    5b20:	0785                	addi	a5,a5,1
    5b22:	0585                	addi	a1,a1,1
    5b24:	fed78fa3          	sb	a3,-1(a5)
    5b28:	0037f693          	andi	a3,a5,3
    5b2c:	b7fd                	j	5b1a <memcpy+0x30>
    5b2e:	ffc77693          	andi	a3,a4,-4
    5b32:	fe068613          	addi	a2,a3,-32
    5b36:	06c7f063          	bgeu	a5,a2,5b96 <memcpy+0xac>
    5b3a:	0005a383          	lw	t2,0(a1)
    5b3e:	0045a283          	lw	t0,4(a1)
    5b42:	0085af83          	lw	t6,8(a1)
    5b46:	00c5af03          	lw	t5,12(a1)
    5b4a:	0105ae83          	lw	t4,16(a1)
    5b4e:	0145ae03          	lw	t3,20(a1)
    5b52:	0185a303          	lw	t1,24(a1)
    5b56:	01c5a883          	lw	a7,28(a1)
    5b5a:	02458593          	addi	a1,a1,36
    5b5e:	0077a023          	sw	t2,0(a5)
    5b62:	ffc5a803          	lw	a6,-4(a1)
    5b66:	0057a223          	sw	t0,4(a5)
    5b6a:	01f7a423          	sw	t6,8(a5)
    5b6e:	01e7a623          	sw	t5,12(a5)
    5b72:	01d7a823          	sw	t4,16(a5)
    5b76:	01c7aa23          	sw	t3,20(a5)
    5b7a:	0067ac23          	sw	t1,24(a5)
    5b7e:	0117ae23          	sw	a7,28(a5)
    5b82:	02478793          	addi	a5,a5,36
    5b86:	ff07ae23          	sw	a6,-4(a5)
    5b8a:	b775                	j	5b36 <memcpy+0x4c>
    5b8c:	4190                	lw	a2,0(a1)
    5b8e:	0791                	addi	a5,a5,4
    5b90:	0591                	addi	a1,a1,4
    5b92:	fec7ae23          	sw	a2,-4(a5)
    5b96:	fed7ebe3          	bltu	a5,a3,5b8c <memcpy+0xa2>
    5b9a:	f6e7e4e3          	bltu	a5,a4,5b02 <memcpy+0x18>
    5b9e:	8082                	ret

00005ba0 <__sfputc_r>:
__sfputc_r():
    5ba0:	461c                	lw	a5,8(a2)
    5ba2:	17fd                	addi	a5,a5,-1
    5ba4:	c61c                	sw	a5,8(a2)
    5ba6:	0007d963          	bgez	a5,5bb8 <__sfputc_r+0x18>
    5baa:	4e18                	lw	a4,24(a2)
    5bac:	00e7c563          	blt	a5,a4,5bb6 <__sfputc_r+0x16>
    5bb0:	47a9                	li	a5,10
    5bb2:	00f59363          	bne	a1,a5,5bb8 <__sfputc_r+0x18>
    5bb6:	a7a9                	j	6300 <__swbuf_r>
    5bb8:	421c                	lw	a5,0(a2)
    5bba:	852e                	mv	a0,a1
    5bbc:	00178713          	addi	a4,a5,1
    5bc0:	c218                	sw	a4,0(a2)
    5bc2:	00b78023          	sb	a1,0(a5)
    5bc6:	8082                	ret

00005bc8 <__sfputs_r>:
__sfputs_r():
    5bc8:	1101                	addi	sp,sp,-32
    5bca:	cc22                	sw	s0,24(sp)
    5bcc:	ca26                	sw	s1,20(sp)
    5bce:	c84a                	sw	s2,16(sp)
    5bd0:	c64e                	sw	s3,12(sp)
    5bd2:	c452                	sw	s4,8(sp)
    5bd4:	ce06                	sw	ra,28(sp)
    5bd6:	892a                	mv	s2,a0
    5bd8:	89ae                	mv	s3,a1
    5bda:	8432                	mv	s0,a2
    5bdc:	00d604b3          	add	s1,a2,a3
    5be0:	5a7d                	li	s4,-1
    5be2:	00941463          	bne	s0,s1,5bea <__sfputs_r+0x22>
    5be6:	4501                	li	a0,0
    5be8:	a811                	j	5bfc <__sfputs_r+0x34>
    5bea:	00044583          	lbu	a1,0(s0)
    5bee:	864e                	mv	a2,s3
    5bf0:	854a                	mv	a0,s2
    5bf2:	fafff0ef          	jal	ra,5ba0 <__sfputc_r>
    5bf6:	0405                	addi	s0,s0,1
    5bf8:	ff4515e3          	bne	a0,s4,5be2 <__sfputs_r+0x1a>
    5bfc:	40f2                	lw	ra,28(sp)
    5bfe:	4462                	lw	s0,24(sp)
    5c00:	44d2                	lw	s1,20(sp)
    5c02:	4942                	lw	s2,16(sp)
    5c04:	49b2                	lw	s3,12(sp)
    5c06:	4a22                	lw	s4,8(sp)
    5c08:	6105                	addi	sp,sp,32
    5c0a:	8082                	ret

00005c0c <_vfiprintf_r>:
_vfiprintf_r():
    5c0c:	7135                	addi	sp,sp,-160
    5c0e:	cd22                	sw	s0,152(sp)
    5c10:	cb26                	sw	s1,148(sp)
    5c12:	c94a                	sw	s2,144(sp)
    5c14:	c74e                	sw	s3,140(sp)
    5c16:	cf06                	sw	ra,156(sp)
    5c18:	c552                	sw	s4,136(sp)
    5c1a:	c356                	sw	s5,132(sp)
    5c1c:	c15a                	sw	s6,128(sp)
    5c1e:	dede                	sw	s7,124(sp)
    5c20:	dce2                	sw	s8,120(sp)
    5c22:	dae6                	sw	s9,116(sp)
    5c24:	89aa                	mv	s3,a0
    5c26:	84ae                	mv	s1,a1
    5c28:	8932                	mv	s2,a2
    5c2a:	8436                	mv	s0,a3
    5c2c:	c509                	beqz	a0,5c36 <_vfiprintf_r+0x2a>
    5c2e:	4d1c                	lw	a5,24(a0)
    5c30:	e399                	bnez	a5,5c36 <_vfiprintf_r+0x2a>
    5c32:	307000ef          	jal	ra,6738 <__sinit>
    5c36:	00002797          	auipc	a5,0x2
    5c3a:	08a78793          	addi	a5,a5,138 # 7cc0 <__sf_fake_stdin>
    5c3e:	0cf49d63          	bne	s1,a5,5d18 <_vfiprintf_r+0x10c>
    5c42:	0049a483          	lw	s1,4(s3)
    5c46:	00c4d783          	lhu	a5,12(s1)
    5c4a:	8ba1                	andi	a5,a5,8
    5c4c:	cbe5                	beqz	a5,5d3c <_vfiprintf_r+0x130>
    5c4e:	489c                	lw	a5,16(s1)
    5c50:	c7f5                	beqz	a5,5d3c <_vfiprintf_r+0x130>
    5c52:	02000793          	li	a5,32
    5c56:	02f104a3          	sb	a5,41(sp)
    5c5a:	03000793          	li	a5,48
    5c5e:	d202                	sw	zero,36(sp)
    5c60:	02f10523          	sb	a5,42(sp)
    5c64:	c622                	sw	s0,12(sp)
    5c66:	02500b93          	li	s7,37
    5c6a:	00002a97          	auipc	s5,0x2
    5c6e:	ffaa8a93          	addi	s5,s5,-6 # 7c64 <MyProdInfo+0x13c>
    5c72:	4c05                	li	s8,1
    5c74:	4b29                	li	s6,10
    5c76:	844a                	mv	s0,s2
    5c78:	00044783          	lbu	a5,0(s0)
    5c7c:	c399                	beqz	a5,5c82 <_vfiprintf_r+0x76>
    5c7e:	0f779163          	bne	a5,s7,5d60 <_vfiprintf_r+0x154>
    5c82:	41240cb3          	sub	s9,s0,s2
    5c86:	000c8e63          	beqz	s9,5ca2 <_vfiprintf_r+0x96>
    5c8a:	86e6                	mv	a3,s9
    5c8c:	864a                	mv	a2,s2
    5c8e:	85a6                	mv	a1,s1
    5c90:	854e                	mv	a0,s3
    5c92:	f37ff0ef          	jal	ra,5bc8 <__sfputs_r>
    5c96:	57fd                	li	a5,-1
    5c98:	1ef50863          	beq	a0,a5,5e88 <_vfiprintf_r+0x27c>
    5c9c:	5692                	lw	a3,36(sp)
    5c9e:	96e6                	add	a3,a3,s9
    5ca0:	d236                	sw	a3,36(sp)
    5ca2:	00044783          	lbu	a5,0(s0)
    5ca6:	1e078163          	beqz	a5,5e88 <_vfiprintf_r+0x27c>
    5caa:	57fd                	li	a5,-1
    5cac:	00140913          	addi	s2,s0,1
    5cb0:	c802                	sw	zero,16(sp)
    5cb2:	ce02                	sw	zero,28(sp)
    5cb4:	ca3e                	sw	a5,20(sp)
    5cb6:	cc02                	sw	zero,24(sp)
    5cb8:	040109a3          	sb	zero,83(sp)
    5cbc:	d482                	sw	zero,104(sp)
    5cbe:	00094583          	lbu	a1,0(s2)
    5cc2:	4615                	li	a2,5
    5cc4:	8556                	mv	a0,s5
    5cc6:	4e5000ef          	jal	ra,69aa <memchr>
    5cca:	00190413          	addi	s0,s2,1
    5cce:	47c2                	lw	a5,16(sp)
    5cd0:	e951                	bnez	a0,5d64 <_vfiprintf_r+0x158>
    5cd2:	0107f713          	andi	a4,a5,16
    5cd6:	c709                	beqz	a4,5ce0 <_vfiprintf_r+0xd4>
    5cd8:	02000713          	li	a4,32
    5cdc:	04e109a3          	sb	a4,83(sp)
    5ce0:	0087f713          	andi	a4,a5,8
    5ce4:	c709                	beqz	a4,5cee <_vfiprintf_r+0xe2>
    5ce6:	02b00713          	li	a4,43
    5cea:	04e109a3          	sb	a4,83(sp)
    5cee:	00094683          	lbu	a3,0(s2)
    5cf2:	02a00713          	li	a4,42
    5cf6:	06e68f63          	beq	a3,a4,5d74 <_vfiprintf_r+0x168>
    5cfa:	47f2                	lw	a5,28(sp)
    5cfc:	844a                	mv	s0,s2
    5cfe:	4681                	li	a3,0
    5d00:	4625                	li	a2,9
    5d02:	00044703          	lbu	a4,0(s0)
    5d06:	00140593          	addi	a1,s0,1
    5d0a:	fd070713          	addi	a4,a4,-48
    5d0e:	0ae67863          	bgeu	a2,a4,5dbe <_vfiprintf_r+0x1b2>
    5d12:	caad                	beqz	a3,5d84 <_vfiprintf_r+0x178>
    5d14:	ce3e                	sw	a5,28(sp)
    5d16:	a0bd                	j	5d84 <_vfiprintf_r+0x178>
    5d18:	00002797          	auipc	a5,0x2
    5d1c:	fc878793          	addi	a5,a5,-56 # 7ce0 <__sf_fake_stdout>
    5d20:	00f49563          	bne	s1,a5,5d2a <_vfiprintf_r+0x11e>
    5d24:	0089a483          	lw	s1,8(s3)
    5d28:	bf39                	j	5c46 <_vfiprintf_r+0x3a>
    5d2a:	00002797          	auipc	a5,0x2
    5d2e:	f7678793          	addi	a5,a5,-138 # 7ca0 <__sf_fake_stderr>
    5d32:	f0f49ae3          	bne	s1,a5,5c46 <_vfiprintf_r+0x3a>
    5d36:	00c9a483          	lw	s1,12(s3)
    5d3a:	b731                	j	5c46 <_vfiprintf_r+0x3a>
    5d3c:	85a6                	mv	a1,s1
    5d3e:	854e                	mv	a0,s3
    5d40:	2541                	jal	63c0 <__swsetup_r>
    5d42:	d901                	beqz	a0,5c52 <_vfiprintf_r+0x46>
    5d44:	557d                	li	a0,-1
    5d46:	40fa                	lw	ra,156(sp)
    5d48:	446a                	lw	s0,152(sp)
    5d4a:	44da                	lw	s1,148(sp)
    5d4c:	494a                	lw	s2,144(sp)
    5d4e:	49ba                	lw	s3,140(sp)
    5d50:	4a2a                	lw	s4,136(sp)
    5d52:	4a9a                	lw	s5,132(sp)
    5d54:	4b0a                	lw	s6,128(sp)
    5d56:	5bf6                	lw	s7,124(sp)
    5d58:	5c66                	lw	s8,120(sp)
    5d5a:	5cd6                	lw	s9,116(sp)
    5d5c:	610d                	addi	sp,sp,160
    5d5e:	8082                	ret
    5d60:	0405                	addi	s0,s0,1
    5d62:	bf19                	j	5c78 <_vfiprintf_r+0x6c>
    5d64:	41550533          	sub	a0,a0,s5
    5d68:	00ac1533          	sll	a0,s8,a0
    5d6c:	8fc9                	or	a5,a5,a0
    5d6e:	c83e                	sw	a5,16(sp)
    5d70:	8922                	mv	s2,s0
    5d72:	b7b1                	j	5cbe <_vfiprintf_r+0xb2>
    5d74:	4732                	lw	a4,12(sp)
    5d76:	00470693          	addi	a3,a4,4
    5d7a:	4318                	lw	a4,0(a4)
    5d7c:	c636                	sw	a3,12(sp)
    5d7e:	02074963          	bltz	a4,5db0 <_vfiprintf_r+0x1a4>
    5d82:	ce3a                	sw	a4,28(sp)
    5d84:	00044703          	lbu	a4,0(s0)
    5d88:	02e00793          	li	a5,46
    5d8c:	04f71f63          	bne	a4,a5,5dea <_vfiprintf_r+0x1de>
    5d90:	00144703          	lbu	a4,1(s0)
    5d94:	02a00793          	li	a5,42
    5d98:	02f71b63          	bne	a4,a5,5dce <_vfiprintf_r+0x1c2>
    5d9c:	47b2                	lw	a5,12(sp)
    5d9e:	0409                	addi	s0,s0,2
    5da0:	00478713          	addi	a4,a5,4
    5da4:	439c                	lw	a5,0(a5)
    5da6:	c63a                	sw	a4,12(sp)
    5da8:	0207c163          	bltz	a5,5dca <_vfiprintf_r+0x1be>
    5dac:	ca3e                	sw	a5,20(sp)
    5dae:	a835                	j	5dea <_vfiprintf_r+0x1de>
    5db0:	40e00733          	neg	a4,a4
    5db4:	0027e793          	ori	a5,a5,2
    5db8:	ce3a                	sw	a4,28(sp)
    5dba:	c83e                	sw	a5,16(sp)
    5dbc:	b7e1                	j	5d84 <_vfiprintf_r+0x178>
    5dbe:	036787b3          	mul	a5,a5,s6
    5dc2:	4685                	li	a3,1
    5dc4:	842e                	mv	s0,a1
    5dc6:	97ba                	add	a5,a5,a4
    5dc8:	bf2d                	j	5d02 <_vfiprintf_r+0xf6>
    5dca:	57fd                	li	a5,-1
    5dcc:	b7c5                	j	5dac <_vfiprintf_r+0x1a0>
    5dce:	0405                	addi	s0,s0,1
    5dd0:	ca02                	sw	zero,20(sp)
    5dd2:	4681                	li	a3,0
    5dd4:	4781                	li	a5,0
    5dd6:	4625                	li	a2,9
    5dd8:	00044703          	lbu	a4,0(s0)
    5ddc:	00140593          	addi	a1,s0,1
    5de0:	fd070713          	addi	a4,a4,-48
    5de4:	06e67863          	bgeu	a2,a4,5e54 <_vfiprintf_r+0x248>
    5de8:	f2f1                	bnez	a3,5dac <_vfiprintf_r+0x1a0>
    5dea:	00044583          	lbu	a1,0(s0)
    5dee:	460d                	li	a2,3
    5df0:	00002517          	auipc	a0,0x2
    5df4:	e7c50513          	addi	a0,a0,-388 # 7c6c <MyProdInfo+0x144>
    5df8:	3b3000ef          	jal	ra,69aa <memchr>
    5dfc:	cd11                	beqz	a0,5e18 <_vfiprintf_r+0x20c>
    5dfe:	00002797          	auipc	a5,0x2
    5e02:	e6e78793          	addi	a5,a5,-402 # 7c6c <MyProdInfo+0x144>
    5e06:	8d1d                	sub	a0,a0,a5
    5e08:	04000793          	li	a5,64
    5e0c:	00a797b3          	sll	a5,a5,a0
    5e10:	4542                	lw	a0,16(sp)
    5e12:	0405                	addi	s0,s0,1
    5e14:	8d5d                	or	a0,a0,a5
    5e16:	c82a                	sw	a0,16(sp)
    5e18:	00044583          	lbu	a1,0(s0)
    5e1c:	4619                	li	a2,6
    5e1e:	00002517          	auipc	a0,0x2
    5e22:	e5250513          	addi	a0,a0,-430 # 7c70 <MyProdInfo+0x148>
    5e26:	00140913          	addi	s2,s0,1
    5e2a:	02b10423          	sb	a1,40(sp)
    5e2e:	37d000ef          	jal	ra,69aa <memchr>
    5e32:	c13d                	beqz	a0,5e98 <_vfiprintf_r+0x28c>
    5e34:	ffffa797          	auipc	a5,0xffffa
    5e38:	1cc78793          	addi	a5,a5,460 # 0 <_sinit>
    5e3c:	e795                	bnez	a5,5e68 <_vfiprintf_r+0x25c>
    5e3e:	4742                	lw	a4,16(sp)
    5e40:	47b2                	lw	a5,12(sp)
    5e42:	10077713          	andi	a4,a4,256
    5e46:	cf09                	beqz	a4,5e60 <_vfiprintf_r+0x254>
    5e48:	0791                	addi	a5,a5,4
    5e4a:	c63e                	sw	a5,12(sp)
    5e4c:	5792                	lw	a5,36(sp)
    5e4e:	97d2                	add	a5,a5,s4
    5e50:	d23e                	sw	a5,36(sp)
    5e52:	b515                	j	5c76 <_vfiprintf_r+0x6a>
    5e54:	036787b3          	mul	a5,a5,s6
    5e58:	4685                	li	a3,1
    5e5a:	842e                	mv	s0,a1
    5e5c:	97ba                	add	a5,a5,a4
    5e5e:	bfad                	j	5dd8 <_vfiprintf_r+0x1cc>
    5e60:	079d                	addi	a5,a5,7
    5e62:	9be1                	andi	a5,a5,-8
    5e64:	07a1                	addi	a5,a5,8
    5e66:	b7d5                	j	5e4a <_vfiprintf_r+0x23e>
    5e68:	0078                	addi	a4,sp,12
    5e6a:	00000697          	auipc	a3,0x0
    5e6e:	d5e68693          	addi	a3,a3,-674 # 5bc8 <__sfputs_r>
    5e72:	8626                	mv	a2,s1
    5e74:	080c                	addi	a1,sp,16
    5e76:	854e                	mv	a0,s3
    5e78:	00000097          	auipc	ra,0x0
    5e7c:	000000e7          	jalr	zero # 0 <_sinit>
    5e80:	57fd                	li	a5,-1
    5e82:	8a2a                	mv	s4,a0
    5e84:	fcf514e3          	bne	a0,a5,5e4c <_vfiprintf_r+0x240>
    5e88:	00c4d783          	lhu	a5,12(s1)
    5e8c:	0407f793          	andi	a5,a5,64
    5e90:	ea079ae3          	bnez	a5,5d44 <_vfiprintf_r+0x138>
    5e94:	5512                	lw	a0,36(sp)
    5e96:	bd45                	j	5d46 <_vfiprintf_r+0x13a>
    5e98:	0078                	addi	a4,sp,12
    5e9a:	00000697          	auipc	a3,0x0
    5e9e:	d2e68693          	addi	a3,a3,-722 # 5bc8 <__sfputs_r>
    5ea2:	8626                	mv	a2,s1
    5ea4:	080c                	addi	a1,sp,16
    5ea6:	854e                	mv	a0,s3
    5ea8:	2a01                	jal	5fb8 <_printf_i>
    5eaa:	bfd9                	j	5e80 <_vfiprintf_r+0x274>

00005eac <_printf_common>:
_printf_common():
    5eac:	7179                	addi	sp,sp,-48
    5eae:	ca56                	sw	s5,20(sp)
    5eb0:	499c                	lw	a5,16(a1)
    5eb2:	8aba                	mv	s5,a4
    5eb4:	4598                	lw	a4,8(a1)
    5eb6:	d422                	sw	s0,40(sp)
    5eb8:	d226                	sw	s1,36(sp)
    5eba:	ce4e                	sw	s3,28(sp)
    5ebc:	cc52                	sw	s4,24(sp)
    5ebe:	d606                	sw	ra,44(sp)
    5ec0:	d04a                	sw	s2,32(sp)
    5ec2:	c85a                	sw	s6,16(sp)
    5ec4:	c65e                	sw	s7,12(sp)
    5ec6:	89aa                	mv	s3,a0
    5ec8:	842e                	mv	s0,a1
    5eca:	84b2                	mv	s1,a2
    5ecc:	8a36                	mv	s4,a3
    5ece:	00e7d363          	bge	a5,a4,5ed4 <_printf_common+0x28>
    5ed2:	87ba                	mv	a5,a4
    5ed4:	c09c                	sw	a5,0(s1)
    5ed6:	04344703          	lbu	a4,67(s0)
    5eda:	c319                	beqz	a4,5ee0 <_printf_common+0x34>
    5edc:	0785                	addi	a5,a5,1
    5ede:	c09c                	sw	a5,0(s1)
    5ee0:	401c                	lw	a5,0(s0)
    5ee2:	0207f793          	andi	a5,a5,32
    5ee6:	c781                	beqz	a5,5eee <_printf_common+0x42>
    5ee8:	409c                	lw	a5,0(s1)
    5eea:	0789                	addi	a5,a5,2
    5eec:	c09c                	sw	a5,0(s1)
    5eee:	00042903          	lw	s2,0(s0)
    5ef2:	00697913          	andi	s2,s2,6
    5ef6:	00091a63          	bnez	s2,5f0a <_printf_common+0x5e>
    5efa:	01940b13          	addi	s6,s0,25
    5efe:	5bfd                	li	s7,-1
    5f00:	445c                	lw	a5,12(s0)
    5f02:	4098                	lw	a4,0(s1)
    5f04:	8f99                	sub	a5,a5,a4
    5f06:	04f94c63          	blt	s2,a5,5f5e <_printf_common+0xb2>
    5f0a:	401c                	lw	a5,0(s0)
    5f0c:	04344683          	lbu	a3,67(s0)
    5f10:	0207f793          	andi	a5,a5,32
    5f14:	00d036b3          	snez	a3,a3
    5f18:	eba5                	bnez	a5,5f88 <_printf_common+0xdc>
    5f1a:	04340613          	addi	a2,s0,67
    5f1e:	85d2                	mv	a1,s4
    5f20:	854e                	mv	a0,s3
    5f22:	9a82                	jalr	s5
    5f24:	57fd                	li	a5,-1
    5f26:	04f50363          	beq	a0,a5,5f6c <_printf_common+0xc0>
    5f2a:	401c                	lw	a5,0(s0)
    5f2c:	4611                	li	a2,4
    5f2e:	4098                	lw	a4,0(s1)
    5f30:	8b99                	andi	a5,a5,6
    5f32:	4454                	lw	a3,12(s0)
    5f34:	4481                	li	s1,0
    5f36:	00c79763          	bne	a5,a2,5f44 <_printf_common+0x98>
    5f3a:	40e684b3          	sub	s1,a3,a4
    5f3e:	0004d363          	bgez	s1,5f44 <_printf_common+0x98>
    5f42:	4481                	li	s1,0
    5f44:	441c                	lw	a5,8(s0)
    5f46:	4818                	lw	a4,16(s0)
    5f48:	00f75463          	bge	a4,a5,5f50 <_printf_common+0xa4>
    5f4c:	8f99                	sub	a5,a5,a4
    5f4e:	94be                	add	s1,s1,a5
    5f50:	4901                	li	s2,0
    5f52:	0469                	addi	s0,s0,26
    5f54:	5b7d                	li	s6,-1
    5f56:	05249863          	bne	s1,s2,5fa6 <_printf_common+0xfa>
    5f5a:	4501                	li	a0,0
    5f5c:	a809                	j	5f6e <_printf_common+0xc2>
    5f5e:	4685                	li	a3,1
    5f60:	865a                	mv	a2,s6
    5f62:	85d2                	mv	a1,s4
    5f64:	854e                	mv	a0,s3
    5f66:	9a82                	jalr	s5
    5f68:	01751e63          	bne	a0,s7,5f84 <_printf_common+0xd8>
    5f6c:	557d                	li	a0,-1
    5f6e:	50b2                	lw	ra,44(sp)
    5f70:	5422                	lw	s0,40(sp)
    5f72:	5492                	lw	s1,36(sp)
    5f74:	5902                	lw	s2,32(sp)
    5f76:	49f2                	lw	s3,28(sp)
    5f78:	4a62                	lw	s4,24(sp)
    5f7a:	4ad2                	lw	s5,20(sp)
    5f7c:	4b42                	lw	s6,16(sp)
    5f7e:	4bb2                	lw	s7,12(sp)
    5f80:	6145                	addi	sp,sp,48
    5f82:	8082                	ret
    5f84:	0905                	addi	s2,s2,1
    5f86:	bfad                	j	5f00 <_printf_common+0x54>
    5f88:	00d40733          	add	a4,s0,a3
    5f8c:	03000613          	li	a2,48
    5f90:	04c701a3          	sb	a2,67(a4)
    5f94:	04544703          	lbu	a4,69(s0)
    5f98:	00168793          	addi	a5,a3,1
    5f9c:	97a2                	add	a5,a5,s0
    5f9e:	0689                	addi	a3,a3,2
    5fa0:	04e781a3          	sb	a4,67(a5)
    5fa4:	bf9d                	j	5f1a <_printf_common+0x6e>
    5fa6:	4685                	li	a3,1
    5fa8:	8622                	mv	a2,s0
    5faa:	85d2                	mv	a1,s4
    5fac:	854e                	mv	a0,s3
    5fae:	9a82                	jalr	s5
    5fb0:	fb650ee3          	beq	a0,s6,5f6c <_printf_common+0xc0>
    5fb4:	0905                	addi	s2,s2,1
    5fb6:	b745                	j	5f56 <_printf_common+0xaa>

00005fb8 <_printf_i>:
_printf_i():
    5fb8:	7179                	addi	sp,sp,-48
    5fba:	d422                	sw	s0,40(sp)
    5fbc:	d226                	sw	s1,36(sp)
    5fbe:	d04a                	sw	s2,32(sp)
    5fc0:	ce4e                	sw	s3,28(sp)
    5fc2:	d606                	sw	ra,44(sp)
    5fc4:	cc52                	sw	s4,24(sp)
    5fc6:	ca56                	sw	s5,20(sp)
    5fc8:	c85a                	sw	s6,16(sp)
    5fca:	89b6                	mv	s3,a3
    5fcc:	0185c683          	lbu	a3,24(a1)
    5fd0:	06900793          	li	a5,105
    5fd4:	8932                	mv	s2,a2
    5fd6:	84aa                	mv	s1,a0
    5fd8:	842e                	mv	s0,a1
    5fda:	04358613          	addi	a2,a1,67
    5fde:	02f68d63          	beq	a3,a5,6018 <_printf_i+0x60>
    5fe2:	06d7e263          	bltu	a5,a3,6046 <_printf_i+0x8e>
    5fe6:	05800793          	li	a5,88
    5fea:	18f68963          	beq	a3,a5,617c <_printf_i+0x1c4>
    5fee:	00d7ed63          	bltu	a5,a3,6008 <_printf_i+0x50>
    5ff2:	22068263          	beqz	a3,6216 <_printf_i+0x25e>
    5ff6:	04300793          	li	a5,67
    5ffa:	0af68f63          	beq	a3,a5,60b8 <_printf_i+0x100>
    5ffe:	04240a93          	addi	s5,s0,66
    6002:	04d40123          	sb	a3,66(s0)
    6006:	a0d1                	j	60ca <_printf_i+0x112>
    6008:	06300793          	li	a5,99
    600c:	0af68663          	beq	a3,a5,60b8 <_printf_i+0x100>
    6010:	06400793          	li	a5,100
    6014:	fef695e3          	bne	a3,a5,5ffe <_printf_i+0x46>
    6018:	401c                	lw	a5,0(s0)
    601a:	4308                	lw	a0,0(a4)
    601c:	0807f693          	andi	a3,a5,128
    6020:	00450593          	addi	a1,a0,4
    6024:	c6cd                	beqz	a3,60ce <_printf_i+0x116>
    6026:	411c                	lw	a5,0(a0)
    6028:	c30c                	sw	a1,0(a4)
    602a:	0007d863          	bgez	a5,603a <_printf_i+0x82>
    602e:	02d00713          	li	a4,45
    6032:	40f007b3          	neg	a5,a5
    6036:	04e401a3          	sb	a4,67(s0)
    603a:	00002697          	auipc	a3,0x2
    603e:	c3e68693          	addi	a3,a3,-962 # 7c78 <MyProdInfo+0x150>
    6042:	4729                	li	a4,10
    6044:	a875                	j	6100 <_printf_i+0x148>
    6046:	07000793          	li	a5,112
    604a:	16f68563          	beq	a3,a5,61b4 <_printf_i+0x1fc>
    604e:	02d7e563          	bltu	a5,a3,6078 <_printf_i+0xc0>
    6052:	06e00793          	li	a5,110
    6056:	18f68c63          	beq	a3,a5,61ee <_printf_i+0x236>
    605a:	06f00793          	li	a5,111
    605e:	faf690e3          	bne	a3,a5,5ffe <_printf_i+0x46>
    6062:	400c                	lw	a1,0(s0)
    6064:	431c                	lw	a5,0(a4)
    6066:	0805f813          	andi	a6,a1,128
    606a:	00478513          	addi	a0,a5,4
    606e:	06080863          	beqz	a6,60de <_printf_i+0x126>
    6072:	c308                	sw	a0,0(a4)
    6074:	439c                	lw	a5,0(a5)
    6076:	a895                	j	60ea <_printf_i+0x132>
    6078:	07500793          	li	a5,117
    607c:	fef683e3          	beq	a3,a5,6062 <_printf_i+0xaa>
    6080:	07800793          	li	a5,120
    6084:	12f68c63          	beq	a3,a5,61bc <_printf_i+0x204>
    6088:	07300793          	li	a5,115
    608c:	f6f699e3          	bne	a3,a5,5ffe <_printf_i+0x46>
    6090:	431c                	lw	a5,0(a4)
    6092:	41d0                	lw	a2,4(a1)
    6094:	4581                	li	a1,0
    6096:	00478693          	addi	a3,a5,4
    609a:	c314                	sw	a3,0(a4)
    609c:	0007aa83          	lw	s5,0(a5)
    60a0:	8556                	mv	a0,s5
    60a2:	109000ef          	jal	ra,69aa <memchr>
    60a6:	c501                	beqz	a0,60ae <_printf_i+0xf6>
    60a8:	41550533          	sub	a0,a0,s5
    60ac:	c048                	sw	a0,4(s0)
    60ae:	405c                	lw	a5,4(s0)
    60b0:	c81c                	sw	a5,16(s0)
    60b2:	040401a3          	sb	zero,67(s0)
    60b6:	a871                	j	6152 <_printf_i+0x19a>
    60b8:	431c                	lw	a5,0(a4)
    60ba:	04240a93          	addi	s5,s0,66
    60be:	00478693          	addi	a3,a5,4
    60c2:	439c                	lw	a5,0(a5)
    60c4:	c314                	sw	a3,0(a4)
    60c6:	04f40123          	sb	a5,66(s0)
    60ca:	4785                	li	a5,1
    60cc:	b7d5                	j	60b0 <_printf_i+0xf8>
    60ce:	0407f693          	andi	a3,a5,64
    60d2:	411c                	lw	a5,0(a0)
    60d4:	c30c                	sw	a1,0(a4)
    60d6:	dab1                	beqz	a3,602a <_printf_i+0x72>
    60d8:	07c2                	slli	a5,a5,0x10
    60da:	87c1                	srai	a5,a5,0x10
    60dc:	b7b9                	j	602a <_printf_i+0x72>
    60de:	0405f593          	andi	a1,a1,64
    60e2:	c308                	sw	a0,0(a4)
    60e4:	d9c1                	beqz	a1,6074 <_printf_i+0xbc>
    60e6:	0007d783          	lhu	a5,0(a5)
    60ea:	06f00713          	li	a4,111
    60ee:	0ee68863          	beq	a3,a4,61de <_printf_i+0x226>
    60f2:	00002697          	auipc	a3,0x2
    60f6:	b8668693          	addi	a3,a3,-1146 # 7c78 <MyProdInfo+0x150>
    60fa:	4729                	li	a4,10
    60fc:	040401a3          	sb	zero,67(s0)
    6100:	404c                	lw	a1,4(s0)
    6102:	c40c                	sw	a1,8(s0)
    6104:	0005c563          	bltz	a1,610e <_printf_i+0x156>
    6108:	4008                	lw	a0,0(s0)
    610a:	996d                	andi	a0,a0,-5
    610c:	c008                	sw	a0,0(s0)
    610e:	e399                	bnez	a5,6114 <_printf_i+0x15c>
    6110:	8ab2                	mv	s5,a2
    6112:	cd91                	beqz	a1,612e <_printf_i+0x176>
    6114:	8ab2                	mv	s5,a2
    6116:	02e7f5b3          	remu	a1,a5,a4
    611a:	1afd                	addi	s5,s5,-1
    611c:	95b6                	add	a1,a1,a3
    611e:	0005c583          	lbu	a1,0(a1)
    6122:	00ba8023          	sb	a1,0(s5)
    6126:	02e7d5b3          	divu	a1,a5,a4
    612a:	0ce7f063          	bgeu	a5,a4,61ea <_printf_i+0x232>
    612e:	47a1                	li	a5,8
    6130:	00f71e63          	bne	a4,a5,614c <_printf_i+0x194>
    6134:	401c                	lw	a5,0(s0)
    6136:	8b85                	andi	a5,a5,1
    6138:	cb91                	beqz	a5,614c <_printf_i+0x194>
    613a:	4058                	lw	a4,4(s0)
    613c:	481c                	lw	a5,16(s0)
    613e:	00e7c763          	blt	a5,a4,614c <_printf_i+0x194>
    6142:	03000793          	li	a5,48
    6146:	fefa8fa3          	sb	a5,-1(s5)
    614a:	1afd                	addi	s5,s5,-1
    614c:	41560633          	sub	a2,a2,s5
    6150:	c810                	sw	a2,16(s0)
    6152:	874e                	mv	a4,s3
    6154:	86ca                	mv	a3,s2
    6156:	0070                	addi	a2,sp,12
    6158:	85a2                	mv	a1,s0
    615a:	8526                	mv	a0,s1
    615c:	d51ff0ef          	jal	ra,5eac <_printf_common>
    6160:	5a7d                	li	s4,-1
    6162:	0b451e63          	bne	a0,s4,621e <_printf_i+0x266>
    6166:	557d                	li	a0,-1
    6168:	50b2                	lw	ra,44(sp)
    616a:	5422                	lw	s0,40(sp)
    616c:	5492                	lw	s1,36(sp)
    616e:	5902                	lw	s2,32(sp)
    6170:	49f2                	lw	s3,28(sp)
    6172:	4a62                	lw	s4,24(sp)
    6174:	4ad2                	lw	s5,20(sp)
    6176:	4b42                	lw	s6,16(sp)
    6178:	6145                	addi	sp,sp,48
    617a:	8082                	ret
    617c:	04d582a3          	sb	a3,69(a1)
    6180:	00002697          	auipc	a3,0x2
    6184:	af868693          	addi	a3,a3,-1288 # 7c78 <MyProdInfo+0x150>
    6188:	400c                	lw	a1,0(s0)
    618a:	4308                	lw	a0,0(a4)
    618c:	0805f813          	andi	a6,a1,128
    6190:	411c                	lw	a5,0(a0)
    6192:	0511                	addi	a0,a0,4
    6194:	02080d63          	beqz	a6,61ce <_printf_i+0x216>
    6198:	c308                	sw	a0,0(a4)
    619a:	0015f713          	andi	a4,a1,1
    619e:	c701                	beqz	a4,61a6 <_printf_i+0x1ee>
    61a0:	0205e593          	ori	a1,a1,32
    61a4:	c00c                	sw	a1,0(s0)
    61a6:	4741                	li	a4,16
    61a8:	fbb1                	bnez	a5,60fc <_printf_i+0x144>
    61aa:	400c                	lw	a1,0(s0)
    61ac:	fdf5f593          	andi	a1,a1,-33
    61b0:	c00c                	sw	a1,0(s0)
    61b2:	b7a9                	j	60fc <_printf_i+0x144>
    61b4:	419c                	lw	a5,0(a1)
    61b6:	0207e793          	ori	a5,a5,32
    61ba:	c19c                	sw	a5,0(a1)
    61bc:	07800793          	li	a5,120
    61c0:	04f402a3          	sb	a5,69(s0)
    61c4:	00002697          	auipc	a3,0x2
    61c8:	ac868693          	addi	a3,a3,-1336 # 7c8c <MyProdInfo+0x164>
    61cc:	bf75                	j	6188 <_printf_i+0x1d0>
    61ce:	0405f813          	andi	a6,a1,64
    61d2:	c308                	sw	a0,0(a4)
    61d4:	fc0803e3          	beqz	a6,619a <_printf_i+0x1e2>
    61d8:	07c2                	slli	a5,a5,0x10
    61da:	83c1                	srli	a5,a5,0x10
    61dc:	bf7d                	j	619a <_printf_i+0x1e2>
    61de:	00002697          	auipc	a3,0x2
    61e2:	a9a68693          	addi	a3,a3,-1382 # 7c78 <MyProdInfo+0x150>
    61e6:	4721                	li	a4,8
    61e8:	bf11                	j	60fc <_printf_i+0x144>
    61ea:	87ae                	mv	a5,a1
    61ec:	b72d                	j	6116 <_printf_i+0x15e>
    61ee:	4194                	lw	a3,0(a1)
    61f0:	431c                	lw	a5,0(a4)
    61f2:	49cc                	lw	a1,20(a1)
    61f4:	0806f813          	andi	a6,a3,128
    61f8:	00478513          	addi	a0,a5,4
    61fc:	00080663          	beqz	a6,6208 <_printf_i+0x250>
    6200:	c308                	sw	a0,0(a4)
    6202:	439c                	lw	a5,0(a5)
    6204:	c38c                	sw	a1,0(a5)
    6206:	a801                	j	6216 <_printf_i+0x25e>
    6208:	c308                	sw	a0,0(a4)
    620a:	0406f693          	andi	a3,a3,64
    620e:	439c                	lw	a5,0(a5)
    6210:	daf5                	beqz	a3,6204 <_printf_i+0x24c>
    6212:	00b79023          	sh	a1,0(a5)
    6216:	00042823          	sw	zero,16(s0)
    621a:	8ab2                	mv	s5,a2
    621c:	bf1d                	j	6152 <_printf_i+0x19a>
    621e:	4814                	lw	a3,16(s0)
    6220:	8656                	mv	a2,s5
    6222:	85ca                	mv	a1,s2
    6224:	8526                	mv	a0,s1
    6226:	9982                	jalr	s3
    6228:	f3450fe3          	beq	a0,s4,6166 <_printf_i+0x1ae>
    622c:	401c                	lw	a5,0(s0)
    622e:	8b89                	andi	a5,a5,2
    6230:	e78d                	bnez	a5,625a <_printf_i+0x2a2>
    6232:	47b2                	lw	a5,12(sp)
    6234:	4448                	lw	a0,12(s0)
    6236:	f2f559e3          	bge	a0,a5,6168 <_printf_i+0x1b0>
    623a:	853e                	mv	a0,a5
    623c:	b735                	j	6168 <_printf_i+0x1b0>
    623e:	4685                	li	a3,1
    6240:	8656                	mv	a2,s5
    6242:	85ca                	mv	a1,s2
    6244:	8526                	mv	a0,s1
    6246:	9982                	jalr	s3
    6248:	f1650fe3          	beq	a0,s6,6166 <_printf_i+0x1ae>
    624c:	0a05                	addi	s4,s4,1
    624e:	445c                	lw	a5,12(s0)
    6250:	4732                	lw	a4,12(sp)
    6252:	8f99                	sub	a5,a5,a4
    6254:	fefa45e3          	blt	s4,a5,623e <_printf_i+0x286>
    6258:	bfe9                	j	6232 <_printf_i+0x27a>
    625a:	4a01                	li	s4,0
    625c:	01940a93          	addi	s5,s0,25
    6260:	5b7d                	li	s6,-1
    6262:	b7f5                	j	624e <_printf_i+0x296>

00006264 <sniprintf>:
snprintf():
    6264:	7135                	addi	sp,sp,-160
    6266:	cb3e                	sw	a5,148(sp)
    6268:	daa6                	sw	s1,116(sp)
    626a:	c736                	sw	a3,140(sp)
    626c:	c93a                	sw	a4,144(sp)
    626e:	cd42                	sw	a6,152(sp)
    6270:	cf46                	sw	a7,156(sp)
    6272:	80c18793          	addi	a5,gp,-2036 # 2000007c <_impure_ptr>
    6276:	de86                	sw	ra,124(sp)
    6278:	dca2                	sw	s0,120(sp)
    627a:	4384                	lw	s1,0(a5)
    627c:	0005db63          	bgez	a1,6292 <sniprintf+0x2e>
    6280:	08b00793          	li	a5,139
    6284:	c09c                	sw	a5,0(s1)
    6286:	557d                	li	a0,-1
    6288:	50f6                	lw	ra,124(sp)
    628a:	5466                	lw	s0,120(sp)
    628c:	54d6                	lw	s1,116(sp)
    628e:	610d                	addi	sp,sp,160
    6290:	8082                	ret
    6292:	20800793          	li	a5,520
    6296:	00f11a23          	sh	a5,20(sp)
    629a:	c42a                	sw	a0,8(sp)
    629c:	cc2a                	sw	a0,24(sp)
    629e:	4781                	li	a5,0
    62a0:	c199                	beqz	a1,62a6 <sniprintf+0x42>
    62a2:	fff58793          	addi	a5,a1,-1
    62a6:	c83e                	sw	a5,16(sp)
    62a8:	ce3e                	sw	a5,28(sp)
    62aa:	0174                	addi	a3,sp,140
    62ac:	57fd                	li	a5,-1
    62ae:	842e                	mv	s0,a1
    62b0:	8526                	mv	a0,s1
    62b2:	002c                	addi	a1,sp,8
    62b4:	00f11b23          	sh	a5,22(sp)
    62b8:	c236                	sw	a3,4(sp)
    62ba:	211000ef          	jal	ra,6cca <_svfiprintf_r>
    62be:	57fd                	li	a5,-1
    62c0:	00f55563          	bge	a0,a5,62ca <sniprintf+0x66>
    62c4:	08b00793          	li	a5,139
    62c8:	c09c                	sw	a5,0(s1)
    62ca:	dc5d                	beqz	s0,6288 <sniprintf+0x24>
    62cc:	47a2                	lw	a5,8(sp)
    62ce:	00078023          	sb	zero,0(a5)
    62d2:	bf5d                	j	6288 <sniprintf+0x24>

000062d4 <strncmp>:
strncmp():
    62d4:	c605                	beqz	a2,62fc <strncmp+0x28>
    62d6:	167d                	addi	a2,a2,-1
    62d8:	4701                	li	a4,0
    62da:	00e507b3          	add	a5,a0,a4
    62de:	00e586b3          	add	a3,a1,a4
    62e2:	0007c783          	lbu	a5,0(a5)
    62e6:	0006c683          	lbu	a3,0(a3)
    62ea:	00d79663          	bne	a5,a3,62f6 <strncmp+0x22>
    62ee:	00c70463          	beq	a4,a2,62f6 <strncmp+0x22>
    62f2:	0705                	addi	a4,a4,1
    62f4:	f3fd                	bnez	a5,62da <strncmp+0x6>
    62f6:	40d78533          	sub	a0,a5,a3
    62fa:	8082                	ret
    62fc:	4501                	li	a0,0
    62fe:	8082                	ret

00006300 <__swbuf_r>:
__swbuf_r():
    6300:	1101                	addi	sp,sp,-32
    6302:	cc22                	sw	s0,24(sp)
    6304:	ca26                	sw	s1,20(sp)
    6306:	c84a                	sw	s2,16(sp)
    6308:	ce06                	sw	ra,28(sp)
    630a:	c64e                	sw	s3,12(sp)
    630c:	84aa                	mv	s1,a0
    630e:	892e                	mv	s2,a1
    6310:	8432                	mv	s0,a2
    6312:	c501                	beqz	a0,631a <__swbuf_r+0x1a>
    6314:	4d1c                	lw	a5,24(a0)
    6316:	e391                	bnez	a5,631a <__swbuf_r+0x1a>
    6318:	2105                	jal	6738 <__sinit>
    631a:	00002797          	auipc	a5,0x2
    631e:	9a678793          	addi	a5,a5,-1626 # 7cc0 <__sf_fake_stdin>
    6322:	06f41963          	bne	s0,a5,6394 <__swbuf_r+0x94>
    6326:	40c0                	lw	s0,4(s1)
    6328:	4c1c                	lw	a5,24(s0)
    632a:	c41c                	sw	a5,8(s0)
    632c:	00c45783          	lhu	a5,12(s0)
    6330:	8ba1                	andi	a5,a5,8
    6332:	c3c9                	beqz	a5,63b4 <__swbuf_r+0xb4>
    6334:	481c                	lw	a5,16(s0)
    6336:	cfbd                	beqz	a5,63b4 <__swbuf_r+0xb4>
    6338:	481c                	lw	a5,16(s0)
    633a:	4008                	lw	a0,0(s0)
    633c:	0ff97993          	andi	s3,s2,255
    6340:	0ff97913          	andi	s2,s2,255
    6344:	8d1d                	sub	a0,a0,a5
    6346:	485c                	lw	a5,20(s0)
    6348:	00f54663          	blt	a0,a5,6354 <__swbuf_r+0x54>
    634c:	85a2                	mv	a1,s0
    634e:	8526                	mv	a0,s1
    6350:	24e1                	jal	6618 <_fflush_r>
    6352:	e52d                	bnez	a0,63bc <__swbuf_r+0xbc>
    6354:	441c                	lw	a5,8(s0)
    6356:	0505                	addi	a0,a0,1
    6358:	17fd                	addi	a5,a5,-1
    635a:	c41c                	sw	a5,8(s0)
    635c:	401c                	lw	a5,0(s0)
    635e:	00178713          	addi	a4,a5,1
    6362:	c018                	sw	a4,0(s0)
    6364:	01378023          	sb	s3,0(a5)
    6368:	485c                	lw	a5,20(s0)
    636a:	00a78963          	beq	a5,a0,637c <__swbuf_r+0x7c>
    636e:	00c45783          	lhu	a5,12(s0)
    6372:	8b85                	andi	a5,a5,1
    6374:	cb81                	beqz	a5,6384 <__swbuf_r+0x84>
    6376:	47a9                	li	a5,10
    6378:	00f91663          	bne	s2,a5,6384 <__swbuf_r+0x84>
    637c:	85a2                	mv	a1,s0
    637e:	8526                	mv	a0,s1
    6380:	2c61                	jal	6618 <_fflush_r>
    6382:	ed0d                	bnez	a0,63bc <__swbuf_r+0xbc>
    6384:	40f2                	lw	ra,28(sp)
    6386:	4462                	lw	s0,24(sp)
    6388:	854a                	mv	a0,s2
    638a:	44d2                	lw	s1,20(sp)
    638c:	4942                	lw	s2,16(sp)
    638e:	49b2                	lw	s3,12(sp)
    6390:	6105                	addi	sp,sp,32
    6392:	8082                	ret
    6394:	00002797          	auipc	a5,0x2
    6398:	94c78793          	addi	a5,a5,-1716 # 7ce0 <__sf_fake_stdout>
    639c:	00f41463          	bne	s0,a5,63a4 <__swbuf_r+0xa4>
    63a0:	4480                	lw	s0,8(s1)
    63a2:	b759                	j	6328 <__swbuf_r+0x28>
    63a4:	00002797          	auipc	a5,0x2
    63a8:	8fc78793          	addi	a5,a5,-1796 # 7ca0 <__sf_fake_stderr>
    63ac:	f6f41ee3          	bne	s0,a5,6328 <__swbuf_r+0x28>
    63b0:	44c0                	lw	s0,12(s1)
    63b2:	bf9d                	j	6328 <__swbuf_r+0x28>
    63b4:	85a2                	mv	a1,s0
    63b6:	8526                	mv	a0,s1
    63b8:	2021                	jal	63c0 <__swsetup_r>
    63ba:	dd3d                	beqz	a0,6338 <__swbuf_r+0x38>
    63bc:	597d                	li	s2,-1
    63be:	b7d9                	j	6384 <__swbuf_r+0x84>

000063c0 <__swsetup_r>:
__swsetup_r():
    63c0:	1141                	addi	sp,sp,-16
    63c2:	80c18793          	addi	a5,gp,-2036 # 2000007c <_impure_ptr>
    63c6:	c226                	sw	s1,4(sp)
    63c8:	4384                	lw	s1,0(a5)
    63ca:	c422                	sw	s0,8(sp)
    63cc:	c04a                	sw	s2,0(sp)
    63ce:	c606                	sw	ra,12(sp)
    63d0:	892a                	mv	s2,a0
    63d2:	842e                	mv	s0,a1
    63d4:	c489                	beqz	s1,63de <__swsetup_r+0x1e>
    63d6:	4c9c                	lw	a5,24(s1)
    63d8:	e399                	bnez	a5,63de <__swsetup_r+0x1e>
    63da:	8526                	mv	a0,s1
    63dc:	2eb1                	jal	6738 <__sinit>
    63de:	00002797          	auipc	a5,0x2
    63e2:	8e278793          	addi	a5,a5,-1822 # 7cc0 <__sf_fake_stdin>
    63e6:	02f41c63          	bne	s0,a5,641e <__swsetup_r+0x5e>
    63ea:	40c0                	lw	s0,4(s1)
    63ec:	00c41703          	lh	a4,12(s0)
    63f0:	01071793          	slli	a5,a4,0x10
    63f4:	83c1                	srli	a5,a5,0x10
    63f6:	0087f693          	andi	a3,a5,8
    63fa:	eeb5                	bnez	a3,6476 <__swsetup_r+0xb6>
    63fc:	0107f693          	andi	a3,a5,16
    6400:	ee9d                	bnez	a3,643e <__swsetup_r+0x7e>
    6402:	47a5                	li	a5,9
    6404:	00f92023          	sw	a5,0(s2)
    6408:	04076713          	ori	a4,a4,64
    640c:	00e41623          	sh	a4,12(s0)
    6410:	557d                	li	a0,-1
    6412:	40b2                	lw	ra,12(sp)
    6414:	4422                	lw	s0,8(sp)
    6416:	4492                	lw	s1,4(sp)
    6418:	4902                	lw	s2,0(sp)
    641a:	0141                	addi	sp,sp,16
    641c:	8082                	ret
    641e:	00002797          	auipc	a5,0x2
    6422:	8c278793          	addi	a5,a5,-1854 # 7ce0 <__sf_fake_stdout>
    6426:	00f41463          	bne	s0,a5,642e <__swsetup_r+0x6e>
    642a:	4480                	lw	s0,8(s1)
    642c:	b7c1                	j	63ec <__swsetup_r+0x2c>
    642e:	00002797          	auipc	a5,0x2
    6432:	87278793          	addi	a5,a5,-1934 # 7ca0 <__sf_fake_stderr>
    6436:	faf41be3          	bne	s0,a5,63ec <__swsetup_r+0x2c>
    643a:	44c0                	lw	s0,12(s1)
    643c:	bf45                	j	63ec <__swsetup_r+0x2c>
    643e:	8b91                	andi	a5,a5,4
    6440:	c78d                	beqz	a5,646a <__swsetup_r+0xaa>
    6442:	584c                	lw	a1,52(s0)
    6444:	c989                	beqz	a1,6456 <__swsetup_r+0x96>
    6446:	04440793          	addi	a5,s0,68
    644a:	00f58463          	beq	a1,a5,6452 <__swsetup_r+0x92>
    644e:	854a                	mv	a0,s2
    6450:	2b7d                	jal	6a0e <_free_r>
    6452:	02042a23          	sw	zero,52(s0)
    6456:	00c45783          	lhu	a5,12(s0)
    645a:	00042223          	sw	zero,4(s0)
    645e:	fdb7f793          	andi	a5,a5,-37
    6462:	00f41623          	sh	a5,12(s0)
    6466:	481c                	lw	a5,16(s0)
    6468:	c01c                	sw	a5,0(s0)
    646a:	00c45783          	lhu	a5,12(s0)
    646e:	0087e793          	ori	a5,a5,8
    6472:	00f41623          	sh	a5,12(s0)
    6476:	481c                	lw	a5,16(s0)
    6478:	ef81                	bnez	a5,6490 <__swsetup_r+0xd0>
    647a:	00c45783          	lhu	a5,12(s0)
    647e:	20000713          	li	a4,512
    6482:	2807f793          	andi	a5,a5,640
    6486:	00e78563          	beq	a5,a4,6490 <__swsetup_r+0xd0>
    648a:	85a2                	mv	a1,s0
    648c:	854a                	mv	a0,s2
    648e:	29b5                	jal	690a <__smakebuf_r>
    6490:	00c45783          	lhu	a5,12(s0)
    6494:	0017f713          	andi	a4,a5,1
    6498:	c705                	beqz	a4,64c0 <__swsetup_r+0x100>
    649a:	485c                	lw	a5,20(s0)
    649c:	00042423          	sw	zero,8(s0)
    64a0:	40f007b3          	neg	a5,a5
    64a4:	cc1c                	sw	a5,24(s0)
    64a6:	481c                	lw	a5,16(s0)
    64a8:	4501                	li	a0,0
    64aa:	f7a5                	bnez	a5,6412 <__swsetup_r+0x52>
    64ac:	00c41783          	lh	a5,12(s0)
    64b0:	0807f713          	andi	a4,a5,128
    64b4:	df39                	beqz	a4,6412 <__swsetup_r+0x52>
    64b6:	0407e793          	ori	a5,a5,64
    64ba:	00f41623          	sh	a5,12(s0)
    64be:	bf89                	j	6410 <__swsetup_r+0x50>
    64c0:	8b89                	andi	a5,a5,2
    64c2:	4701                	li	a4,0
    64c4:	e391                	bnez	a5,64c8 <__swsetup_r+0x108>
    64c6:	4858                	lw	a4,20(s0)
    64c8:	c418                	sw	a4,8(s0)
    64ca:	bff1                	j	64a6 <__swsetup_r+0xe6>

000064cc <abort>:
abort():
    64cc:	1141                	addi	sp,sp,-16
    64ce:	4519                	li	a0,6
    64d0:	c606                	sw	ra,12(sp)
    64d2:	305000ef          	jal	ra,6fd6 <raise>
    64d6:	4505                	li	a0,1
    64d8:	57d000ef          	jal	ra,7254 <_exit>

000064dc <__sflush_r>:
__sflush_r():
    64dc:	00c5d783          	lhu	a5,12(a1)
    64e0:	1101                	addi	sp,sp,-32
    64e2:	cc22                	sw	s0,24(sp)
    64e4:	ca26                	sw	s1,20(sp)
    64e6:	ce06                	sw	ra,28(sp)
    64e8:	c84a                	sw	s2,16(sp)
    64ea:	c64e                	sw	s3,12(sp)
    64ec:	0087f713          	andi	a4,a5,8
    64f0:	84aa                	mv	s1,a0
    64f2:	842e                	mv	s0,a1
    64f4:	ef71                	bnez	a4,65d0 <__sflush_r+0xf4>
    64f6:	41d8                	lw	a4,4(a1)
    64f8:	00e04d63          	bgtz	a4,6512 <__sflush_r+0x36>
    64fc:	41b8                	lw	a4,64(a1)
    64fe:	00e04a63          	bgtz	a4,6512 <__sflush_r+0x36>
    6502:	4501                	li	a0,0
    6504:	40f2                	lw	ra,28(sp)
    6506:	4462                	lw	s0,24(sp)
    6508:	44d2                	lw	s1,20(sp)
    650a:	4942                	lw	s2,16(sp)
    650c:	49b2                	lw	s3,12(sp)
    650e:	6105                	addi	sp,sp,32
    6510:	8082                	ret
    6512:	5458                	lw	a4,44(s0)
    6514:	d77d                	beqz	a4,6502 <__sflush_r+0x26>
    6516:	0004a903          	lw	s2,0(s1)
    651a:	01379693          	slli	a3,a5,0x13
    651e:	0004a023          	sw	zero,0(s1)
    6522:	0606dd63          	bgez	a3,659c <__sflush_r+0xc0>
    6526:	4870                	lw	a2,84(s0)
    6528:	00c45783          	lhu	a5,12(s0)
    652c:	8b91                	andi	a5,a5,4
    652e:	c799                	beqz	a5,653c <__sflush_r+0x60>
    6530:	405c                	lw	a5,4(s0)
    6532:	8e1d                	sub	a2,a2,a5
    6534:	585c                	lw	a5,52(s0)
    6536:	c399                	beqz	a5,653c <__sflush_r+0x60>
    6538:	403c                	lw	a5,64(s0)
    653a:	8e1d                	sub	a2,a2,a5
    653c:	545c                	lw	a5,44(s0)
    653e:	500c                	lw	a1,32(s0)
    6540:	4681                	li	a3,0
    6542:	8526                	mv	a0,s1
    6544:	9782                	jalr	a5
    6546:	57fd                	li	a5,-1
    6548:	00c45703          	lhu	a4,12(s0)
    654c:	00f51d63          	bne	a0,a5,6566 <__sflush_r+0x8a>
    6550:	4094                	lw	a3,0(s1)
    6552:	47f5                	li	a5,29
    6554:	06d7e863          	bltu	a5,a3,65c4 <__sflush_r+0xe8>
    6558:	204007b7          	lui	a5,0x20400
    655c:	0785                	addi	a5,a5,1
    655e:	00d7d7b3          	srl	a5,a5,a3
    6562:	8b85                	andi	a5,a5,1
    6564:	c3a5                	beqz	a5,65c4 <__sflush_r+0xe8>
    6566:	481c                	lw	a5,16(s0)
    6568:	00042223          	sw	zero,4(s0)
    656c:	c01c                	sw	a5,0(s0)
    656e:	01371793          	slli	a5,a4,0x13
    6572:	0007d863          	bgez	a5,6582 <__sflush_r+0xa6>
    6576:	57fd                	li	a5,-1
    6578:	00f51463          	bne	a0,a5,6580 <__sflush_r+0xa4>
    657c:	409c                	lw	a5,0(s1)
    657e:	e391                	bnez	a5,6582 <__sflush_r+0xa6>
    6580:	c868                	sw	a0,84(s0)
    6582:	584c                	lw	a1,52(s0)
    6584:	0124a023          	sw	s2,0(s1)
    6588:	ddad                	beqz	a1,6502 <__sflush_r+0x26>
    658a:	04440793          	addi	a5,s0,68
    658e:	00f58463          	beq	a1,a5,6596 <__sflush_r+0xba>
    6592:	8526                	mv	a0,s1
    6594:	29ad                	jal	6a0e <_free_r>
    6596:	02042a23          	sw	zero,52(s0)
    659a:	b7a5                	j	6502 <__sflush_r+0x26>
    659c:	500c                	lw	a1,32(s0)
    659e:	4601                	li	a2,0
    65a0:	4685                	li	a3,1
    65a2:	8526                	mv	a0,s1
    65a4:	9702                	jalr	a4
    65a6:	57fd                	li	a5,-1
    65a8:	862a                	mv	a2,a0
    65aa:	f6f51fe3          	bne	a0,a5,6528 <__sflush_r+0x4c>
    65ae:	409c                	lw	a5,0(s1)
    65b0:	dfa5                	beqz	a5,6528 <__sflush_r+0x4c>
    65b2:	4775                	li	a4,29
    65b4:	00e78563          	beq	a5,a4,65be <__sflush_r+0xe2>
    65b8:	4759                	li	a4,22
    65ba:	04e79463          	bne	a5,a4,6602 <__sflush_r+0x126>
    65be:	0124a023          	sw	s2,0(s1)
    65c2:	b781                	j	6502 <__sflush_r+0x26>
    65c4:	04076713          	ori	a4,a4,64
    65c8:	00e41623          	sh	a4,12(s0)
    65cc:	557d                	li	a0,-1
    65ce:	bf1d                	j	6504 <__sflush_r+0x28>
    65d0:	0105a983          	lw	s3,16(a1)
    65d4:	f20987e3          	beqz	s3,6502 <__sflush_r+0x26>
    65d8:	0005a903          	lw	s2,0(a1)
    65dc:	8b8d                	andi	a5,a5,3
    65de:	0135a023          	sw	s3,0(a1)
    65e2:	41390933          	sub	s2,s2,s3
    65e6:	4701                	li	a4,0
    65e8:	e391                	bnez	a5,65ec <__sflush_r+0x110>
    65ea:	49d8                	lw	a4,20(a1)
    65ec:	c418                	sw	a4,8(s0)
    65ee:	f1205ae3          	blez	s2,6502 <__sflush_r+0x26>
    65f2:	541c                	lw	a5,40(s0)
    65f4:	500c                	lw	a1,32(s0)
    65f6:	86ca                	mv	a3,s2
    65f8:	864e                	mv	a2,s3
    65fa:	8526                	mv	a0,s1
    65fc:	9782                	jalr	a5
    65fe:	00a04963          	bgtz	a0,6610 <__sflush_r+0x134>
    6602:	00c45783          	lhu	a5,12(s0)
    6606:	0407e793          	ori	a5,a5,64
    660a:	00f41623          	sh	a5,12(s0)
    660e:	bf7d                	j	65cc <__sflush_r+0xf0>
    6610:	99aa                	add	s3,s3,a0
    6612:	40a90933          	sub	s2,s2,a0
    6616:	bfe1                	j	65ee <__sflush_r+0x112>

00006618 <_fflush_r>:
_fflush_r():
    6618:	499c                	lw	a5,16(a1)
    661a:	c3a5                	beqz	a5,667a <_fflush_r+0x62>
    661c:	1101                	addi	sp,sp,-32
    661e:	cc22                	sw	s0,24(sp)
    6620:	ce06                	sw	ra,28(sp)
    6622:	842a                	mv	s0,a0
    6624:	c511                	beqz	a0,6630 <_fflush_r+0x18>
    6626:	4d1c                	lw	a5,24(a0)
    6628:	e781                	bnez	a5,6630 <_fflush_r+0x18>
    662a:	c62e                	sw	a1,12(sp)
    662c:	2231                	jal	6738 <__sinit>
    662e:	45b2                	lw	a1,12(sp)
    6630:	00001797          	auipc	a5,0x1
    6634:	69078793          	addi	a5,a5,1680 # 7cc0 <__sf_fake_stdin>
    6638:	00f59c63          	bne	a1,a5,6650 <_fflush_r+0x38>
    663c:	404c                	lw	a1,4(s0)
    663e:	00c59783          	lh	a5,12(a1)
    6642:	c79d                	beqz	a5,6670 <_fflush_r+0x58>
    6644:	8522                	mv	a0,s0
    6646:	4462                	lw	s0,24(sp)
    6648:	40f2                	lw	ra,28(sp)
    664a:	6105                	addi	sp,sp,32
    664c:	e91ff06f          	j	64dc <__sflush_r>
    6650:	00001797          	auipc	a5,0x1
    6654:	69078793          	addi	a5,a5,1680 # 7ce0 <__sf_fake_stdout>
    6658:	00f59463          	bne	a1,a5,6660 <_fflush_r+0x48>
    665c:	440c                	lw	a1,8(s0)
    665e:	b7c5                	j	663e <_fflush_r+0x26>
    6660:	00001797          	auipc	a5,0x1
    6664:	64078793          	addi	a5,a5,1600 # 7ca0 <__sf_fake_stderr>
    6668:	fcf59be3          	bne	a1,a5,663e <_fflush_r+0x26>
    666c:	444c                	lw	a1,12(s0)
    666e:	bfc1                	j	663e <_fflush_r+0x26>
    6670:	40f2                	lw	ra,28(sp)
    6672:	4462                	lw	s0,24(sp)
    6674:	4501                	li	a0,0
    6676:	6105                	addi	sp,sp,32
    6678:	8082                	ret
    667a:	4501                	li	a0,0
    667c:	8082                	ret

0000667e <std>:
std():
    667e:	1141                	addi	sp,sp,-16
    6680:	c422                	sw	s0,8(sp)
    6682:	c606                	sw	ra,12(sp)
    6684:	842a                	mv	s0,a0
    6686:	00b51623          	sh	a1,12(a0)
    668a:	00c51723          	sh	a2,14(a0)
    668e:	00052023          	sw	zero,0(a0)
    6692:	00052223          	sw	zero,4(a0)
    6696:	00052423          	sw	zero,8(a0)
    669a:	06052223          	sw	zero,100(a0)
    669e:	00052823          	sw	zero,16(a0)
    66a2:	00052a23          	sw	zero,20(a0)
    66a6:	00052c23          	sw	zero,24(a0)
    66aa:	4621                	li	a2,8
    66ac:	4581                	li	a1,0
    66ae:	05c50513          	addi	a0,a0,92
    66b2:	a9bf90ef          	jal	ra,14c <memset>
    66b6:	00001797          	auipc	a5,0x1
    66ba:	95878793          	addi	a5,a5,-1704 # 700e <__sread>
    66be:	d05c                	sw	a5,36(s0)
    66c0:	00001797          	auipc	a5,0x1
    66c4:	97e78793          	addi	a5,a5,-1666 # 703e <__swrite>
    66c8:	d41c                	sw	a5,40(s0)
    66ca:	00001797          	auipc	a5,0x1
    66ce:	9c278793          	addi	a5,a5,-1598 # 708c <__sseek>
    66d2:	d45c                	sw	a5,44(s0)
    66d4:	00001797          	auipc	a5,0x1
    66d8:	9ee78793          	addi	a5,a5,-1554 # 70c2 <__sclose>
    66dc:	d000                	sw	s0,32(s0)
    66de:	d81c                	sw	a5,48(s0)
    66e0:	40b2                	lw	ra,12(sp)
    66e2:	4422                	lw	s0,8(sp)
    66e4:	0141                	addi	sp,sp,16
    66e6:	8082                	ret

000066e8 <_cleanup_r>:
_cleanup_r():
    66e8:	00000597          	auipc	a1,0x0
    66ec:	f3058593          	addi	a1,a1,-208 # 6618 <_fflush_r>
    66f0:	aa91                	j	6844 <_fwalk_reent>

000066f2 <__sfmoreglue>:
__sfmoreglue():
    66f2:	1141                	addi	sp,sp,-16
    66f4:	c226                	sw	s1,4(sp)
    66f6:	06800613          	li	a2,104
    66fa:	fff58493          	addi	s1,a1,-1
    66fe:	02c484b3          	mul	s1,s1,a2
    6702:	c04a                	sw	s2,0(sp)
    6704:	892e                	mv	s2,a1
    6706:	c422                	sw	s0,8(sp)
    6708:	c606                	sw	ra,12(sp)
    670a:	07448593          	addi	a1,s1,116
    670e:	2665                	jal	6ab6 <_malloc_r>
    6710:	842a                	mv	s0,a0
    6712:	cd01                	beqz	a0,672a <__sfmoreglue+0x38>
    6714:	00052023          	sw	zero,0(a0)
    6718:	01252223          	sw	s2,4(a0)
    671c:	0531                	addi	a0,a0,12
    671e:	c408                	sw	a0,8(s0)
    6720:	06848613          	addi	a2,s1,104
    6724:	4581                	li	a1,0
    6726:	a27f90ef          	jal	ra,14c <memset>
    672a:	8522                	mv	a0,s0
    672c:	40b2                	lw	ra,12(sp)
    672e:	4422                	lw	s0,8(sp)
    6730:	4492                	lw	s1,4(sp)
    6732:	4902                	lw	s2,0(sp)
    6734:	0141                	addi	sp,sp,16
    6736:	8082                	ret

00006738 <__sinit>:
__sinit():
    6738:	4d1c                	lw	a5,24(a0)
    673a:	e7a5                	bnez	a5,67a2 <__sinit+0x6a>
    673c:	1141                	addi	sp,sp,-16
    673e:	c606                	sw	ra,12(sp)
    6740:	c422                	sw	s0,8(sp)
    6742:	00000797          	auipc	a5,0x0
    6746:	fa678793          	addi	a5,a5,-90 # 66e8 <_cleanup_r>
    674a:	d51c                	sw	a5,40(a0)
    674c:	81c18793          	addi	a5,gp,-2020 # 2000008c <_global_impure_ptr>
    6750:	439c                	lw	a5,0(a5)
    6752:	04052423          	sw	zero,72(a0)
    6756:	04052623          	sw	zero,76(a0)
    675a:	04052823          	sw	zero,80(a0)
    675e:	00f51463          	bne	a0,a5,6766 <__sinit+0x2e>
    6762:	4785                	li	a5,1
    6764:	cd1c                	sw	a5,24(a0)
    6766:	842a                	mv	s0,a0
    6768:	2835                	jal	67a4 <__sfp>
    676a:	c048                	sw	a0,4(s0)
    676c:	8522                	mv	a0,s0
    676e:	281d                	jal	67a4 <__sfp>
    6770:	c408                	sw	a0,8(s0)
    6772:	8522                	mv	a0,s0
    6774:	2805                	jal	67a4 <__sfp>
    6776:	c448                	sw	a0,12(s0)
    6778:	4048                	lw	a0,4(s0)
    677a:	4601                	li	a2,0
    677c:	4591                	li	a1,4
    677e:	f01ff0ef          	jal	ra,667e <std>
    6782:	4408                	lw	a0,8(s0)
    6784:	4605                	li	a2,1
    6786:	45a5                	li	a1,9
    6788:	ef7ff0ef          	jal	ra,667e <std>
    678c:	4448                	lw	a0,12(s0)
    678e:	4609                	li	a2,2
    6790:	45c9                	li	a1,18
    6792:	eedff0ef          	jal	ra,667e <std>
    6796:	4785                	li	a5,1
    6798:	cc1c                	sw	a5,24(s0)
    679a:	40b2                	lw	ra,12(sp)
    679c:	4422                	lw	s0,8(sp)
    679e:	0141                	addi	sp,sp,16
    67a0:	8082                	ret
    67a2:	8082                	ret

000067a4 <__sfp>:
__sfp():
    67a4:	1141                	addi	sp,sp,-16
    67a6:	81c18793          	addi	a5,gp,-2020 # 2000008c <_global_impure_ptr>
    67aa:	c226                	sw	s1,4(sp)
    67ac:	4384                	lw	s1,0(a5)
    67ae:	c04a                	sw	s2,0(sp)
    67b0:	c606                	sw	ra,12(sp)
    67b2:	4c9c                	lw	a5,24(s1)
    67b4:	c422                	sw	s0,8(sp)
    67b6:	892a                	mv	s2,a0
    67b8:	e781                	bnez	a5,67c0 <__sfp+0x1c>
    67ba:	8526                	mv	a0,s1
    67bc:	f7dff0ef          	jal	ra,6738 <__sinit>
    67c0:	04848493          	addi	s1,s1,72
    67c4:	4480                	lw	s0,8(s1)
    67c6:	40dc                	lw	a5,4(s1)
    67c8:	17fd                	addi	a5,a5,-1
    67ca:	0007d663          	bgez	a5,67d6 <__sfp+0x32>
    67ce:	409c                	lw	a5,0(s1)
    67d0:	cfb9                	beqz	a5,682e <__sfp+0x8a>
    67d2:	4084                	lw	s1,0(s1)
    67d4:	bfc5                	j	67c4 <__sfp+0x20>
    67d6:	00c41703          	lh	a4,12(s0)
    67da:	e739                	bnez	a4,6828 <__sfp+0x84>
    67dc:	77c1                	lui	a5,0xffff0
    67de:	0785                	addi	a5,a5,1
    67e0:	06042223          	sw	zero,100(s0)
    67e4:	00042023          	sw	zero,0(s0)
    67e8:	00042223          	sw	zero,4(s0)
    67ec:	00042423          	sw	zero,8(s0)
    67f0:	c45c                	sw	a5,12(s0)
    67f2:	00042823          	sw	zero,16(s0)
    67f6:	00042a23          	sw	zero,20(s0)
    67fa:	00042c23          	sw	zero,24(s0)
    67fe:	4621                	li	a2,8
    6800:	4581                	li	a1,0
    6802:	05c40513          	addi	a0,s0,92
    6806:	947f90ef          	jal	ra,14c <memset>
    680a:	02042a23          	sw	zero,52(s0)
    680e:	02042c23          	sw	zero,56(s0)
    6812:	04042423          	sw	zero,72(s0)
    6816:	04042623          	sw	zero,76(s0)
    681a:	8522                	mv	a0,s0
    681c:	40b2                	lw	ra,12(sp)
    681e:	4422                	lw	s0,8(sp)
    6820:	4492                	lw	s1,4(sp)
    6822:	4902                	lw	s2,0(sp)
    6824:	0141                	addi	sp,sp,16
    6826:	8082                	ret
    6828:	06840413          	addi	s0,s0,104
    682c:	bf71                	j	67c8 <__sfp+0x24>
    682e:	4591                	li	a1,4
    6830:	854a                	mv	a0,s2
    6832:	ec1ff0ef          	jal	ra,66f2 <__sfmoreglue>
    6836:	c088                	sw	a0,0(s1)
    6838:	fd49                	bnez	a0,67d2 <__sfp+0x2e>
    683a:	47b1                	li	a5,12
    683c:	00f92023          	sw	a5,0(s2)
    6840:	4401                	li	s0,0
    6842:	bfe1                	j	681a <__sfp+0x76>

00006844 <_fwalk_reent>:
_fwalk_reent():
    6844:	7179                	addi	sp,sp,-48
    6846:	d422                	sw	s0,40(sp)
    6848:	d04a                	sw	s2,32(sp)
    684a:	cc52                	sw	s4,24(sp)
    684c:	ca56                	sw	s5,20(sp)
    684e:	c85a                	sw	s6,16(sp)
    6850:	c65e                	sw	s7,12(sp)
    6852:	d606                	sw	ra,44(sp)
    6854:	d226                	sw	s1,36(sp)
    6856:	ce4e                	sw	s3,28(sp)
    6858:	8a2a                	mv	s4,a0
    685a:	8aae                	mv	s5,a1
    685c:	04850413          	addi	s0,a0,72
    6860:	4901                	li	s2,0
    6862:	4b05                	li	s6,1
    6864:	5bfd                	li	s7,-1
    6866:	ec09                	bnez	s0,6880 <_fwalk_reent+0x3c>
    6868:	50b2                	lw	ra,44(sp)
    686a:	5422                	lw	s0,40(sp)
    686c:	854a                	mv	a0,s2
    686e:	5492                	lw	s1,36(sp)
    6870:	5902                	lw	s2,32(sp)
    6872:	49f2                	lw	s3,28(sp)
    6874:	4a62                	lw	s4,24(sp)
    6876:	4ad2                	lw	s5,20(sp)
    6878:	4b42                	lw	s6,16(sp)
    687a:	4bb2                	lw	s7,12(sp)
    687c:	6145                	addi	sp,sp,48
    687e:	8082                	ret
    6880:	4404                	lw	s1,8(s0)
    6882:	00442983          	lw	s3,4(s0)
    6886:	19fd                	addi	s3,s3,-1
    6888:	0009d463          	bgez	s3,6890 <_fwalk_reent+0x4c>
    688c:	4000                	lw	s0,0(s0)
    688e:	bfe1                	j	6866 <_fwalk_reent+0x22>
    6890:	00c4d783          	lhu	a5,12(s1)
    6894:	00fb7b63          	bgeu	s6,a5,68aa <_fwalk_reent+0x66>
    6898:	00e49783          	lh	a5,14(s1)
    689c:	01778763          	beq	a5,s7,68aa <_fwalk_reent+0x66>
    68a0:	85a6                	mv	a1,s1
    68a2:	8552                	mv	a0,s4
    68a4:	9a82                	jalr	s5
    68a6:	00a96933          	or	s2,s2,a0
    68aa:	06848493          	addi	s1,s1,104
    68ae:	bfe1                	j	6886 <_fwalk_reent+0x42>

000068b0 <__swhatbuf_r>:
__swhatbuf_r():
    68b0:	7119                	addi	sp,sp,-128
    68b2:	daa6                	sw	s1,116(sp)
    68b4:	84ae                	mv	s1,a1
    68b6:	00e59583          	lh	a1,14(a1)
    68ba:	dca2                	sw	s0,120(sp)
    68bc:	de86                	sw	ra,124(sp)
    68be:	8432                	mv	s0,a2
    68c0:	0005dc63          	bgez	a1,68d8 <__swhatbuf_r+0x28>
    68c4:	00c4d783          	lhu	a5,12(s1)
    68c8:	0006a023          	sw	zero,0(a3)
    68cc:	0807f793          	andi	a5,a5,128
    68d0:	e785                	bnez	a5,68f8 <__swhatbuf_r+0x48>
    68d2:	40000793          	li	a5,1024
    68d6:	a01d                	j	68fc <__swhatbuf_r+0x4c>
    68d8:	0830                	addi	a2,sp,24
    68da:	c636                	sw	a3,12(sp)
    68dc:	043000ef          	jal	ra,711e <_fstat_r>
    68e0:	46b2                	lw	a3,12(sp)
    68e2:	fe0541e3          	bltz	a0,68c4 <__swhatbuf_r+0x14>
    68e6:	4772                	lw	a4,28(sp)
    68e8:	67bd                	lui	a5,0xf
    68ea:	8ff9                	and	a5,a5,a4
    68ec:	7779                	lui	a4,0xffffe
    68ee:	97ba                	add	a5,a5,a4
    68f0:	0017b793          	seqz	a5,a5
    68f4:	c29c                	sw	a5,0(a3)
    68f6:	bff1                	j	68d2 <__swhatbuf_r+0x22>
    68f8:	04000793          	li	a5,64
    68fc:	c01c                	sw	a5,0(s0)
    68fe:	50f6                	lw	ra,124(sp)
    6900:	5466                	lw	s0,120(sp)
    6902:	54d6                	lw	s1,116(sp)
    6904:	4501                	li	a0,0
    6906:	6109                	addi	sp,sp,128
    6908:	8082                	ret

0000690a <__smakebuf_r>:
__smakebuf_r():
    690a:	00c5d783          	lhu	a5,12(a1)
    690e:	1101                	addi	sp,sp,-32
    6910:	cc22                	sw	s0,24(sp)
    6912:	ce06                	sw	ra,28(sp)
    6914:	ca26                	sw	s1,20(sp)
    6916:	c84a                	sw	s2,16(sp)
    6918:	8b89                	andi	a5,a5,2
    691a:	842e                	mv	s0,a1
    691c:	cf89                	beqz	a5,6936 <__smakebuf_r+0x2c>
    691e:	04740793          	addi	a5,s0,71
    6922:	c01c                	sw	a5,0(s0)
    6924:	c81c                	sw	a5,16(s0)
    6926:	4785                	li	a5,1
    6928:	c85c                	sw	a5,20(s0)
    692a:	40f2                	lw	ra,28(sp)
    692c:	4462                	lw	s0,24(sp)
    692e:	44d2                	lw	s1,20(sp)
    6930:	4942                	lw	s2,16(sp)
    6932:	6105                	addi	sp,sp,32
    6934:	8082                	ret
    6936:	0074                	addi	a3,sp,12
    6938:	0030                	addi	a2,sp,8
    693a:	84aa                	mv	s1,a0
    693c:	f75ff0ef          	jal	ra,68b0 <__swhatbuf_r>
    6940:	45a2                	lw	a1,8(sp)
    6942:	892a                	mv	s2,a0
    6944:	8526                	mv	a0,s1
    6946:	2a85                	jal	6ab6 <_malloc_r>
    6948:	ed01                	bnez	a0,6960 <__smakebuf_r+0x56>
    694a:	00c41783          	lh	a5,12(s0)
    694e:	2007f713          	andi	a4,a5,512
    6952:	ff61                	bnez	a4,692a <__smakebuf_r+0x20>
    6954:	9bf1                	andi	a5,a5,-4
    6956:	0027e793          	ori	a5,a5,2
    695a:	00f41623          	sh	a5,12(s0)
    695e:	b7c1                	j	691e <__smakebuf_r+0x14>
    6960:	00000797          	auipc	a5,0x0
    6964:	d8878793          	addi	a5,a5,-632 # 66e8 <_cleanup_r>
    6968:	d49c                	sw	a5,40(s1)
    696a:	00c45783          	lhu	a5,12(s0)
    696e:	c008                	sw	a0,0(s0)
    6970:	c808                	sw	a0,16(s0)
    6972:	0807e793          	ori	a5,a5,128
    6976:	00f41623          	sh	a5,12(s0)
    697a:	47a2                	lw	a5,8(sp)
    697c:	c85c                	sw	a5,20(s0)
    697e:	47b2                	lw	a5,12(sp)
    6980:	cf91                	beqz	a5,699c <__smakebuf_r+0x92>
    6982:	00e41583          	lh	a1,14(s0)
    6986:	8526                	mv	a0,s1
    6988:	7c0000ef          	jal	ra,7148 <_isatty_r>
    698c:	c901                	beqz	a0,699c <__smakebuf_r+0x92>
    698e:	00c45783          	lhu	a5,12(s0)
    6992:	9bf1                	andi	a5,a5,-4
    6994:	0017e793          	ori	a5,a5,1
    6998:	00f41623          	sh	a5,12(s0)
    699c:	00c45783          	lhu	a5,12(s0)
    69a0:	00f96933          	or	s2,s2,a5
    69a4:	01241623          	sh	s2,12(s0)
    69a8:	b749                	j	692a <__smakebuf_r+0x20>

000069aa <memchr>:
memchr():
    69aa:	0ff5f593          	andi	a1,a1,255
    69ae:	962a                	add	a2,a2,a0
    69b0:	00c51463          	bne	a0,a2,69b8 <memchr+0xe>
    69b4:	4501                	li	a0,0
    69b6:	8082                	ret
    69b8:	00054783          	lbu	a5,0(a0)
    69bc:	feb78de3          	beq	a5,a1,69b6 <memchr+0xc>
    69c0:	0505                	addi	a0,a0,1
    69c2:	b7fd                	j	69b0 <memchr+0x6>

000069c4 <memmove>:
memmove():
    69c4:	04a5f363          	bgeu	a1,a0,6a0a <memmove+0x46>
    69c8:	00c586b3          	add	a3,a1,a2
    69cc:	02d57f63          	bgeu	a0,a3,6a0a <memmove+0x46>
    69d0:	fff64593          	not	a1,a2
    69d4:	4781                	li	a5,0
    69d6:	17fd                	addi	a5,a5,-1
    69d8:	00f59363          	bne	a1,a5,69de <memmove+0x1a>
    69dc:	8082                	ret
    69de:	00f68733          	add	a4,a3,a5
    69e2:	00074803          	lbu	a6,0(a4) # ffffe000 <_eusrstack+0xdfff9000>
    69e6:	00c78733          	add	a4,a5,a2
    69ea:	972a                	add	a4,a4,a0
    69ec:	01070023          	sb	a6,0(a4)
    69f0:	b7dd                	j	69d6 <memmove+0x12>
    69f2:	00f58733          	add	a4,a1,a5
    69f6:	00074683          	lbu	a3,0(a4)
    69fa:	00f50733          	add	a4,a0,a5
    69fe:	0785                	addi	a5,a5,1
    6a00:	00d70023          	sb	a3,0(a4)
    6a04:	fef617e3          	bne	a2,a5,69f2 <memmove+0x2e>
    6a08:	8082                	ret
    6a0a:	4781                	li	a5,0
    6a0c:	bfe5                	j	6a04 <memmove+0x40>

00006a0e <_free_r>:
_free_r():
    6a0e:	c1dd                	beqz	a1,6ab4 <_free_r+0xa6>
    6a10:	ffc5a783          	lw	a5,-4(a1)
    6a14:	1141                	addi	sp,sp,-16
    6a16:	c422                	sw	s0,8(sp)
    6a18:	c606                	sw	ra,12(sp)
    6a1a:	c226                	sw	s1,4(sp)
    6a1c:	ffc58413          	addi	s0,a1,-4
    6a20:	0007d363          	bgez	a5,6a26 <_free_r+0x18>
    6a24:	943e                	add	s0,s0,a5
    6a26:	84aa                	mv	s1,a0
    6a28:	774000ef          	jal	ra,719c <__malloc_lock>
    6a2c:	86c18793          	addi	a5,gp,-1940 # 200000dc <__malloc_free_list>
    6a30:	439c                	lw	a5,0(a5)
    6a32:	ef81                	bnez	a5,6a4a <_free_r+0x3c>
    6a34:	00042223          	sw	zero,4(s0)
    6a38:	8681a623          	sw	s0,-1940(gp) # 200000dc <__malloc_free_list>
    6a3c:	4422                	lw	s0,8(sp)
    6a3e:	40b2                	lw	ra,12(sp)
    6a40:	8526                	mv	a0,s1
    6a42:	4492                	lw	s1,4(sp)
    6a44:	0141                	addi	sp,sp,16
    6a46:	7580006f          	j	719e <__malloc_unlock>
    6a4a:	00f47e63          	bgeu	s0,a5,6a66 <_free_r+0x58>
    6a4e:	4014                	lw	a3,0(s0)
    6a50:	00d40733          	add	a4,s0,a3
    6a54:	00e79663          	bne	a5,a4,6a60 <_free_r+0x52>
    6a58:	4398                	lw	a4,0(a5)
    6a5a:	43dc                	lw	a5,4(a5)
    6a5c:	9736                	add	a4,a4,a3
    6a5e:	c018                	sw	a4,0(s0)
    6a60:	c05c                	sw	a5,4(s0)
    6a62:	bfd9                	j	6a38 <_free_r+0x2a>
    6a64:	87ba                	mv	a5,a4
    6a66:	43d8                	lw	a4,4(a5)
    6a68:	c319                	beqz	a4,6a6e <_free_r+0x60>
    6a6a:	fee47de3          	bgeu	s0,a4,6a64 <_free_r+0x56>
    6a6e:	4394                	lw	a3,0(a5)
    6a70:	00d78633          	add	a2,a5,a3
    6a74:	00861f63          	bne	a2,s0,6a92 <_free_r+0x84>
    6a78:	4010                	lw	a2,0(s0)
    6a7a:	96b2                	add	a3,a3,a2
    6a7c:	c394                	sw	a3,0(a5)
    6a7e:	00d78633          	add	a2,a5,a3
    6a82:	fac71de3          	bne	a4,a2,6a3c <_free_r+0x2e>
    6a86:	4310                	lw	a2,0(a4)
    6a88:	4358                	lw	a4,4(a4)
    6a8a:	96b2                	add	a3,a3,a2
    6a8c:	c394                	sw	a3,0(a5)
    6a8e:	c3d8                	sw	a4,4(a5)
    6a90:	b775                	j	6a3c <_free_r+0x2e>
    6a92:	00c47563          	bgeu	s0,a2,6a9c <_free_r+0x8e>
    6a96:	47b1                	li	a5,12
    6a98:	c09c                	sw	a5,0(s1)
    6a9a:	b74d                	j	6a3c <_free_r+0x2e>
    6a9c:	4010                	lw	a2,0(s0)
    6a9e:	00c406b3          	add	a3,s0,a2
    6aa2:	00d71663          	bne	a4,a3,6aae <_free_r+0xa0>
    6aa6:	4314                	lw	a3,0(a4)
    6aa8:	4358                	lw	a4,4(a4)
    6aaa:	96b2                	add	a3,a3,a2
    6aac:	c014                	sw	a3,0(s0)
    6aae:	c058                	sw	a4,4(s0)
    6ab0:	c3c0                	sw	s0,4(a5)
    6ab2:	b769                	j	6a3c <_free_r+0x2e>
    6ab4:	8082                	ret

00006ab6 <_malloc_r>:
_malloc_r():
    6ab6:	1101                	addi	sp,sp,-32
    6ab8:	ca26                	sw	s1,20(sp)
    6aba:	00358493          	addi	s1,a1,3
    6abe:	98f1                	andi	s1,s1,-4
    6ac0:	ce06                	sw	ra,28(sp)
    6ac2:	cc22                	sw	s0,24(sp)
    6ac4:	c84a                	sw	s2,16(sp)
    6ac6:	c64e                	sw	s3,12(sp)
    6ac8:	04a1                	addi	s1,s1,8
    6aca:	47b1                	li	a5,12
    6acc:	04f4f163          	bgeu	s1,a5,6b0e <_malloc_r+0x58>
    6ad0:	44b1                	li	s1,12
    6ad2:	04b4e063          	bltu	s1,a1,6b12 <_malloc_r+0x5c>
    6ad6:	892a                	mv	s2,a0
    6ad8:	25d1                	jal	719c <__malloc_lock>
    6ada:	86c18793          	addi	a5,gp,-1940 # 200000dc <__malloc_free_list>
    6ade:	4398                	lw	a4,0(a5)
    6ae0:	843a                	mv	s0,a4
    6ae2:	e031                	bnez	s0,6b26 <_malloc_r+0x70>
    6ae4:	87018793          	addi	a5,gp,-1936 # 200000e0 <__malloc_sbrk_start>
    6ae8:	439c                	lw	a5,0(a5)
    6aea:	e791                	bnez	a5,6af6 <_malloc_r+0x40>
    6aec:	4581                	li	a1,0
    6aee:	854a                	mv	a0,s2
    6af0:	29b1                	jal	6f4c <_sbrk_r>
    6af2:	86a1a823          	sw	a0,-1936(gp) # 200000e0 <__malloc_sbrk_start>
    6af6:	85a6                	mv	a1,s1
    6af8:	854a                	mv	a0,s2
    6afa:	2989                	jal	6f4c <_sbrk_r>
    6afc:	59fd                	li	s3,-1
    6afe:	07351763          	bne	a0,s3,6b6c <_malloc_r+0xb6>
    6b02:	47b1                	li	a5,12
    6b04:	00f92023          	sw	a5,0(s2)
    6b08:	854a                	mv	a0,s2
    6b0a:	2d51                	jal	719e <__malloc_unlock>
    6b0c:	a029                	j	6b16 <_malloc_r+0x60>
    6b0e:	fc04d2e3          	bgez	s1,6ad2 <_malloc_r+0x1c>
    6b12:	47b1                	li	a5,12
    6b14:	c11c                	sw	a5,0(a0)
    6b16:	4501                	li	a0,0
    6b18:	40f2                	lw	ra,28(sp)
    6b1a:	4462                	lw	s0,24(sp)
    6b1c:	44d2                	lw	s1,20(sp)
    6b1e:	4942                	lw	s2,16(sp)
    6b20:	49b2                	lw	s3,12(sp)
    6b22:	6105                	addi	sp,sp,32
    6b24:	8082                	ret
    6b26:	401c                	lw	a5,0(s0)
    6b28:	8f85                	sub	a5,a5,s1
    6b2a:	0207ce63          	bltz	a5,6b66 <_malloc_r+0xb0>
    6b2e:	46ad                	li	a3,11
    6b30:	00f6f663          	bgeu	a3,a5,6b3c <_malloc_r+0x86>
    6b34:	c01c                	sw	a5,0(s0)
    6b36:	943e                	add	s0,s0,a5
    6b38:	c004                	sw	s1,0(s0)
    6b3a:	a031                	j	6b46 <_malloc_r+0x90>
    6b3c:	405c                	lw	a5,4(s0)
    6b3e:	02871263          	bne	a4,s0,6b62 <_malloc_r+0xac>
    6b42:	86f1a623          	sw	a5,-1940(gp) # 200000dc <__malloc_free_list>
    6b46:	854a                	mv	a0,s2
    6b48:	2d99                	jal	719e <__malloc_unlock>
    6b4a:	00b40513          	addi	a0,s0,11
    6b4e:	00440793          	addi	a5,s0,4
    6b52:	9961                	andi	a0,a0,-8
    6b54:	40f50733          	sub	a4,a0,a5
    6b58:	d361                	beqz	a4,6b18 <_malloc_r+0x62>
    6b5a:	943a                	add	s0,s0,a4
    6b5c:	8f89                	sub	a5,a5,a0
    6b5e:	c01c                	sw	a5,0(s0)
    6b60:	bf65                	j	6b18 <_malloc_r+0x62>
    6b62:	c35c                	sw	a5,4(a4)
    6b64:	b7cd                	j	6b46 <_malloc_r+0x90>
    6b66:	8722                	mv	a4,s0
    6b68:	4040                	lw	s0,4(s0)
    6b6a:	bfa5                	j	6ae2 <_malloc_r+0x2c>
    6b6c:	00350413          	addi	s0,a0,3
    6b70:	9871                	andi	s0,s0,-4
    6b72:	fc8503e3          	beq	a0,s0,6b38 <_malloc_r+0x82>
    6b76:	40a405b3          	sub	a1,s0,a0
    6b7a:	854a                	mv	a0,s2
    6b7c:	2ec1                	jal	6f4c <_sbrk_r>
    6b7e:	fb351de3          	bne	a0,s3,6b38 <_malloc_r+0x82>
    6b82:	b741                	j	6b02 <_malloc_r+0x4c>

00006b84 <_realloc_r>:
_realloc_r():
    6b84:	e581                	bnez	a1,6b8c <_realloc_r+0x8>
    6b86:	85b2                	mv	a1,a2
    6b88:	f2fff06f          	j	6ab6 <_malloc_r>
    6b8c:	1101                	addi	sp,sp,-32
    6b8e:	cc22                	sw	s0,24(sp)
    6b90:	ce06                	sw	ra,28(sp)
    6b92:	ca26                	sw	s1,20(sp)
    6b94:	c84a                	sw	s2,16(sp)
    6b96:	c64e                	sw	s3,12(sp)
    6b98:	8432                	mv	s0,a2
    6b9a:	ee01                	bnez	a2,6bb2 <_realloc_r+0x2e>
    6b9c:	e73ff0ef          	jal	ra,6a0e <_free_r>
    6ba0:	4901                	li	s2,0
    6ba2:	40f2                	lw	ra,28(sp)
    6ba4:	4462                	lw	s0,24(sp)
    6ba6:	854a                	mv	a0,s2
    6ba8:	44d2                	lw	s1,20(sp)
    6baa:	4942                	lw	s2,16(sp)
    6bac:	49b2                	lw	s3,12(sp)
    6bae:	6105                	addi	sp,sp,32
    6bb0:	8082                	ret
    6bb2:	84ae                	mv	s1,a1
    6bb4:	89aa                	mv	s3,a0
    6bb6:	23ed                	jal	71a0 <_malloc_usable_size_r>
    6bb8:	8926                	mv	s2,s1
    6bba:	fe8574e3          	bgeu	a0,s0,6ba2 <_realloc_r+0x1e>
    6bbe:	85a2                	mv	a1,s0
    6bc0:	854e                	mv	a0,s3
    6bc2:	ef5ff0ef          	jal	ra,6ab6 <_malloc_r>
    6bc6:	892a                	mv	s2,a0
    6bc8:	dd69                	beqz	a0,6ba2 <_realloc_r+0x1e>
    6bca:	85a6                	mv	a1,s1
    6bcc:	8622                	mv	a2,s0
    6bce:	f1dfe0ef          	jal	ra,5aea <memcpy>
    6bd2:	85a6                	mv	a1,s1
    6bd4:	854e                	mv	a0,s3
    6bd6:	e39ff0ef          	jal	ra,6a0e <_free_r>
    6bda:	b7e1                	j	6ba2 <_realloc_r+0x1e>

00006bdc <__ssputs_r>:
__ssputs_r():
    6bdc:	1101                	addi	sp,sp,-32
    6bde:	c84a                	sw	s2,16(sp)
    6be0:	0085a903          	lw	s2,8(a1)
    6be4:	cc22                	sw	s0,24(sp)
    6be6:	c452                	sw	s4,8(sp)
    6be8:	c05a                	sw	s6,0(sp)
    6bea:	ce06                	sw	ra,28(sp)
    6bec:	ca26                	sw	s1,20(sp)
    6bee:	c64e                	sw	s3,12(sp)
    6bf0:	c256                	sw	s5,4(sp)
    6bf2:	842e                	mv	s0,a1
    6bf4:	8b32                	mv	s6,a2
    6bf6:	8a36                	mv	s4,a3
    6bf8:	0926ee63          	bltu	a3,s2,6c94 <__ssputs_r+0xb8>
    6bfc:	00c5d783          	lhu	a5,12(a1)
    6c00:	4807f713          	andi	a4,a5,1152
    6c04:	c751                	beqz	a4,6c90 <__ssputs_r+0xb4>
    6c06:	4004                	lw	s1,0(s0)
    6c08:	498c                	lw	a1,16(a1)
    6c0a:	4858                	lw	a4,20(s0)
    6c0c:	8aaa                	mv	s5,a0
    6c0e:	40b489b3          	sub	s3,s1,a1
    6c12:	448d                	li	s1,3
    6c14:	02e484b3          	mul	s1,s1,a4
    6c18:	4709                	li	a4,2
    6c1a:	02e4c4b3          	div	s1,s1,a4
    6c1e:	00168713          	addi	a4,a3,1
    6c22:	974e                	add	a4,a4,s3
    6c24:	00e4f363          	bgeu	s1,a4,6c2a <__ssputs_r+0x4e>
    6c28:	84ba                	mv	s1,a4
    6c2a:	4007f793          	andi	a5,a5,1024
    6c2e:	c3d9                	beqz	a5,6cb4 <__ssputs_r+0xd8>
    6c30:	85a6                	mv	a1,s1
    6c32:	8556                	mv	a0,s5
    6c34:	e83ff0ef          	jal	ra,6ab6 <_malloc_r>
    6c38:	892a                	mv	s2,a0
    6c3a:	e50d                	bnez	a0,6c64 <__ssputs_r+0x88>
    6c3c:	47b1                	li	a5,12
    6c3e:	00faa023          	sw	a5,0(s5)
    6c42:	00c45783          	lhu	a5,12(s0)
    6c46:	557d                	li	a0,-1
    6c48:	0407e793          	ori	a5,a5,64
    6c4c:	00f41623          	sh	a5,12(s0)
    6c50:	40f2                	lw	ra,28(sp)
    6c52:	4462                	lw	s0,24(sp)
    6c54:	44d2                	lw	s1,20(sp)
    6c56:	4942                	lw	s2,16(sp)
    6c58:	49b2                	lw	s3,12(sp)
    6c5a:	4a22                	lw	s4,8(sp)
    6c5c:	4a92                	lw	s5,4(sp)
    6c5e:	4b02                	lw	s6,0(sp)
    6c60:	6105                	addi	sp,sp,32
    6c62:	8082                	ret
    6c64:	480c                	lw	a1,16(s0)
    6c66:	864e                	mv	a2,s3
    6c68:	e83fe0ef          	jal	ra,5aea <memcpy>
    6c6c:	00c45783          	lhu	a5,12(s0)
    6c70:	b7f7f793          	andi	a5,a5,-1153
    6c74:	0807e793          	ori	a5,a5,128
    6c78:	00f41623          	sh	a5,12(s0)
    6c7c:	01242823          	sw	s2,16(s0)
    6c80:	c844                	sw	s1,20(s0)
    6c82:	994e                	add	s2,s2,s3
    6c84:	413484b3          	sub	s1,s1,s3
    6c88:	01242023          	sw	s2,0(s0)
    6c8c:	c404                	sw	s1,8(s0)
    6c8e:	8952                	mv	s2,s4
    6c90:	012a7363          	bgeu	s4,s2,6c96 <__ssputs_r+0xba>
    6c94:	8952                	mv	s2,s4
    6c96:	4008                	lw	a0,0(s0)
    6c98:	864a                	mv	a2,s2
    6c9a:	85da                	mv	a1,s6
    6c9c:	d29ff0ef          	jal	ra,69c4 <memmove>
    6ca0:	441c                	lw	a5,8(s0)
    6ca2:	4501                	li	a0,0
    6ca4:	412787b3          	sub	a5,a5,s2
    6ca8:	c41c                	sw	a5,8(s0)
    6caa:	401c                	lw	a5,0(s0)
    6cac:	993e                	add	s2,s2,a5
    6cae:	01242023          	sw	s2,0(s0)
    6cb2:	bf79                	j	6c50 <__ssputs_r+0x74>
    6cb4:	8626                	mv	a2,s1
    6cb6:	8556                	mv	a0,s5
    6cb8:	ecdff0ef          	jal	ra,6b84 <_realloc_r>
    6cbc:	892a                	mv	s2,a0
    6cbe:	fd5d                	bnez	a0,6c7c <__ssputs_r+0xa0>
    6cc0:	480c                	lw	a1,16(s0)
    6cc2:	8556                	mv	a0,s5
    6cc4:	d4bff0ef          	jal	ra,6a0e <_free_r>
    6cc8:	bf95                	j	6c3c <__ssputs_r+0x60>

00006cca <_svfiprintf_r>:
_svfprintf_r():
    6cca:	00c5d783          	lhu	a5,12(a1)
    6cce:	7171                	addi	sp,sp,-176
    6cd0:	d326                	sw	s1,164(sp)
    6cd2:	d14a                	sw	s2,160(sp)
    6cd4:	cf4e                	sw	s3,156(sp)
    6cd6:	d706                	sw	ra,172(sp)
    6cd8:	d522                	sw	s0,168(sp)
    6cda:	cd52                	sw	s4,152(sp)
    6cdc:	cb56                	sw	s5,148(sp)
    6cde:	c95a                	sw	s6,144(sp)
    6ce0:	c75e                	sw	s7,140(sp)
    6ce2:	c562                	sw	s8,136(sp)
    6ce4:	c366                	sw	s9,132(sp)
    6ce6:	0807f793          	andi	a5,a5,128
    6cea:	89aa                	mv	s3,a0
    6cec:	892e                	mv	s2,a1
    6cee:	84b2                	mv	s1,a2
    6cf0:	c3b9                	beqz	a5,6d36 <_svfiprintf_r+0x6c>
    6cf2:	499c                	lw	a5,16(a1)
    6cf4:	e3a9                	bnez	a5,6d36 <_svfiprintf_r+0x6c>
    6cf6:	04000593          	li	a1,64
    6cfa:	c636                	sw	a3,12(sp)
    6cfc:	dbbff0ef          	jal	ra,6ab6 <_malloc_r>
    6d00:	00a92023          	sw	a0,0(s2)
    6d04:	00a92823          	sw	a0,16(s2)
    6d08:	46b2                	lw	a3,12(sp)
    6d0a:	e115                	bnez	a0,6d2e <_svfiprintf_r+0x64>
    6d0c:	47b1                	li	a5,12
    6d0e:	00f9a023          	sw	a5,0(s3)
    6d12:	557d                	li	a0,-1
    6d14:	50ba                	lw	ra,172(sp)
    6d16:	542a                	lw	s0,168(sp)
    6d18:	549a                	lw	s1,164(sp)
    6d1a:	590a                	lw	s2,160(sp)
    6d1c:	49fa                	lw	s3,156(sp)
    6d1e:	4a6a                	lw	s4,152(sp)
    6d20:	4ada                	lw	s5,148(sp)
    6d22:	4b4a                	lw	s6,144(sp)
    6d24:	4bba                	lw	s7,140(sp)
    6d26:	4c2a                	lw	s8,136(sp)
    6d28:	4c9a                	lw	s9,132(sp)
    6d2a:	614d                	addi	sp,sp,176
    6d2c:	8082                	ret
    6d2e:	04000793          	li	a5,64
    6d32:	00f92a23          	sw	a5,20(s2)
    6d36:	02000793          	li	a5,32
    6d3a:	02f10ca3          	sb	a5,57(sp)
    6d3e:	03000793          	li	a5,48
    6d42:	da02                	sw	zero,52(sp)
    6d44:	02f10d23          	sb	a5,58(sp)
    6d48:	ce36                	sw	a3,28(sp)
    6d4a:	02500b93          	li	s7,37
    6d4e:	00001a97          	auipc	s5,0x1
    6d52:	f16a8a93          	addi	s5,s5,-234 # 7c64 <MyProdInfo+0x13c>
    6d56:	4c05                	li	s8,1
    6d58:	4b29                	li	s6,10
    6d5a:	8426                	mv	s0,s1
    6d5c:	00044783          	lbu	a5,0(s0)
    6d60:	c399                	beqz	a5,6d66 <_svfiprintf_r+0x9c>
    6d62:	09779d63          	bne	a5,s7,6dfc <_svfiprintf_r+0x132>
    6d66:	40940cb3          	sub	s9,s0,s1
    6d6a:	000c8e63          	beqz	s9,6d86 <_svfiprintf_r+0xbc>
    6d6e:	86e6                	mv	a3,s9
    6d70:	8626                	mv	a2,s1
    6d72:	85ca                	mv	a1,s2
    6d74:	854e                	mv	a0,s3
    6d76:	e67ff0ef          	jal	ra,6bdc <__ssputs_r>
    6d7a:	57fd                	li	a5,-1
    6d7c:	1af50463          	beq	a0,a5,6f24 <_svfiprintf_r+0x25a>
    6d80:	56d2                	lw	a3,52(sp)
    6d82:	96e6                	add	a3,a3,s9
    6d84:	da36                	sw	a3,52(sp)
    6d86:	00044783          	lbu	a5,0(s0)
    6d8a:	18078d63          	beqz	a5,6f24 <_svfiprintf_r+0x25a>
    6d8e:	57fd                	li	a5,-1
    6d90:	00140493          	addi	s1,s0,1
    6d94:	d002                	sw	zero,32(sp)
    6d96:	d602                	sw	zero,44(sp)
    6d98:	d23e                	sw	a5,36(sp)
    6d9a:	d402                	sw	zero,40(sp)
    6d9c:	060101a3          	sb	zero,99(sp)
    6da0:	dc82                	sw	zero,120(sp)
    6da2:	0004c583          	lbu	a1,0(s1)
    6da6:	4615                	li	a2,5
    6da8:	8556                	mv	a0,s5
    6daa:	c01ff0ef          	jal	ra,69aa <memchr>
    6dae:	00148413          	addi	s0,s1,1
    6db2:	5782                	lw	a5,32(sp)
    6db4:	e531                	bnez	a0,6e00 <_svfiprintf_r+0x136>
    6db6:	0107f713          	andi	a4,a5,16
    6dba:	c709                	beqz	a4,6dc4 <_svfiprintf_r+0xfa>
    6dbc:	02000713          	li	a4,32
    6dc0:	06e101a3          	sb	a4,99(sp)
    6dc4:	0087f713          	andi	a4,a5,8
    6dc8:	c709                	beqz	a4,6dd2 <_svfiprintf_r+0x108>
    6dca:	02b00713          	li	a4,43
    6dce:	06e101a3          	sb	a4,99(sp)
    6dd2:	0004c683          	lbu	a3,0(s1)
    6dd6:	02a00713          	li	a4,42
    6dda:	02e68b63          	beq	a3,a4,6e10 <_svfiprintf_r+0x146>
    6dde:	57b2                	lw	a5,44(sp)
    6de0:	8426                	mv	s0,s1
    6de2:	4681                	li	a3,0
    6de4:	4625                	li	a2,9
    6de6:	00044703          	lbu	a4,0(s0)
    6dea:	00140593          	addi	a1,s0,1
    6dee:	fd070713          	addi	a4,a4,-48
    6df2:	06e67463          	bgeu	a2,a4,6e5a <_svfiprintf_r+0x190>
    6df6:	c68d                	beqz	a3,6e20 <_svfiprintf_r+0x156>
    6df8:	d63e                	sw	a5,44(sp)
    6dfa:	a01d                	j	6e20 <_svfiprintf_r+0x156>
    6dfc:	0405                	addi	s0,s0,1
    6dfe:	bfb9                	j	6d5c <_svfiprintf_r+0x92>
    6e00:	41550533          	sub	a0,a0,s5
    6e04:	00ac1533          	sll	a0,s8,a0
    6e08:	8fc9                	or	a5,a5,a0
    6e0a:	d03e                	sw	a5,32(sp)
    6e0c:	84a2                	mv	s1,s0
    6e0e:	bf51                	j	6da2 <_svfiprintf_r+0xd8>
    6e10:	4772                	lw	a4,28(sp)
    6e12:	00470693          	addi	a3,a4,4
    6e16:	4318                	lw	a4,0(a4)
    6e18:	ce36                	sw	a3,28(sp)
    6e1a:	02074963          	bltz	a4,6e4c <_svfiprintf_r+0x182>
    6e1e:	d63a                	sw	a4,44(sp)
    6e20:	00044703          	lbu	a4,0(s0)
    6e24:	02e00793          	li	a5,46
    6e28:	04f71f63          	bne	a4,a5,6e86 <_svfiprintf_r+0x1bc>
    6e2c:	00144703          	lbu	a4,1(s0)
    6e30:	02a00793          	li	a5,42
    6e34:	02f71b63          	bne	a4,a5,6e6a <_svfiprintf_r+0x1a0>
    6e38:	47f2                	lw	a5,28(sp)
    6e3a:	0409                	addi	s0,s0,2
    6e3c:	00478713          	addi	a4,a5,4
    6e40:	439c                	lw	a5,0(a5)
    6e42:	ce3a                	sw	a4,28(sp)
    6e44:	0207c163          	bltz	a5,6e66 <_svfiprintf_r+0x19c>
    6e48:	d23e                	sw	a5,36(sp)
    6e4a:	a835                	j	6e86 <_svfiprintf_r+0x1bc>
    6e4c:	40e00733          	neg	a4,a4
    6e50:	0027e793          	ori	a5,a5,2
    6e54:	d63a                	sw	a4,44(sp)
    6e56:	d03e                	sw	a5,32(sp)
    6e58:	b7e1                	j	6e20 <_svfiprintf_r+0x156>
    6e5a:	036787b3          	mul	a5,a5,s6
    6e5e:	4685                	li	a3,1
    6e60:	842e                	mv	s0,a1
    6e62:	97ba                	add	a5,a5,a4
    6e64:	b749                	j	6de6 <_svfiprintf_r+0x11c>
    6e66:	57fd                	li	a5,-1
    6e68:	b7c5                	j	6e48 <_svfiprintf_r+0x17e>
    6e6a:	0405                	addi	s0,s0,1
    6e6c:	d202                	sw	zero,36(sp)
    6e6e:	4681                	li	a3,0
    6e70:	4781                	li	a5,0
    6e72:	4625                	li	a2,9
    6e74:	00044703          	lbu	a4,0(s0)
    6e78:	00140593          	addi	a1,s0,1
    6e7c:	fd070713          	addi	a4,a4,-48
    6e80:	06e67863          	bgeu	a2,a4,6ef0 <_svfiprintf_r+0x226>
    6e84:	f2f1                	bnez	a3,6e48 <_svfiprintf_r+0x17e>
    6e86:	00044583          	lbu	a1,0(s0)
    6e8a:	460d                	li	a2,3
    6e8c:	00001517          	auipc	a0,0x1
    6e90:	de050513          	addi	a0,a0,-544 # 7c6c <MyProdInfo+0x144>
    6e94:	b17ff0ef          	jal	ra,69aa <memchr>
    6e98:	cd11                	beqz	a0,6eb4 <_svfiprintf_r+0x1ea>
    6e9a:	00001797          	auipc	a5,0x1
    6e9e:	dd278793          	addi	a5,a5,-558 # 7c6c <MyProdInfo+0x144>
    6ea2:	8d1d                	sub	a0,a0,a5
    6ea4:	04000793          	li	a5,64
    6ea8:	00a797b3          	sll	a5,a5,a0
    6eac:	5502                	lw	a0,32(sp)
    6eae:	0405                	addi	s0,s0,1
    6eb0:	8d5d                	or	a0,a0,a5
    6eb2:	d02a                	sw	a0,32(sp)
    6eb4:	00044583          	lbu	a1,0(s0)
    6eb8:	4619                	li	a2,6
    6eba:	00001517          	auipc	a0,0x1
    6ebe:	db650513          	addi	a0,a0,-586 # 7c70 <MyProdInfo+0x148>
    6ec2:	00140493          	addi	s1,s0,1
    6ec6:	02b10c23          	sb	a1,56(sp)
    6eca:	ae1ff0ef          	jal	ra,69aa <memchr>
    6ece:	c525                	beqz	a0,6f36 <_svfiprintf_r+0x26c>
    6ed0:	ffff9797          	auipc	a5,0xffff9
    6ed4:	13078793          	addi	a5,a5,304 # 0 <_sinit>
    6ed8:	e795                	bnez	a5,6f04 <_svfiprintf_r+0x23a>
    6eda:	5702                	lw	a4,32(sp)
    6edc:	47f2                	lw	a5,28(sp)
    6ede:	10077713          	andi	a4,a4,256
    6ee2:	cf09                	beqz	a4,6efc <_svfiprintf_r+0x232>
    6ee4:	0791                	addi	a5,a5,4
    6ee6:	ce3e                	sw	a5,28(sp)
    6ee8:	57d2                	lw	a5,52(sp)
    6eea:	97d2                	add	a5,a5,s4
    6eec:	da3e                	sw	a5,52(sp)
    6eee:	b5b5                	j	6d5a <_svfiprintf_r+0x90>
    6ef0:	036787b3          	mul	a5,a5,s6
    6ef4:	4685                	li	a3,1
    6ef6:	842e                	mv	s0,a1
    6ef8:	97ba                	add	a5,a5,a4
    6efa:	bfad                	j	6e74 <_svfiprintf_r+0x1aa>
    6efc:	079d                	addi	a5,a5,7
    6efe:	9be1                	andi	a5,a5,-8
    6f00:	07a1                	addi	a5,a5,8
    6f02:	b7d5                	j	6ee6 <_svfiprintf_r+0x21c>
    6f04:	0878                	addi	a4,sp,28
    6f06:	00000697          	auipc	a3,0x0
    6f0a:	cd668693          	addi	a3,a3,-810 # 6bdc <__ssputs_r>
    6f0e:	864a                	mv	a2,s2
    6f10:	100c                	addi	a1,sp,32
    6f12:	854e                	mv	a0,s3
    6f14:	00000097          	auipc	ra,0x0
    6f18:	000000e7          	jalr	zero # 0 <_sinit>
    6f1c:	57fd                	li	a5,-1
    6f1e:	8a2a                	mv	s4,a0
    6f20:	fcf514e3          	bne	a0,a5,6ee8 <_svfiprintf_r+0x21e>
    6f24:	00c95783          	lhu	a5,12(s2)
    6f28:	557d                	li	a0,-1
    6f2a:	0407f793          	andi	a5,a5,64
    6f2e:	de0793e3          	bnez	a5,6d14 <_svfiprintf_r+0x4a>
    6f32:	5552                	lw	a0,52(sp)
    6f34:	b3c5                	j	6d14 <_svfiprintf_r+0x4a>
    6f36:	0878                	addi	a4,sp,28
    6f38:	00000697          	auipc	a3,0x0
    6f3c:	ca468693          	addi	a3,a3,-860 # 6bdc <__ssputs_r>
    6f40:	864a                	mv	a2,s2
    6f42:	100c                	addi	a1,sp,32
    6f44:	854e                	mv	a0,s3
    6f46:	872ff0ef          	jal	ra,5fb8 <_printf_i>
    6f4a:	bfc9                	j	6f1c <_svfiprintf_r+0x252>

00006f4c <_sbrk_r>:
_sbrk_r():
    6f4c:	1141                	addi	sp,sp,-16
    6f4e:	c422                	sw	s0,8(sp)
    6f50:	842a                	mv	s0,a0
    6f52:	852e                	mv	a0,a1
    6f54:	8801ac23          	sw	zero,-1896(gp) # 20000108 <errno>
    6f58:	c606                	sw	ra,12(sp)
    6f5a:	2ce9                	jal	7234 <_sbrk>
    6f5c:	57fd                	li	a5,-1
    6f5e:	00f51763          	bne	a0,a5,6f6c <_sbrk_r+0x20>
    6f62:	89818793          	addi	a5,gp,-1896 # 20000108 <errno>
    6f66:	439c                	lw	a5,0(a5)
    6f68:	c391                	beqz	a5,6f6c <_sbrk_r+0x20>
    6f6a:	c01c                	sw	a5,0(s0)
    6f6c:	40b2                	lw	ra,12(sp)
    6f6e:	4422                	lw	s0,8(sp)
    6f70:	0141                	addi	sp,sp,16
    6f72:	8082                	ret

00006f74 <_raise_r>:
_raise_r():
    6f74:	47fd                	li	a5,31
    6f76:	00b7f663          	bgeu	a5,a1,6f82 <_raise_r+0xe>
    6f7a:	47d9                	li	a5,22
    6f7c:	c11c                	sw	a5,0(a0)
    6f7e:	557d                	li	a0,-1
    6f80:	8082                	ret
    6f82:	417c                	lw	a5,68(a0)
    6f84:	1101                	addi	sp,sp,-32
    6f86:	cc22                	sw	s0,24(sp)
    6f88:	ce06                	sw	ra,28(sp)
    6f8a:	862e                	mv	a2,a1
    6f8c:	842a                	mv	s0,a0
    6f8e:	c791                	beqz	a5,6f9a <_raise_r+0x26>
    6f90:	00259713          	slli	a4,a1,0x2
    6f94:	97ba                	add	a5,a5,a4
    6f96:	4398                	lw	a4,0(a5)
    6f98:	eb19                	bnez	a4,6fae <_raise_r+0x3a>
    6f9a:	8522                	mv	a0,s0
    6f9c:	c632                	sw	a2,12(sp)
    6f9e:	20bd                	jal	700c <_getpid_r>
    6fa0:	85aa                	mv	a1,a0
    6fa2:	8522                	mv	a0,s0
    6fa4:	4462                	lw	s0,24(sp)
    6fa6:	4632                	lw	a2,12(sp)
    6fa8:	40f2                	lw	ra,28(sp)
    6faa:	6105                	addi	sp,sp,32
    6fac:	a81d                	j	6fe2 <_kill_r>
    6fae:	4685                	li	a3,1
    6fb0:	4501                	li	a0,0
    6fb2:	00d70863          	beq	a4,a3,6fc2 <_raise_r+0x4e>
    6fb6:	56fd                	li	a3,-1
    6fb8:	00d71963          	bne	a4,a3,6fca <_raise_r+0x56>
    6fbc:	47d9                	li	a5,22
    6fbe:	c01c                	sw	a5,0(s0)
    6fc0:	4505                	li	a0,1
    6fc2:	40f2                	lw	ra,28(sp)
    6fc4:	4462                	lw	s0,24(sp)
    6fc6:	6105                	addi	sp,sp,32
    6fc8:	8082                	ret
    6fca:	852e                	mv	a0,a1
    6fcc:	0007a023          	sw	zero,0(a5)
    6fd0:	9702                	jalr	a4
    6fd2:	4501                	li	a0,0
    6fd4:	b7fd                	j	6fc2 <_raise_r+0x4e>

00006fd6 <raise>:
raise():
    6fd6:	80c18793          	addi	a5,gp,-2036 # 2000007c <_impure_ptr>
    6fda:	85aa                	mv	a1,a0
    6fdc:	4388                	lw	a0,0(a5)
    6fde:	f97ff06f          	j	6f74 <_raise_r>

00006fe2 <_kill_r>:
_kill_r():
    6fe2:	1141                	addi	sp,sp,-16
    6fe4:	c422                	sw	s0,8(sp)
    6fe6:	842a                	mv	s0,a0
    6fe8:	852e                	mv	a0,a1
    6fea:	85b2                	mv	a1,a2
    6fec:	8801ac23          	sw	zero,-1896(gp) # 20000108 <errno>
    6ff0:	c606                	sw	ra,12(sp)
    6ff2:	2c39                	jal	7210 <_kill>
    6ff4:	57fd                	li	a5,-1
    6ff6:	00f51763          	bne	a0,a5,7004 <_kill_r+0x22>
    6ffa:	89818793          	addi	a5,gp,-1896 # 20000108 <errno>
    6ffe:	439c                	lw	a5,0(a5)
    7000:	c391                	beqz	a5,7004 <_kill_r+0x22>
    7002:	c01c                	sw	a5,0(s0)
    7004:	40b2                	lw	ra,12(sp)
    7006:	4422                	lw	s0,8(sp)
    7008:	0141                	addi	sp,sp,16
    700a:	8082                	ret

0000700c <_getpid_r>:
_getpid_r():
    700c:	a2f5                	j	71f8 <_getpid>

0000700e <__sread>:
__sread():
    700e:	1141                	addi	sp,sp,-16
    7010:	c422                	sw	s0,8(sp)
    7012:	842e                	mv	s0,a1
    7014:	00e59583          	lh	a1,14(a1)
    7018:	c606                	sw	ra,12(sp)
    701a:	2a69                	jal	71b4 <_read_r>
    701c:	00054963          	bltz	a0,702e <__sread+0x20>
    7020:	487c                	lw	a5,84(s0)
    7022:	97aa                	add	a5,a5,a0
    7024:	c87c                	sw	a5,84(s0)
    7026:	40b2                	lw	ra,12(sp)
    7028:	4422                	lw	s0,8(sp)
    702a:	0141                	addi	sp,sp,16
    702c:	8082                	ret
    702e:	00c45783          	lhu	a5,12(s0)
    7032:	777d                	lui	a4,0xfffff
    7034:	177d                	addi	a4,a4,-1
    7036:	8ff9                	and	a5,a5,a4
    7038:	00f41623          	sh	a5,12(s0)
    703c:	b7ed                	j	7026 <__sread+0x18>

0000703e <__swrite>:
__swrite():
    703e:	00c5d783          	lhu	a5,12(a1)
    7042:	1101                	addi	sp,sp,-32
    7044:	cc22                	sw	s0,24(sp)
    7046:	ca26                	sw	s1,20(sp)
    7048:	c84a                	sw	s2,16(sp)
    704a:	c64e                	sw	s3,12(sp)
    704c:	ce06                	sw	ra,28(sp)
    704e:	1007f793          	andi	a5,a5,256
    7052:	84aa                	mv	s1,a0
    7054:	842e                	mv	s0,a1
    7056:	8932                	mv	s2,a2
    7058:	89b6                	mv	s3,a3
    705a:	c791                	beqz	a5,7066 <__swrite+0x28>
    705c:	00e59583          	lh	a1,14(a1)
    7060:	4689                	li	a3,2
    7062:	4601                	li	a2,0
    7064:	2231                	jal	7170 <_lseek_r>
    7066:	00c45783          	lhu	a5,12(s0)
    706a:	777d                	lui	a4,0xfffff
    706c:	177d                	addi	a4,a4,-1
    706e:	8ff9                	and	a5,a5,a4
    7070:	00f41623          	sh	a5,12(s0)
    7074:	00e41583          	lh	a1,14(s0)
    7078:	4462                	lw	s0,24(sp)
    707a:	40f2                	lw	ra,28(sp)
    707c:	86ce                	mv	a3,s3
    707e:	864a                	mv	a2,s2
    7080:	49b2                	lw	s3,12(sp)
    7082:	4942                	lw	s2,16(sp)
    7084:	8526                	mv	a0,s1
    7086:	44d2                	lw	s1,20(sp)
    7088:	6105                	addi	sp,sp,32
    708a:	a83d                	j	70c8 <_write_r>

0000708c <__sseek>:
__sseek():
    708c:	1141                	addi	sp,sp,-16
    708e:	c422                	sw	s0,8(sp)
    7090:	842e                	mv	s0,a1
    7092:	00e59583          	lh	a1,14(a1)
    7096:	c606                	sw	ra,12(sp)
    7098:	28e1                	jal	7170 <_lseek_r>
    709a:	57fd                	li	a5,-1
    709c:	00c45703          	lhu	a4,12(s0)
    70a0:	00f51b63          	bne	a0,a5,70b6 <__sseek+0x2a>
    70a4:	77fd                	lui	a5,0xfffff
    70a6:	17fd                	addi	a5,a5,-1
    70a8:	8ff9                	and	a5,a5,a4
    70aa:	00f41623          	sh	a5,12(s0)
    70ae:	40b2                	lw	ra,12(sp)
    70b0:	4422                	lw	s0,8(sp)
    70b2:	0141                	addi	sp,sp,16
    70b4:	8082                	ret
    70b6:	6785                	lui	a5,0x1
    70b8:	8fd9                	or	a5,a5,a4
    70ba:	00f41623          	sh	a5,12(s0)
    70be:	c868                	sw	a0,84(s0)
    70c0:	b7fd                	j	70ae <__sseek+0x22>

000070c2 <__sclose>:
__sclose():
    70c2:	00e59583          	lh	a1,14(a1)
    70c6:	a805                	j	70f6 <_close_r>

000070c8 <_write_r>:
_write_r():
    70c8:	1141                	addi	sp,sp,-16
    70ca:	c422                	sw	s0,8(sp)
    70cc:	842a                	mv	s0,a0
    70ce:	852e                	mv	a0,a1
    70d0:	85b2                	mv	a1,a2
    70d2:	8636                	mv	a2,a3
    70d4:	8801ac23          	sw	zero,-1896(gp) # 20000108 <errno>
    70d8:	c606                	sw	ra,12(sp)
    70da:	b5ffb0ef          	jal	ra,2c38 <_write>
    70de:	57fd                	li	a5,-1
    70e0:	00f51763          	bne	a0,a5,70ee <_write_r+0x26>
    70e4:	89818793          	addi	a5,gp,-1896 # 20000108 <errno>
    70e8:	439c                	lw	a5,0(a5)
    70ea:	c391                	beqz	a5,70ee <_write_r+0x26>
    70ec:	c01c                	sw	a5,0(s0)
    70ee:	40b2                	lw	ra,12(sp)
    70f0:	4422                	lw	s0,8(sp)
    70f2:	0141                	addi	sp,sp,16
    70f4:	8082                	ret

000070f6 <_close_r>:
_close_r():
    70f6:	1141                	addi	sp,sp,-16
    70f8:	c422                	sw	s0,8(sp)
    70fa:	842a                	mv	s0,a0
    70fc:	852e                	mv	a0,a1
    70fe:	8801ac23          	sw	zero,-1896(gp) # 20000108 <errno>
    7102:	c606                	sw	ra,12(sp)
    7104:	28f1                	jal	71e0 <_close>
    7106:	57fd                	li	a5,-1
    7108:	00f51763          	bne	a0,a5,7116 <_close_r+0x20>
    710c:	89818793          	addi	a5,gp,-1896 # 20000108 <errno>
    7110:	439c                	lw	a5,0(a5)
    7112:	c391                	beqz	a5,7116 <_close_r+0x20>
    7114:	c01c                	sw	a5,0(s0)
    7116:	40b2                	lw	ra,12(sp)
    7118:	4422                	lw	s0,8(sp)
    711a:	0141                	addi	sp,sp,16
    711c:	8082                	ret

0000711e <_fstat_r>:
_fstat_r():
    711e:	1141                	addi	sp,sp,-16
    7120:	c422                	sw	s0,8(sp)
    7122:	842a                	mv	s0,a0
    7124:	852e                	mv	a0,a1
    7126:	85b2                	mv	a1,a2
    7128:	8801ac23          	sw	zero,-1896(gp) # 20000108 <errno>
    712c:	c606                	sw	ra,12(sp)
    712e:	287d                	jal	71ec <_fstat>
    7130:	57fd                	li	a5,-1
    7132:	00f51763          	bne	a0,a5,7140 <_fstat_r+0x22>
    7136:	89818793          	addi	a5,gp,-1896 # 20000108 <errno>
    713a:	439c                	lw	a5,0(a5)
    713c:	c391                	beqz	a5,7140 <_fstat_r+0x22>
    713e:	c01c                	sw	a5,0(s0)
    7140:	40b2                	lw	ra,12(sp)
    7142:	4422                	lw	s0,8(sp)
    7144:	0141                	addi	sp,sp,16
    7146:	8082                	ret

00007148 <_isatty_r>:
_isatty_r():
    7148:	1141                	addi	sp,sp,-16
    714a:	c422                	sw	s0,8(sp)
    714c:	842a                	mv	s0,a0
    714e:	852e                	mv	a0,a1
    7150:	8801ac23          	sw	zero,-1896(gp) # 20000108 <errno>
    7154:	c606                	sw	ra,12(sp)
    7156:	207d                	jal	7204 <_isatty>
    7158:	57fd                	li	a5,-1
    715a:	00f51763          	bne	a0,a5,7168 <_isatty_r+0x20>
    715e:	89818793          	addi	a5,gp,-1896 # 20000108 <errno>
    7162:	439c                	lw	a5,0(a5)
    7164:	c391                	beqz	a5,7168 <_isatty_r+0x20>
    7166:	c01c                	sw	a5,0(s0)
    7168:	40b2                	lw	ra,12(sp)
    716a:	4422                	lw	s0,8(sp)
    716c:	0141                	addi	sp,sp,16
    716e:	8082                	ret

00007170 <_lseek_r>:
_lseek_r():
    7170:	1141                	addi	sp,sp,-16
    7172:	c422                	sw	s0,8(sp)
    7174:	842a                	mv	s0,a0
    7176:	852e                	mv	a0,a1
    7178:	85b2                	mv	a1,a2
    717a:	8636                	mv	a2,a3
    717c:	8801ac23          	sw	zero,-1896(gp) # 20000108 <errno>
    7180:	c606                	sw	ra,12(sp)
    7182:	2869                	jal	721c <_lseek>
    7184:	57fd                	li	a5,-1
    7186:	00f51763          	bne	a0,a5,7194 <_lseek_r+0x24>
    718a:	89818793          	addi	a5,gp,-1896 # 20000108 <errno>
    718e:	439c                	lw	a5,0(a5)
    7190:	c391                	beqz	a5,7194 <_lseek_r+0x24>
    7192:	c01c                	sw	a5,0(s0)
    7194:	40b2                	lw	ra,12(sp)
    7196:	4422                	lw	s0,8(sp)
    7198:	0141                	addi	sp,sp,16
    719a:	8082                	ret

0000719c <__malloc_lock>:
__malloc_lock():
    719c:	8082                	ret

0000719e <__malloc_unlock>:
__malloc_unlock():
    719e:	8082                	ret

000071a0 <_malloc_usable_size_r>:
_malloc_usable_size_r():
    71a0:	ffc5a783          	lw	a5,-4(a1)
    71a4:	ffc78513          	addi	a0,a5,-4 # ffc <SPI_Init+0x6c>
    71a8:	0007d563          	bgez	a5,71b2 <_malloc_usable_size_r+0x12>
    71ac:	95aa                	add	a1,a1,a0
    71ae:	419c                	lw	a5,0(a1)
    71b0:	953e                	add	a0,a0,a5
    71b2:	8082                	ret

000071b4 <_read_r>:
_read_r():
    71b4:	1141                	addi	sp,sp,-16
    71b6:	c422                	sw	s0,8(sp)
    71b8:	842a                	mv	s0,a0
    71ba:	852e                	mv	a0,a1
    71bc:	85b2                	mv	a1,a2
    71be:	8636                	mv	a2,a3
    71c0:	8801ac23          	sw	zero,-1896(gp) # 20000108 <errno>
    71c4:	c606                	sw	ra,12(sp)
    71c6:	208d                	jal	7228 <_read>
    71c8:	57fd                	li	a5,-1
    71ca:	00f51763          	bne	a0,a5,71d8 <_read_r+0x24>
    71ce:	89818793          	addi	a5,gp,-1896 # 20000108 <errno>
    71d2:	439c                	lw	a5,0(a5)
    71d4:	c391                	beqz	a5,71d8 <_read_r+0x24>
    71d6:	c01c                	sw	a5,0(s0)
    71d8:	40b2                	lw	ra,12(sp)
    71da:	4422                	lw	s0,8(sp)
    71dc:	0141                	addi	sp,sp,16
    71de:	8082                	ret

000071e0 <_close>:
_close():
    71e0:	05800793          	li	a5,88
    71e4:	88f1ac23          	sw	a5,-1896(gp) # 20000108 <errno>
    71e8:	557d                	li	a0,-1
    71ea:	8082                	ret

000071ec <_fstat>:
_fstat():
    71ec:	05800793          	li	a5,88
    71f0:	88f1ac23          	sw	a5,-1896(gp) # 20000108 <errno>
    71f4:	557d                	li	a0,-1
    71f6:	8082                	ret

000071f8 <_getpid>:
_getpid():
    71f8:	05800793          	li	a5,88
    71fc:	88f1ac23          	sw	a5,-1896(gp) # 20000108 <errno>
    7200:	557d                	li	a0,-1
    7202:	8082                	ret

00007204 <_isatty>:
_isatty():
    7204:	05800793          	li	a5,88
    7208:	88f1ac23          	sw	a5,-1896(gp) # 20000108 <errno>
    720c:	4501                	li	a0,0
    720e:	8082                	ret

00007210 <_kill>:
_kill():
    7210:	05800793          	li	a5,88
    7214:	88f1ac23          	sw	a5,-1896(gp) # 20000108 <errno>
    7218:	557d                	li	a0,-1
    721a:	8082                	ret

0000721c <_lseek>:
_lseek():
    721c:	05800793          	li	a5,88
    7220:	88f1ac23          	sw	a5,-1896(gp) # 20000108 <errno>
    7224:	557d                	li	a0,-1
    7226:	8082                	ret

00007228 <_read>:
_read():
    7228:	05800793          	li	a5,88
    722c:	88f1ac23          	sw	a5,-1896(gp) # 20000108 <errno>
    7230:	557d                	li	a0,-1
    7232:	8082                	ret

00007234 <_sbrk>:
_sbrk():
    7234:	87418793          	addi	a5,gp,-1932 # 200000e4 <heap_end.1518>
    7238:	439c                	lw	a5,0(a5)
    723a:	c791                	beqz	a5,7246 <_sbrk+0x12>
    723c:	953e                	add	a0,a0,a5
    723e:	86a1aa23          	sw	a0,-1932(gp) # 200000e4 <heap_end.1518>
    7242:	853e                	mv	a0,a5
    7244:	8082                	ret
    7246:	89c18793          	addi	a5,gp,-1892 # 2000010c <_ebss>
    724a:	953e                	add	a0,a0,a5
    724c:	86a1aa23          	sw	a0,-1932(gp) # 200000e4 <heap_end.1518>
    7250:	853e                	mv	a0,a5
    7252:	8082                	ret

00007254 <_exit>:
_exit():
    7254:	a001                	j	7254 <_exit>
    7256:	0000                	unimp
    7258:	0a0d4b4f          	fnmadd.d	fs6,fs10,ft0,ft1,rmm
    725c:	0000                	unimp
    725e:	0000                	unimp
    7260:	0a0d                	addi	s4,s4,3
    7262:	0000                	unimp
    7264:	5441                	li	s0,-16
    7266:	003d002b          	0x3d002b
    726a:	0000                	unimp
    726c:	5441                	li	s0,-16
    726e:	2e2e                	fld	ft8,200(sp)
    7270:	002e                	c.slli	zero,0xb
    7272:	0000                	unimp
    7274:	5441                	li	s0,-16
    7276:	4958452b          	0x4958452b
    727a:	0054                	addi	a3,sp,4
    727c:	5441                	li	s0,-16
    727e:	5345522b          	0x5345522b
    7282:	5445                	li	s0,-15
    7284:	0000                	unimp
    7286:	0000                	unimp
    7288:	5441                	li	s0,-16
    728a:	43414d2b          	0x43414d2b
    728e:	5054003f 4c42004c 	0x4c42004c5054003f
    7296:	4d45                	li	s10,17
    7298:	0045444f          	fnmadd.s	fs0,fa0,ft4,ft0,rmm
    729c:	5441                	li	s0,-16
    729e:	454c422b          	0x454c422b
    72a2:	3f415453          	0x3f415453
    72a6:	0000                	unimp
    72a8:	414e                	lw	sp,208(sp)
    72aa:	454d                	li	a0,19
    72ac:	0000                	unimp
    72ae:	0000                	unimp
    72b0:	4e50                	lw	a2,28(a2)
    72b2:	4d41                	li	s10,16
    72b4:	0045                	c.nop	17
    72b6:	0000                	unimp
    72b8:	0046464f          	fnmadd.s	fa2,fa2,ft4,ft0,rmm
    72bc:	4150                	lw	a2,4(a0)
    72be:	004e4553          	fadd.s	fa0,ft8,ft4,rmm
    72c2:	0000                	unimp
    72c4:	00004e4f          	fnmadd.s	ft8,ft0,ft0,ft0,rmm
    72c8:	4150                	lw	a2,4(a0)
    72ca:	00005353          	fadd.s	ft6,ft0,ft0,unknown
    72ce:	0000                	unimp
    72d0:	4e4e4f43          	fmadd.q	ft10,ft8,ft4,fs1,rmm
    72d4:	0000                	unimp
    72d6:	0000                	unimp
    72d8:	414e4f43          	fmadd.s	ft10,ft8,fs4,fs0,rmm
    72dc:	4444                	lw	s1,12(s0)
    72de:	0000                	unimp
    72e0:	302c4e4f          	fnmadd.s	ft8,fs8,ft2,ft6,rmm
    72e4:	0000                	unimp
    72e6:	0000                	unimp
    72e8:	5352                	lw	t1,52(sp)
    72ea:	00004953          	fadd.s	fs2,ft0,ft0,rmm
    72ee:	0000                	unimp
    72f0:	0030                	addi	a2,sp,8
    72f2:	0000                	unimp
    72f4:	3a45                	jal	6ca4 <__ssputs_r+0xc8>
    72f6:	c3c0d72f          	0xc3c0d72f
    72fa:	2fe6                	fld	ft11,88(sp)
    72fc:	3931                	jal	6f18 <_svfiprintf_r+0x24e>
    72fe:	6874                	flw	fa3,84(s0)
    7300:	c7d6                	sw	s5,204(sp)
    7302:	dcc4                	sw	s1,60(s1)
    7304:	b52fb5b3          	0xb52fb5b3
    7308:	c6a5                	beqz	a3,7370 <_exit+0x11c>
    730a:	bbac                	fsd	fa1,112(a5)
    730c:	c5fa                	sw	t5,200(sp)
    730e:	d1e0                	sw	s0,100(a1)
    7310:	a1b5                	j	777c <tft_ascii+0x300>
    7312:	bfa2                	fsd	fs0,504(sp)
    7314:	babc                	fsd	fa5,112(a3)
    7316:	48432fcb          	fnmsub.s	ft11,ft6,ft4,fs1,rdn
    731a:	31563233          	0x31563233
    731e:	3330                	fld	fa2,96(a4)
    7320:	4c5f 6269 6172      	0x617262694c5f
    7326:	7972                	flw	fs2,60(sp)
    7328:	6d2d                	lui	s10,0xb
    732a:	7361                	lui	t1,0xffff8
    732c:	6574                	flw	fa3,76(a0)
    732e:	2f72                	fld	ft10,280(sp)
    7330:	6b656553          	0x6b656553
    7334:	7266                	flw	ft4,120(sp)
    7336:	6565                	lui	a0,0x19
    7338:	435f 3348 5632      	0x56323348435f
    733e:	3031                	jal	6b4a <_malloc_r+0x94>
    7340:	54385233          	0x54385233
    7344:	5f36                	lw	t5,108(sp)
    7346:	6e65704f          	fnmadd.q	ft0,fa0,ft6,fa3
    734a:	72756f73          	csrrsi	t5,0x727,10
    734e:	4c5f6563          	bltu	t5,t0,7818 <tft_ascii+0x39c>
    7352:	6269                	lui	tp,0x1a
    7354:	6172                	flw	ft2,28(sp)
    7356:	7972                	flw	fs2,60(sp)
    7358:	62694c2f          	0x62694c2f
    735c:	6172                	flw	ft2,28(sp)
    735e:	6972                	flw	fs2,28(sp)
    7360:	7365                	lui	t1,0xffff9
    7362:	6565732f          	0x6565732f
    7366:	6572666b          	0x6572666b
    736a:	5f65                	li	t5,-7
    736c:	6570                	flw	fa2,76(a0)
    736e:	6972                	flw	fs2,28(sp)
    7370:	6870                	flw	fa2,84(s0)
    7372:	7265                	lui	tp,0xffff9
    7374:	6c61                	lui	s8,0x18
    7376:	4545532f          	0x4545532f
    737a:	4552464b          	0x4552464b
    737e:	5f45                	li	t5,-15
    7380:	4c42                	lw	s8,16(sp)
    7382:	4555                	li	a0,21
    7384:	4f54                	lw	a3,28(a4)
    7386:	5f48544f          	fnmadd.q	fs0,fa6,fs4,fa1,unknown
    738a:	31394843          	fmadd.s	fa6,fs2,fs3,ft6,rmm
    738e:	3134                	fld	fa3,96(a0)
    7390:	632e                	flw	ft6,200(sp)
    7392:	0000                	unimp
    7394:	6c62                	flw	fs8,24(sp)
    7396:	0065                	c.nop	25
    7398:	3030                	fld	fa2,96(s0)
    739a:	3030                	fld	fa2,96(s0)
    739c:	3030                	fld	fa2,96(s0)
    739e:	0000                	unimp
    73a0:	0030                	addi	a2,sp,8
    73a2:	0000                	unimp
    73a4:	3a45                	jal	6d54 <_svfiprintf_r+0x8a>
    73a6:	c3c0d72f          	0xc3c0d72f
    73aa:	2fe6                	fld	ft11,88(sp)
    73ac:	3931                	jal	6fc8 <_raise_r+0x54>
    73ae:	6874                	flw	fa3,84(s0)
    73b0:	c7d6                	sw	s5,204(sp)
    73b2:	dcc4                	sw	s1,60(s1)
    73b4:	b52fb5b3          	0xb52fb5b3
    73b8:	c6a5                	beqz	a3,7420 <_exit+0x1cc>
    73ba:	bbac                	fsd	fa1,112(a5)
    73bc:	c5fa                	sw	t5,200(sp)
    73be:	d1e0                	sw	s0,100(a1)
    73c0:	a1b5                	j	782c <tft_ascii+0x3b0>
    73c2:	bfa2                	fsd	fs0,504(sp)
    73c4:	babc                	fsd	fa5,112(a3)
    73c6:	48432fcb          	fnmsub.s	ft11,ft6,ft4,fs1,rdn
    73ca:	31563233          	0x31563233
    73ce:	3330                	fld	fa2,96(a4)
    73d0:	4c5f 6269 6172      	0x617262694c5f
    73d6:	7972                	flw	fs2,60(sp)
    73d8:	6d2d                	lui	s10,0xb
    73da:	7361                	lui	t1,0xffff8
    73dc:	6574                	flw	fa3,76(a0)
    73de:	2f72                	fld	ft10,280(sp)
    73e0:	6b656553          	0x6b656553
    73e4:	7266                	flw	ft4,120(sp)
    73e6:	6565                	lui	a0,0x19
    73e8:	435f 3348 5632      	0x56323348435f
    73ee:	3031                	jal	6bfa <__ssputs_r+0x1e>
    73f0:	54385233          	0x54385233
    73f4:	5f36                	lw	t5,108(sp)
    73f6:	6e65704f          	fnmadd.q	ft0,fa0,ft6,fa3
    73fa:	72756f73          	csrrsi	t5,0x727,10
    73fe:	4c5f6563          	bltu	t5,t0,78c8 <tft_ascii+0x44c>
    7402:	6269                	lui	tp,0x1a
    7404:	6172                	flw	ft2,28(sp)
    7406:	7972                	flw	fs2,60(sp)
    7408:	62694c2f          	0x62694c2f
    740c:	6172                	flw	ft2,28(sp)
    740e:	6972                	flw	fs2,28(sp)
    7410:	7365                	lui	t1,0xffff9
    7412:	6565732f          	0x6565732f
    7416:	6572666b          	0x6572666b
    741a:	5f65                	li	t5,-7
    741c:	696c                	flw	fa1,84(a0)
    741e:	7262                	flw	ft4,56(sp)
    7420:	7261                	lui	tp,0xffff8
    7422:	6569                	lui	a0,0x1a
    7424:	667a2f73          	csrrs	t5,0x667,s4
    7428:	735f 6970 632e      	0x632e6970735f
    742e:	0000                	unimp
    7430:	4441                	li	s0,16
    7432:	00003a43          	fmadd.s	fs4,ft0,ft0,ft0,rup
    7436:	0000                	unimp
    7438:	4e45                	li	t3,17
    743a:	00003a43          	fmadd.s	fs4,ft0,ft0,ft0,rup
    743e:	0000                	unimp
    7440:	4520                	lw	s0,72(a0)
    7442:	434e                	lw	t1,208(sp)
    7444:	003a                	c.slli	zero,0xe
    7446:	0000                	unimp
    7448:	5020                	lw	s0,96(s0)
    744a:	003a4d57          	0x3a4d57
    744e:	0000                	unimp
    7450:	6c50                	flw	fa2,28(s0)
    7452:	6165                	addi	sp,sp,112
    7454:	70206573          	csrrsi	a0,0x702,0
    7458:	6572                	flw	fa0,28(sp)
    745a:	74207373          	csrrci	t1,0x742,0
    745e:	6568                	flw	fa0,76(a0)
    7460:	6b20                	flw	fs0,80(a4)
    7462:	7965                	lui	s2,0xffff9
    7464:	002e                	c.slli	zero,0xb
    7466:	0000                	unimp
    7468:	2079656b          	0x2079656b
    746c:	7270                	flw	fa2,100(a2)
    746e:	7365                	lui	t1,0xffff9
    7470:	2e646573          	csrrsi	a0,0x2e6,8
    7474:	0000                	unimp
    7476:	0000                	unimp
    7478:	6425                	lui	s0,0x9
	...

0000747c <tft_ascii>:
	...
    748c:	0000 0800 0808 0808 0808 0000 0808 0000     ................
    749c:	4800 2424 0012 0000 0000 0000 0000 0000     .H$$............
    74ac:	0000 4800 4848 247e 2424 247e 2424 0000     ...HHH~$$$~$$$..
    74bc:	0000 3c10 5252 1c12 5030 5250 3c52 1010     ...<RR..0PPRR<..
    74cc:	0000 2200 1525 0d15 582a 5454 2252 0000     ..."%...*XTTR"..
    74dc:	0000 0c00 1212 0a12 2576 1929 6e91 0000     ........v%)..n..
    74ec:	0600 0404 0002 0000 0000 0000 0000 0000     ................
    74fc:	4000 1020 0810 0808 0808 1008 2010 0040     .@ .......... @.
    750c:	0200 0804 1008 1010 1010 0810 0408 0002     ................
    751c:	0000 0000 0808 1c6b 6b1c 0808 0000 0000     ......k..k......
    752c:	0000 0000 1000 1010 10fe 1010 0000 0000     ................
	...
    7548:	0406 0204 0000 0000 0000 0000 007e 0000     ............~...
	...
    7568:	0606 0000 0000 2040 2020 1010 0808 0408     ......@   ......
    7578:	0204 0002 0000 1800 4224 4242 4242 4242     ........$BBBBBBB
    7588:	1824 0000 0000 1000 101c 1010 1010 1010     $...............
    7598:	7c10 0000 0000 3c00 4242 4042 1020 0408     .|.....<BBB@ ...
    75a8:	7e42 0000 0000 3c00 4242 2040 2018 4240     B~.....<BB@ . @B
    75b8:	3c42 0000 0000 2000 3030 2428 2224 20fe     B<..... 00($$". 
    75c8:	f820 0000 0000 7e00 0202 1e02 4022 4240      ......~...."@@B
    75d8:	1c22 0000 0000 1800 0224 3a02 4246 4242     ".......$..:FBBB
    75e8:	3844 0000 0000 7e00 2042 1020 0810 0808     D8.....~B  .....
    75f8:	0808 0000 0000 3c00 4242 2442 2418 4242     .......<BBB$.$BB
    7608:	3c42 0000 0000 1c00 4222 4242 5c62 4040     B<......"BBBb\@@
    7618:	1824 0000 0000 0000 0000 1818 0000 0000     $...............
    7628:	1818 0000 0000 0000 0000 0800 0000 0000     ................
    7638:	0800 0808 0000 4000 1020 0408 0402 1008     .......@ .......
    7648:	4020 0000 0000 0000 0000 007e 7e00 0000      @........~..~..
    7658:	0000 0000 0000 0200 0804 2010 2040 0810     ........... @ ..
    7668:	0204 0000 0000 3c00 4242 2046 1010 0010     .......<BBF ....
    7678:	1818 0000 0000 1c00 5a22 5555 5555 3a55     ........"ZUUUUU:
    7688:	3c42 0000 0000 0800 1808 1414 3c24 4222     B<..........$<"B
    7698:	e742 0000 0000 1f00 2222 1e22 4222 4242     B......."""."BBB
    76a8:	1f22 0000 0000 7c00 4242 0101 0101 4201     "......|BB.....B
    76b8:	1c22 0000 0000 1f00 4222 4242 4242 4242     "......."BBBBBBB
    76c8:	1f22 0000 0000 3f00 1242 1e12 1212 4202     "......?B......B
    76d8:	3f42 0000 0000 3f00 1242 1e12 1212 0202     B?.....?B.......
    76e8:	0702 0000 0000 3c00 2222 0101 7101 2221     .......<""...q!"
    76f8:	1c22 0000 0000 e700 4242 4242 427e 4242     ".......BBBB~BBB
    7708:	e742 0000 0000 3e00 0808 0808 0808 0808     B......>........
    7718:	3e08 0000 0000 7c00 1010 1010 1010 1010     .>.....|........
    7728:	1010 0f11 0000 7700 1222 0e0a 120a 2212     .......w"......"
    7738:	7722 0000 0000 0700 0202 0202 0202 0202     "w..............
    7748:	7f42 0000 0000 7700 3636 3636 2a36 2a2a     B......w66666***
    7758:	6b2a 0000 0000 e300 4646 4a4a 5252 6252     *k......FFJJRRRb
    7768:	4762 0000 0000 1c00 4122 4141 4141 4141     bG......"AAAAAAA
    7778:	1c22 0000 0000 3f00 4242 4242 023e 0202     "......?BBBB>...
    7788:	0702 0000 0000 1c00 4122 4141 4141 4d41     ........"AAAAAAM
    7798:	1c32 0060 0000 3f00 4242 3e42 1212 2222     2.`....?BBB>..""
    77a8:	c742 0000 0000 7c00 4242 0402 2018 4240     B......|BB... @B
    77b8:	3e42 0000 0000 7f00 0849 0808 0808 0808     B>......I.......
    77c8:	1c08 0000 0000 e700 4242 4242 4242 4242     ........BBBBBBBB
    77d8:	3c42 0000 0000 e700 4242 2422 1424 1814     B<......BB"$$...
    77e8:	0808 0000 0000 6b00 2a2a 2a2a 362a 1414     .......k*****6..
    77f8:	1414 0000 0000 e700 2442 1824 1818 2424     ........B$$...$$
    7808:	e742 0000 0000 7700 2222 1414 0808 0808     B......w""......
    7818:	1c08 0000 0000 7e00 2021 1010 0408 4204     .......~! .....B
    7828:	3f42 0000 7800 0808 0808 0808 0808 0808     B?...x..........
    7838:	0808 0078 0000 0402 0404 0808 1008 2010     ..x............ 
    7848:	2020 4040 1e00 1010 1010 1010 1010 1010       @@............
    7858:	1010 001e 1800 0024 0000 0000 0000 0000     ......$.........
	...
    7878:	0000 ff00 0600 0008 0000 0000 0000 0000     ................
	...
    7890:	0000 1c00 3022 222c 6c32 0000 0000 0000     ...."0,"2l......
    78a0:	0203 1a02 4226 4242 1a26 0000 0000 0000     ....&BBB&.......
    78b0:	0000 3800 0244 0202 3844 0000 0000 0000     ...8D...D8......
    78c0:	4060 7c40 4242 4242 dc62 0000 0000 0000     `@@|BBBBb.......
    78d0:	0000 3c00 4242 027e 3c42 0000 0000 0000     ...<BB~.B<......
    78e0:	4830 3e08 0808 0808 3e08 0000 0000 0000     0H.>.....>......
    78f0:	0000 7c00 2222 021c 423c 3c42 0000 0000     ...|""..<BB<....
    7900:	0203 3a02 4246 4242 e742 0000 0000 0c00     ...:FBBBB.......
    7910:	000c 0e00 0808 0808 3e08 0000 0000 3000     .........>.....0
    7920:	0030 3800 2020 2020 2020 1e22 0000 0000     0..8      ".....
    7930:	0203 7202 0a12 120e 7722 0000 0000 0800     ...r...."w......
    7940:	080e 0808 0808 0808 3e08 0000 0000 0000     .........>......
    7950:	0000 7f00 9292 9292 b792 0000 0000 0000     ................
    7960:	0000 3b00 4246 4242 e742 0000 0000 0000     ...;FBBBB.......
    7970:	0000 3c00 4242 4242 3c42 0000 0000 0000     ...<BBBBB<......
    7980:	0000 1b00 4226 4242 1a26 0702 0000 0000     ....&BBB&.......
    7990:	0000 5800 4264 4242 5864 e040 0000 0000     ...XdBBBdX@.....
    79a0:	0000 7700 044c 0404 1f04 0000 0000 0000     ...wL...........
    79b0:	0000 7c00 0242 403c 3e42 0000 0000 0000     ...|B.<@B>......
    79c0:	0800 3e08 0808 0808 3048 0000 0000 0000     ...>....H0......
    79d0:	0000 6300 4242 4242 dc62 0000 0000 0000     ...cBBBBb.......
    79e0:	0000 7700 2222 1414 0808 0000 0000 0000     ...w""..........
    79f0:	0000 db00 5291 2a5a 2424 0000 0000 0000     .....RZ*$$......
    7a00:	0000 6e00 1824 1818 7624 0000 0000 0000     ...n$...$v......
    7a10:	0000 e700 2442 1824 0818 0608 0000 0000     ....B$$.........
    7a20:	0000 7e00 1022 0808 7e44 0000 c000 2020     ...~"...D~....  
    7a30:	2020 2020 2010 2020 2020 00c0 1010 1010         .     ......
    7a40:	1010 1010 1010 1010 1010 1010 0300 0404     ................
    7a50:	0404 0404 0408 0404 0404 0003 5a04 0020     .............Z .
	...

00007a6c <GPION>:
    7a6c:	0800 4001 0c00 4001 1000 4001 1400 4001     ...@...@...@...@

00007a7c <__func__.3350>:
    7a7c:	7073 5f69 7067 6f69 695f 696e 0074 0000     spi_gpio_init...

00007a8c <TIMERN>:
    7a8c:	2c00 4001 0000 4000 0400 4000 0800 4000     .,.@...@...@...@

00007a9c <UARTN>:
    7a9c:	3800 4001 4400 4000 4800 4000 4c00 4000     .8.@.D.@.H.@.L.@

00007aac <MyDevDescr>:
    7aac:	0112 0110 0002 4000 1a86 5722 0100 0201     .......@.."W....
    7abc:	0103 0000                                   ....

00007ac0 <MyCfgDescr>:
    7ac0:	0209 0043 0102 a000 0932 0004 0100 0202     ..C.....2.......
    7ad0:	0001 2405 1000 0501 0124 0000 2404 0202     ...$....$....$..
    7ae0:	2405 0006 0701 8105 4003 ff00 0409 0001     .$.......@......
    7af0:	0a02 0000 0700 0205 4002 0000 0507 0282     .........@......
    7b00:	0040 0000                                   @...

00007b04 <MyProductIDInfo>:
    7b04:	0314 0032 0030 0031 0037 002d 0032 002d     ..2.0.1.7.-.2.-.
    7b14:	0032 0035                                   2.5.

00007b18 <MyManuInfo>:
    7b18:	030e 0077 0063 0068 002e 0063 006e 0000     ..w.c.h...c.n...

00007b28 <MyProdInfo>:
    7b28:	030c 0043 0048 0031 0030 0078 4e72 0000     ..C.H.1.0.x.rN..
    7b38:	4f32 0000 45ce 0000 4f32 0000 4f32 0000     2O...E..2O..2O..
    7b48:	4f32 0000 4f32 0000 4f32 0000 4f32 0000     2O..2O..2O..2O..
    7b58:	4f32 0000 4f32 0000 4f32 0000 4f32 0000     2O..2O..2O..2O..
    7b68:	4f32 0000 4f32 0000 4f32 0000 4f32 0000     2O..2O..2O..2O..
    7b78:	4f32 0000 4f32 0000 4f32 0000 4f32 0000     2O..2O..2O..2O..
    7b88:	4f32 0000 4f32 0000 4f32 0000 4f32 0000     2O..2O..2O..2O..
    7b98:	4f32 0000 4f32 0000 4f32 0000 4f32 0000     2O..2O..2O..2O..
    7ba8:	4f32 0000 4f32 0000 4f32 0000 4d64 0000     2O..2O..2O..dM..
    7bb8:	4ef0 0000 4682 0000 4f32 0000 4f32 0000     .N...F..2O..2O..
    7bc8:	4f32 0000 4f32 0000 4f32 0000 4f32 0000     2O..2O..2O..2O..
    7bd8:	4f32 0000 4f32 0000 4f32 0000 4f32 0000     2O..2O..2O..2O..
    7be8:	4f32 0000 4f32 0000 4f32 0000 46c8 0000     2O..2O..2O...F..
    7bf8:	4c8e 0000 4970 0000 4cb2 0000 4ad2 0000     .L..pI...L...J..
    7c08:	4cb2 0000 4910 0000 47cc 0000 4cb2 0000     .L...I...G...L..
    7c18:	4934 0000 4952 0000 4c74 0000 202c 7566     4I..RI..tL.., fu
    7c28:	636e 6974 6e6f 203a 0000 0000 7361 6573     nction: ....asse
    7c38:	7472 6f69 206e 2522 2273 6620 6961 656c     rtion "%s" faile
    7c48:	3a64 6620 6c69 2065 2522 2273 202c 696c     d: file "%s", li
    7c58:	656e 2520 2564 2573 0a73 0000 2d23 2b30     ne %d%s%s...#-0+
    7c68:	0020 0000 6c68 004c 6665 4567 4746 0000      ...hlL.efgEFG..
    7c78:	3130 3332 3534 3736 3938 4241 4443 4645     0123456789ABCDEF
    7c88:	0000 0000 3130 3332 3534 3736 3938 6261     ....0123456789ab
    7c98:	6463 6665 0000 0000                         cdef....

00007ca0 <__sf_fake_stderr>:
	...

00007cc0 <__sf_fake_stdin>:
	...

00007ce0 <__sf_fake_stdout>:
	...
